 SoixanteCircuits_Test

 Timestamp is 4ea9a9c1 (Thu Oct 27 20:58:09 2011)

 Preferred load address is 00400000

 Start         Length     Name                   Class
 0001:00000000 002db5c0H .text                   CODE
 0001:002db5c0 00016691H .text$x                 CODE
 0001:002f1c60 00007c5cH .text$yc                CODE
 0001:002f98c0 000006caH .text$yd                CODE
 0002:00000000 00000354H .idata$5                DATA
 0002:00000354 00000004H .CRT$XCA                DATA
 0002:00000358 0000000cH .CRT$XCC                DATA
 0002:00000364 00000008H .CRT$XCL                DATA
 0002:0000036c 00000840H .CRT$XCU                DATA
 0002:00000bac 00000004H .CRT$XCZ                DATA
 0002:00000bb0 00000004H .CRT$XIA                DATA
 0002:00000bb4 00000018H .CRT$XIC                DATA
 0002:00000bcc 00000004H .CRT$XID                DATA
 0002:00000bd0 00000004H .CRT$XIU                DATA
 0002:00000bd4 00000004H .CRT$XIY                DATA
 0002:00000bd8 00000004H .CRT$XIZ                DATA
 0002:00000bdc 00000004H .CRT$XLA                DATA
 0002:00000be0 00000004H .CRT$XLC                DATA
 0002:00000be4 00000004H .CRT$XLZ                DATA
 0002:00000be8 00000004H .CRT$XPA                DATA
 0002:00000bec 00000004H .CRT$XPX                DATA
 0002:00000bf0 00000004H .CRT$XPXA               DATA
 0002:00000bf4 00000004H .CRT$XPZ                DATA
 0002:00000bf8 00000004H .CRT$XTA                DATA
 0002:00000bfc 00000004H .CRT$XTU                DATA
 0002:00000c00 00000004H .CRT$XTZ                DATA
 0002:00000c10 000569a8H .rdata                  DATA
 0002:000575b8 00000018H .rdata$T                DATA
 0002:000575d0 00006784H .rdata$r                DATA
 0002:0005dd60 00000dfcH .rdata$sxdata           DATA
 0002:0005eb5c 00000004H .rtc$IAA                DATA
 0002:0005eb60 00000004H .rtc$IZZ                DATA
 0002:0005eb64 00000004H .rtc$TAA                DATA
 0002:0005eb68 00000004H .rtc$TZZ                DATA
 0002:0005eb70 00015294H .xdata$x                DATA
 0002:00073e04 000000a0H .idata$2                DATA
 0002:00073ea4 00000014H .idata$3                DATA
 0002:00073eb8 00000350H .idata$4                DATA
 0002:00074208 00000e50H .idata$6                DATA
 0002:00075060 00013f2fH .edata                  DATA
 0003:00000000 00018497H .data                   DATA
 0003:000184a0 0008e9acH .bss                    DATA
 0004:00000000 00000001H .tls                    DATA
 0004:00000001 00000001H .tls$ZZZ                DATA
 0005:00000000 000001b4H .rsrc$01                DATA
 0005:000001c0 00003b18H .rsrc$02                DATA

  Address         Publics by Value              Rva+Base       Lib:Object

 0000:00000000       __except_list              00000000     <absolute>
 0000:0000037f       ___safe_se_handler_count   0000037f     <absolute>
 0000:00000000       ___ImageBase               00400000     <linker-defined>
 0001:00000000       ??_GFireEmitter@@UAEPAXI@Z 00401000 f i FireEmitter.obj
 0001:00000000       ??_EStarEmitter@@UAEPAXI@Z 00401000 f i  CIL library: CIL module
 0001:00000000       ??_ESparkEmitter@@UAEPAXI@Z 00401000 f i  CIL library: CIL module
 0001:00000000       ??_GSparkEmitter@@UAEPAXI@Z 00401000 f i SparkEmitter.obj
 0001:00000000       ??_GParticleEmitter@@UAEPAXI@Z 00401000 f i ParticleEmitter.obj
 0001:00000000       ??_EFireEmitter@@UAEPAXI@Z 00401000 f i  CIL library: CIL module
 0001:00000000       ??_GStarEmitter@@UAEPAXI@Z 00401000 f i StarEmitter.obj
 0001:00000000       ??_EParticleEmitter@@UAEPAXI@Z 00401000 f i  CIL library: CIL module
 0001:00000030       ?doEmit@StarEmitter@@MAEXH@Z 00401030 f   StarEmitter.obj
 0001:00000230       ??R?$backward_compatible_uniform_01@V?$pass_through_engine@AAV?$mersenne_twister@I$0CA@$0CHA@$0BIN@$0BP@$0JJAILANP@$0L@$06$0JNCMFGIA@$0P@$0OPMGAAAA@$0BC@$0MHHGGGNO@@random@boost@@@detail@random@boost@@M@detail@boost@@QAEMXZ 00401230 f i StarEmitter.obj
 0001:000002d0       ??R?$pass_through_engine@V?$pass_through_engine@AAV?$mersenne_twister@I$0CA@$0CHA@$0BIN@$0BP@$0JJAILANP@$0L@$06$0JNCMFGIA@$0P@$0OPMGAAAA@$0BC@$0MHHGGGNO@@random@boost@@@detail@random@boost@@@detail@random@boost@@QAEIXZ 004012d0 f i StarEmitter.obj
 0001:00000330       ?twist@?$mersenne_twister@I$0CA@$0CHA@$0BIN@$0BP@$0JJAILANP@$0L@$06$0JNCMFGIA@$0P@$0OPMGAAAA@$0BC@$0MHHGGGNO@@random@boost@@AAEXH@Z 00401330 f i StarEmitter.obj
 0001:00000660       ?doEmit@FireEmitter@@MAEXH@Z 00401660 f   FireEmitter.obj
 0001:00000890       ??1bad_alloc@std@@UAE@XZ   00401890 f i FireParticle.obj
 0001:000008a0       ??_Ebad_alloc@std@@UAEPAXI@Z 004018a0 f i  CIL library: CIL module
 0001:000008a0       ??_Gbad_alloc@std@@UAEPAXI@Z 004018a0 f i FireParticle.obj
 0001:000008d0       ?loadResource@app@cinder@@YA?AV?$shared_ptr@VDataSourceBuffer@cinder@@@tr1@std@@HABV?$basic_string@DU?$char_traits@D@std@@V?$allocator@D@2@@5@@Z 004018d0 f i FireParticle.obj
 0001:000008f0       ??0FireParticle@@QAE@PAVParticleEngine@@@Z 004018f0 f   FireParticle.obj
 0001:00000c30       ??_GFireParticle@@UAEPAXI@Z 00401c30 f i FireParticle.obj
 0001:00000c30       ??_EFireParticle@@UAEPAXI@Z 00401c30 f i  CIL library: CIL module
 0001:00000cd0       ?doUpdate@FireParticle@@MAEXXZ 00401cd0 f   FireParticle.obj
 0001:00000e20       ?doDraw@FireParticle@@MAEXXZ 00401e20 f   FireParticle.obj
 0001:00000ea0       ??0?$basic_string@DU?$char_traits@D@std@@V?$allocator@D@2@@std@@QAE@PBD@Z 00401ea0 f i FireParticle.obj
 0001:00000ee0       ?assign@?$basic_string@DU?$char_traits@D@std@@V?$allocator@D@2@@std@@QAEAAV12@ABV12@II@Z 00401ee0 f i FireParticle.obj
 0001:00000fd0       ?_Tidy@?$basic_string@DU?$char_traits@D@std@@V?$allocator@D@2@@std@@QAEX_NI@Z 00401fd0 f i FireParticle.obj
 0001:00001020       ?c_str@?$basic_string@DU?$char_traits@D@std@@V?$allocator@D@2@@std@@QBEPBDXZ 00402020 f i HaarHandDetector.obj
 0001:00001020       ?_Myptr@?$basic_string@DU?$char_traits@D@std@@V?$allocator@D@2@@std@@QBEPBDXZ 00402020 f i FireParticle.obj
 0001:00001030       ?assign@?$basic_string@DU?$char_traits@D@std@@V?$allocator@D@2@@std@@QAEAAV12@PBDI@Z 00402030 f i FireParticle.obj
 0001:00001130       ?erase@?$basic_string@DU?$char_traits@D@std@@V?$allocator@D@2@@std@@QAEAAV12@II@Z 00402130 f i FireParticle.obj
 0001:000011c0       ?_Grow@?$basic_string@DU?$char_traits@D@std@@V?$allocator@D@2@@std@@QAE_NI_N@Z 004021c0 f i FireParticle.obj
 0001:00001270       ?_Copy@?$basic_string@DU?$char_traits@D@std@@V?$allocator@D@2@@std@@QAEXII@Z 00402270 f i FireParticle.obj
 0001:000013e0       ??0bad_alloc@std@@QAE@ABV01@@Z 004023e0 f i FireParticle.obj
 0001:00001400       ??$generate@V?$pass_through_engine@V?$pass_through_engine@AAV?$mersenne_twister@I$0CA@$0CHA@$0BIN@$0BP@$0JJAILANP@$0L@$06$0JNCMFGIA@$0P@$0OPMGAAAA@$0BC@$0MHHGGGNO@@random@boost@@@detail@random@boost@@@detail@random@boost@@@?$uniform_int@H@boost@@CAHAAV?$pass_through_engine@V?$pass_through_engine@AAV?$mersenne_twister@I$0CA@$0CHA@$0BIN@$0BP@$0JJAILANP@$0L@$06$0JNCMFGIA@$0P@$0OPMGAAAA@$0BC@$0MHHGGGNO@@random@boost@@@detail@random@boost@@@detail@random@1@HHI@Z 00402400 f i FireParticle.obj
 0001:000015b0       ??R?$add@IH$00@detail@random@boost@@QAEHIH@Z 004025b0 f i FireParticle.obj
 0001:000015d0       ??$?RV?$pass_through_engine@V?$pass_through_engine@AAV?$mersenne_twister@I$0CA@$0CHA@$0BIN@$0BP@$0JJAILANP@$0L@$06$0JNCMFGIA@$0P@$0OPMGAAAA@$0BC@$0MHHGGGNO@@random@boost@@@detail@random@boost@@@detail@random@boost@@@?$uniform_int@I@boost@@QAEIAAV?$pass_through_engine@V?$pass_through_engine@AAV?$mersenne_twister@I$0CA@$0CHA@$0BIN@$0BP@$0JJAILANP@$0L@$06$0JNCMFGIA@$0P@$0OPMGAAAA@$0BC@$0MHHGGGNO@@random@boost@@@detail@random@boost@@@detail@random@1@@Z 004025d0 f i FireParticle.obj
 0001:000015f0       ??$generate@V?$pass_through_engine@V?$pass_through_engine@AAV?$mersenne_twister@I$0CA@$0CHA@$0BIN@$0BP@$0JJAILANP@$0L@$06$0JNCMFGIA@$0P@$0OPMGAAAA@$0BC@$0MHHGGGNO@@random@boost@@@detail@random@boost@@@detail@random@boost@@@?$uniform_int@I@boost@@CAIAAV?$pass_through_engine@V?$pass_through_engine@AAV?$mersenne_twister@I$0CA@$0CHA@$0BIN@$0BP@$0JJAILANP@$0L@$06$0JNCMFGIA@$0P@$0OPMGAAAA@$0BC@$0MHHGGGNO@@random@boost@@@detail@random@boost@@@detail@random@1@III@Z 004025f0 f i FireParticle.obj
 0001:00001790       ?calcCat@FeatureEvaluator@cv@@UBEHH@Z 00402790 f i cv210:cvcascadedetect.obj
 0001:00001790       ?_Get_deleter@_Ref_count_base@tr1@std@@UBEPAXABVtype_info@@@Z 00402790 f i HaarHandDetector.obj
 0001:000017a0       ?getAppPath@app@cinder@@YA?AV?$basic_string@DU?$char_traits@D@std@@V?$allocator@D@2@@std@@XZ 004027a0 f i HaarHandDetector.obj
 0001:000017c0       ??0Exception@cv@@QAE@HABV?$basic_string@DU?$char_traits@D@std@@V?$allocator@D@2@@std@@00H@Z 004027c0 f i HaarHandDetector.obj
 0001:00001890       ??1Exception@cv@@UAE@XZ    00402890 f i HaarHandDetector.obj
 0001:00001920       ?what@Exception@cv@@UBEPBDXZ 00402920 f i HaarHandDetector.obj
 0001:00001930       ?formatMessage@Exception@cv@@QAEXXZ 00402930 f i HaarHandDetector.obj
 0001:00001a40       ??0Mat@cv@@QAE@HHH@Z       00402a40 f i HaarHandDetector.obj
 0001:00001a90       ??0Mat@cv@@QAE@ABV01@@Z    00402a90 f i HaarHandDetector.obj
 0001:00001af0       ?create@Mat@cv@@QAEXHHH@Z  00402af0 f i HaarHandDetector.obj
 0001:00001d50       ?depth@MatND@cv@@QBEHXZ    00402d50 f i cv210:cvprecomp.obj
 0001:00001d50       ?depth@Mat@cv@@QBEHXZ      00402d50 f i HaarHandDetector.obj
 0001:00001d50       ?depth@SparseMat@cv@@QBEHXZ 00402d50 f i cv210:cvprecomp.obj
 0001:00001d60       ?size@Mat@cv@@QBE?AV?$Size_@H@2@XZ 00402d60 f i HaarHandDetector.obj
 0001:00001d80       ?hasAlpha@ImageIo@cinder@@UBE_NXZ 00402d80 f i HaarHandDetector.obj
 0001:00001d90       ??1ImageTarget@cinder@@UAE@XZ 00402d90 f i HaarHandDetector.obj
 0001:00001da0       ?setRow@ImageTarget@cinder@@UAEXHPBX@Z 00402da0 f i HaarHandDetector.obj
 0001:00001da0       ?getDc@Renderer@app@cinder@@UAEPAUHDC__@@XZ 00402da0 f i cinder:Renderer.obj
 0001:00001db0       ?createRef@ImageTargetCvMat@cinder@@SA?AV?$shared_ptr@VImageTargetCvMat@cinder@@@tr1@std@@PAVMat@cv@@@Z 00402db0 f i HaarHandDetector.obj
 0001:00001e30       ?hasAlpha@ImageTargetCvMat@cinder@@UBE_NXZ 00402e30 f i HaarHandDetector.obj
 0001:00001e50       ?getRowPointer@ImageTargetCvMat@cinder@@UAEPAXH@Z 00402e50 f i HaarHandDetector.obj
 0001:00001e70       ??0ImageIoExceptionIllegalDataType@cinder@@QAE@ABV01@@Z 00402e70 f i HaarHandDetector.obj
 0001:00001e90       ??0ImageIoException@cinder@@QAE@ABV01@@Z 00402e90 f i HaarHandDetector.obj
 0001:00001eb0       ??0Exception@cinder@@QAE@ABV01@@Z 00402eb0 f i HaarHandDetector.obj
 0001:00001ed0       ??_ECaptureExcInitFail@cinder@@UAEPAXI@Z 00402ed0 f i cinder:CaptureImplDirectShow.obj
 0001:00001ed0       ??_GException@cinder@@UAEPAXI@Z 00402ed0 f i HaarHandDetector.obj
 0001:00001ed0       ??_GImageIoExceptionFailedLoad@cinder@@UAEPAXI@Z 00402ed0 f i cinder:ImageIo.obj
 0001:00001ed0       ??_EImageIoExceptionIllegalDataType@cinder@@UAEPAXI@Z 00402ed0 f i  CIL library: CIL module
 0001:00001ed0       ??_GResourceLoadExc@app@cinder@@UAEPAXI@Z 00402ed0 f i cinder:App.obj
 0001:00001ed0       ??_EImageIoExceptionFailedLoad@cinder@@UAEPAXI@Z 00402ed0 f i cinder:ImageIo.obj
 0001:00001ed0       ??_EStreamExc@cinder@@UAEPAXI@Z 00402ed0 f i cinder:DataSource.obj
 0001:00001ed0       ??_EImageIoException@cinder@@UAEPAXI@Z 00402ed0 f i  CIL library: CIL module
 0001:00001ed0       ??_ECaptureExc@cinder@@UAEPAXI@Z 00402ed0 f i cinder:CaptureImplDirectShow.obj
 0001:00001ed0       ??_GImageIoExceptionIllegalColorModel@cinder@@UAEPAXI@Z 00402ed0 f i HaarHandDetector.obj
 0001:00001ed0       ??_EImageIoExceptionIllegalColorModel@cinder@@UAEPAXI@Z 00402ed0 f i  CIL library: CIL module
 0001:00001ed0       ??_GImageIoExceptionIllegalChannelOrder@cinder@@UAEPAXI@Z 00402ed0 f i cinder:ImageIo.obj
 0001:00001ed0       ??_GStreamExc@cinder@@UAEPAXI@Z 00402ed0 f i cinder:DataSource.obj
 0001:00001ed0       ??_GImageIoException@cinder@@UAEPAXI@Z 00402ed0 f i HaarHandDetector.obj
 0001:00001ed0       ??_GImageIoExceptionIllegalDataType@cinder@@UAEPAXI@Z 00402ed0 f i HaarHandDetector.obj
 0001:00001ed0       ??_EImageIoExceptionIllegalChannelOrder@cinder@@UAEPAXI@Z 00402ed0 f i cinder:ImageIo.obj
 0001:00001ed0       ??_EResourceLoadExc@app@cinder@@UAEPAXI@Z 00402ed0 f i cinder:App.obj
 0001:00001ed0       ??_GCaptureExc@cinder@@UAEPAXI@Z 00402ed0 f i cinder:CaptureImplDirectShow.obj
 0001:00001ed0       ??_GCaptureExcInitFail@cinder@@UAEPAXI@Z 00402ed0 f i cinder:CaptureImplDirectShow.obj
 0001:00001ed0       ??_EException@cinder@@UAEPAXI@Z 00402ed0 f i  CIL library: CIL module
 0001:00001f00       ??0ImageTargetCvMat@cinder@@IAE@PAVMat@cv@@@Z 00402f00 f i HaarHandDetector.obj
 0001:00002010       ??_EImageTarget@cinder@@UAEPAXI@Z 00403010 f i  CIL library: CIL module
 0001:00002010       ??_GImageTargetCvMat@cinder@@UAEPAXI@Z 00403010 f i HaarHandDetector.obj
 0001:00002010       ??_EImageTargetCvMat@cinder@@UAEPAXI@Z 00403010 f i  CIL library: CIL module
 0001:00002010       ??_GImageTarget@cinder@@UAEPAXI@Z 00403010 f i HaarHandDetector.obj
 0001:00002040       ??0ImageIoExceptionIllegalColorModel@cinder@@QAE@ABV01@@Z 00403040 f i HaarHandDetector.obj
 0001:00002060       ?toOcv@cinder@@YA?AVMat@cv@@V?$shared_ptr@VImageSource@cinder@@@tr1@std@@H@Z 00403060 f i HaarHandDetector.obj
 0001:000021f0       ??0HaarHandDetector@@QAE@XZ 004031f0 f   HaarHandDetector.obj
 0001:000022d0       ??_EHaarHandDetector@@UAEPAXI@Z 004032d0 f i  CIL library: CIL module
 0001:000022d0       ??_GHaarHandDetector@@UAEPAXI@Z 004032d0 f i HaarHandDetector.obj
 0001:00002350       ?doUpdateDetection@HaarHandDetector@@MAE_NV?$SurfaceT@E@cinder@@@Z 00403350 f   HaarHandDetector.obj
 0001:000027f0       ??0?$basic_string@DU?$char_traits@D@std@@V?$allocator@D@2@@std@@QAE@ABV01@@Z 004037f0 f i HaarHandDetector.obj
 0001:00002820       ?assign@?$basic_string@DU?$char_traits@D@std@@V?$allocator@D@2@@std@@QAEAAV12@$$QAV12@@Z 00403820 f i HaarHandDetector.obj
 0001:000028a0       ?append@?$basic_string@DU?$char_traits@D@std@@V?$allocator@D@2@@std@@QAEAAV12@ABV12@II@Z 004038a0 f i HaarHandDetector.obj
 0001:00002990       ?append@?$basic_string@DU?$char_traits@D@std@@V?$allocator@D@2@@std@@QAEAAV12@PBDI@Z 00403990 f i HaarHandDetector.obj
 0001:00002ab0       ?reserve@?$vector@V?$RectT@M@cinder@@V?$allocator@V?$RectT@M@cinder@@@std@@@std@@QAEXI@Z 00403ab0 f i HaarHandDetector.obj
 0001:00002b70       ?allocate@?$allocator@V?$RectT@M@cinder@@@std@@QAEPAV?$RectT@M@cinder@@I@Z 00403b70 f i HaarHandDetector.obj
 0001:00002bc0       ??$?HDU?$char_traits@D@std@@V?$allocator@D@1@@std@@YA?AV?$basic_string@DU?$char_traits@D@std@@V?$allocator@D@2@@0@$$QAV10@PBD@Z 00403bc0 f i HaarHandDetector.obj
 0001:00002c10       ??$_Resetp@VImageTargetCvMat@cinder@@@?$shared_ptr@VImageTargetCvMat@cinder@@@tr1@std@@AAEXPAVImageTargetCvMat@cinder@@@Z 00403c10 f i HaarHandDetector.obj
 0001:00002cd0       ??$_Uninit_move@PAV?$RectT@M@cinder@@PAV12@V?$allocator@V?$RectT@M@cinder@@@std@@V12@@std@@YAPAV?$RectT@M@cinder@@PAV12@00AAV?$allocator@V?$RectT@M@cinder@@@0@0U_Nonscalar_ptr_iterator_tag@0@@Z 00403cd0 f i HaarHandDetector.obj
 0001:00002d00       ??_GHandDetector@@UAEPAXI@Z 00403d00 f i HandDetector.obj
 0001:00002d00       ??_EHandDetector@@UAEPAXI@Z 00403d00 f i  CIL library: CIL module
 0001:00002d50       ??1HandDetector@@UAE@XZ    00403d50 f   HandDetector.obj
 0001:00002d80       ?updateDetection@HandDetector@@QAE_NV?$SurfaceT@E@cinder@@@Z 00403d80 f   HandDetector.obj
 0001:00002e20       ?getDetectedHands@HandDetector@@QAEXAAV?$vector@V?$RectT@M@cinder@@V?$allocator@V?$RectT@M@cinder@@@std@@@std@@@Z 00403e20 f   HandDetector.obj
 0001:00002f40       ??1?$vector@V?$RectT@M@cinder@@V?$allocator@V?$RectT@M@cinder@@@std@@@std@@QAE@XZ 00403f40 f i HandDetector.obj
 0001:00002f70       ??_GParticle@@UAEPAXI@Z    00403f70 f i Particle.obj
 0001:00002f70       ??_GSimpleParticle@@UAEPAXI@Z 00403f70 f i SimpleParticle.obj
 0001:00002f70       ??_ESimpleParticle@@UAEPAXI@Z 00403f70 f i  CIL library: CIL module
 0001:00002f70       ??_EParticle@@UAEPAXI@Z    00403f70 f i  CIL library: CIL module
 0001:00002fa0       ??1Particle@@UAE@XZ        00403fa0 f   Particle.obj
 0001:00002fb0       ?createParticle@ParticleEmitter@@IAEPAVParticle@@XZ 00403fb0 f   ParticleEmitter.obj
 0001:000030f0       ?compare@?$char_traits@D@std@@SAHPBD0I@Z 004040f0 f i ParticleEngine.obj
 0001:00003170       ??0ParticleEngine@@QAE@XZ  00404170 f   ParticleEngine.obj
 0001:000032a0       ??1?$map@V?$basic_string@DU?$char_traits@D@std@@V?$allocator@D@2@@std@@PAVParticleEmitter@@U?$less@V?$basic_string@DU?$char_traits@D@std@@V?$allocator@D@2@@std@@@2@V?$allocator@U?$pair@$$CBV?$basic_string@DU?$char_traits@D@std@@V?$allocator@D@2@@std@@PAVParticleEmitter@@@std@@@2@@std@@QAE@XZ 004042a0 f i ParticleEngine.obj
 0001:00003300       ?update@ParticleEngine@@QAEXXZ 00404300 f   ParticleEngine.obj
 0001:00003370       ??1?$list@PAVParticle@@V?$allocator@PAVParticle@@@std@@@std@@QAE@XZ 00404370 f i ParticleEngine.obj
 0001:000033b0       ??A?$map@V?$basic_string@DU?$char_traits@D@std@@V?$allocator@D@2@@std@@PAVParticleEmitter@@U?$less@V?$basic_string@DU?$char_traits@D@std@@V?$allocator@D@2@@std@@@2@V?$allocator@U?$pair@$$CBV?$basic_string@DU?$char_traits@D@std@@V?$allocator@D@2@@std@@PAVParticleEmitter@@@std@@@2@@std@@QAEAAPAVParticleEmitter@@ABV?$basic_string@DU?$char_traits@D@std@@V?$allocator@D@2@@1@@Z 004043b0 f i ParticleEngine.obj
 0001:000034d0       ??1?$pair@$$CBV?$basic_string@DU?$char_traits@D@std@@V?$allocator@D@2@@std@@PAVParticleEmitter@@@std@@QAE@XZ 004044d0 f i ParticleEngine.obj
 0001:00003500       ?compare@?$basic_string@DU?$char_traits@D@std@@V?$allocator@D@2@@std@@QBEHIIPBDI@Z 00404500 f i ParticleEngine.obj
 0001:00003570       ?erase@?$_Tree@V?$_Tmap_traits@V?$basic_string@DU?$char_traits@D@std@@V?$allocator@D@2@@std@@PAVParticleEmitter@@U?$less@V?$basic_string@DU?$char_traits@D@std@@V?$allocator@D@2@@std@@@2@V?$allocator@U?$pair@$$CBV?$basic_string@DU?$char_traits@D@std@@V?$allocator@D@2@@std@@PAVParticleEmitter@@@std@@@2@$0A@@std@@@std@@QAE?AV?$_Tree_iterator@V?$_Tree_val@V?$_Tmap_traits@V?$basic_string@DU?$char_traits@D@std@@V?$allocator@D@2@@std@@PAVParticleEmitter@@U?$less@V?$basic_string@DU?$char_traits@D@std@@V?$allocator@D@2@@std@@@2@V?$allocator@U?$pair@$$CBV?$basic_string@DU?$char_traits@D@std@@V?$allocator@D@2@@std@@PAVParticleEmitter@@@std@@@2@$0A@@std@@@std@@@2@V?$_Tree_const_iterator@V?$_Tree_val@V?$_Tmap_traits@V?$basic_string@DU?$char_traits@D@std@@V?$allocator@D@2@@std@@PAVParticleEmitter@@U?$less@V?$basic_string@DU?$char_traits@D@std@@V?$allocator@D@2@@std@@@2@V?$allocator@U?$pair@$$CBV?$basic_string@DU?$char_traits@D@std@@V?$allocator@D@2@@std@@PAVParticleEmitter@@@std@@@2@$0A@@std@@@std@@@2@0@Z 00404570 f i ParticleEngine.obj
 0001:00003630       ??1?$_Tree_val@V?$_Tmap_traits@V?$basic_string@DU?$char_traits@D@std@@V?$allocator@D@2@@std@@PAVParticleEmitter@@U?$less@V?$basic_string@DU?$char_traits@D@std@@V?$allocator@D@2@@std@@@2@V?$allocator@U?$pair@$$CBV?$basic_string@DU?$char_traits@D@std@@V?$allocator@D@2@@std@@PAVParticleEmitter@@@std@@@2@$0A@@std@@@std@@QAE@XZ 00404630 f i ParticleEngine.obj
 0001:00003640       ??R?$less@V?$basic_string@DU?$char_traits@D@std@@V?$allocator@D@2@@std@@@std@@QBE_NABV?$basic_string@DU?$char_traits@D@std@@V?$allocator@D@2@@1@0@Z 00404640 f i ParticleEngine.obj
 0001:000036a0       ?_Buynode@?$_List_val@PAVParticle@@V?$allocator@PAVParticle@@@std@@@std@@QAEPAU_Node@?$_List_nod@PAVParticle@@V?$allocator@PAVParticle@@@std@@@2@PAU342@0ABQAVParticle@@@Z 004046a0 f i ParticleEngine.obj
 0001:00003700       ?erase@?$_Tree@V?$_Tmap_traits@V?$basic_string@DU?$char_traits@D@std@@V?$allocator@D@2@@std@@PAVParticleEmitter@@U?$less@V?$basic_string@DU?$char_traits@D@std@@V?$allocator@D@2@@std@@@2@V?$allocator@U?$pair@$$CBV?$basic_string@DU?$char_traits@D@std@@V?$allocator@D@2@@std@@PAVParticleEmitter@@@std@@@2@$0A@@std@@@std@@QAE?AV?$_Tree_iterator@V?$_Tree_val@V?$_Tmap_traits@V?$basic_string@DU?$char_traits@D@std@@V?$allocator@D@2@@std@@PAVParticleEmitter@@U?$less@V?$basic_string@DU?$char_traits@D@std@@V?$allocator@D@2@@std@@@2@V?$allocator@U?$pair@$$CBV?$basic_string@DU?$char_traits@D@std@@V?$allocator@D@2@@std@@PAVParticleEmitter@@@std@@@2@$0A@@std@@@std@@@2@V?$_Tree_const_iterator@V?$_Tree_val@V?$_Tmap_traits@V?$basic_string@DU?$char_traits@D@std@@V?$allocator@D@2@@std@@PAVParticleEmitter@@U?$less@V?$basic_string@DU?$char_traits@D@std@@V?$allocator@D@2@@std@@@2@V?$allocator@U?$pair@$$CBV?$basic_string@DU?$char_traits@D@std@@V?$allocator@D@2@@std@@PAVParticleEmitter@@@std@@@2@$0A@@std@@@std@@@2@@Z 00404700 f i ParticleEngine.obj
 0001:00003990       ?_Lbound@?$_Tree@V?$_Tmap_traits@V?$basic_string@DU?$char_traits@D@std@@V?$allocator@D@2@@std@@PAVParticleEmitter@@U?$less@V?$basic_string@DU?$char_traits@D@std@@V?$allocator@D@2@@std@@@2@V?$allocator@U?$pair@$$CBV?$basic_string@DU?$char_traits@D@std@@V?$allocator@D@2@@std@@PAVParticleEmitter@@@std@@@2@$0A@@std@@@std@@IAEPAU_Node@?$_Tree_nod@V?$_Tmap_traits@V?$basic_string@DU?$char_traits@D@std@@V?$allocator@D@2@@std@@PAVParticleEmitter@@U?$less@V?$basic_string@DU?$char_traits@D@std@@V?$allocator@D@2@@std@@@2@V?$allocator@U?$pair@$$CBV?$basic_string@DU?$char_traits@D@std@@V?$allocator@D@2@@std@@PAVParticleEmitter@@@std@@@2@$0A@@std@@@2@ABV?$basic_string@DU?$char_traits@D@std@@V?$allocator@D@2@@2@@Z 00404990 f i ParticleEngine.obj
 0001:00003a90       ?_Lrotate@?$_Tree@V?$_Tmap_traits@V?$basic_string@DU?$char_traits@D@std@@V?$allocator@D@2@@std@@PAVParticleEmitter@@U?$less@V?$basic_string@DU?$char_traits@D@std@@V?$allocator@D@2@@std@@@2@V?$allocator@U?$pair@$$CBV?$basic_string@DU?$char_traits@D@std@@V?$allocator@D@2@@std@@PAVParticleEmitter@@@std@@@2@$0A@@std@@@std@@IAEXPAU_Node@?$_Tree_nod@V?$_Tmap_traits@V?$basic_string@DU?$char_traits@D@std@@V?$allocator@D@2@@std@@PAVParticleEmitter@@U?$less@V?$basic_string@DU?$char_traits@D@std@@V?$allocator@D@2@@std@@@2@V?$allocator@U?$pair@$$CBV?$basic_string@DU?$char_traits@D@std@@V?$allocator@D@2@@std@@PAVParticleEmitter@@@std@@@2@$0A@@std@@@2@@Z 00404a90 f i ParticleEngine.obj
 0001:00003af0       ?_Rrotate@?$_Tree@V?$_Tmap_traits@V?$basic_string@DU?$char_traits@D@std@@V?$allocator@D@2@@std@@PAVParticleEmitter@@U?$less@V?$basic_string@DU?$char_traits@D@std@@V?$allocator@D@2@@std@@@2@V?$allocator@U?$pair@$$CBV?$basic_string@DU?$char_traits@D@std@@V?$allocator@D@2@@std@@PAVParticleEmitter@@@std@@@2@$0A@@std@@@std@@IAEXPAU_Node@?$_Tree_nod@V?$_Tmap_traits@V?$basic_string@DU?$char_traits@D@std@@V?$allocator@D@2@@std@@PAVParticleEmitter@@U?$less@V?$basic_string@DU?$char_traits@D@std@@V?$allocator@D@2@@std@@@2@V?$allocator@U?$pair@$$CBV?$basic_string@DU?$char_traits@D@std@@V?$allocator@D@2@@std@@PAVParticleEmitter@@@std@@@2@$0A@@std@@@2@@Z 00404af0 f i ParticleEngine.obj
 0001:00003b50       ?_Max@?$_Tree_val@V?$_Tmap_traits@V?$basic_string@DU?$char_traits@D@std@@V?$allocator@D@2@@std@@PAVParticleEmitter@@U?$less@V?$basic_string@DU?$char_traits@D@std@@V?$allocator@D@2@@std@@@2@V?$allocator@U?$pair@$$CBV?$basic_string@DU?$char_traits@D@std@@V?$allocator@D@2@@std@@PAVParticleEmitter@@@std@@@2@$0A@@std@@@std@@SAPAU_Node@?$_Tree_nod@V?$_Tmap_traits@V?$basic_string@DU?$char_traits@D@std@@V?$allocator@D@2@@std@@PAVParticleEmitter@@U?$less@V?$basic_string@DU?$char_traits@D@std@@V?$allocator@D@2@@std@@@2@V?$allocator@U?$pair@$$CBV?$basic_string@DU?$char_traits@D@std@@V?$allocator@D@2@@std@@PAVParticleEmitter@@@std@@@2@$0A@@std@@@2@PAU342@@Z 00404b50 f i ParticleEngine.obj
 0001:00003b70       ??E?$_Tree_const_iterator@V?$_Tree_val@V?$_Tmap_traits@V?$basic_string@DU?$char_traits@D@std@@V?$allocator@D@2@@std@@PAVParticleEmitter@@U?$less@V?$basic_string@DU?$char_traits@D@std@@V?$allocator@D@2@@std@@@2@V?$allocator@U?$pair@$$CBV?$basic_string@DU?$char_traits@D@std@@V?$allocator@D@2@@std@@PAVParticleEmitter@@@std@@@2@$0A@@std@@@std@@@std@@QAEAAV01@XZ 00404b70 f i ParticleEngine.obj
 0001:00003bc0       ??$?MDU?$char_traits@D@std@@V?$allocator@D@1@@std@@YA_NABV?$basic_string@DU?$char_traits@D@std@@V?$allocator@D@2@@0@0@Z 00404bc0 f i ParticleEngine.obj
 0001:00003c20       ?_Insert@?$_Tree@V?$_Tmap_traits@V?$basic_string@DU?$char_traits@D@std@@V?$allocator@D@2@@std@@PAVParticleEmitter@@U?$less@V?$basic_string@DU?$char_traits@D@std@@V?$allocator@D@2@@std@@@2@V?$allocator@U?$pair@$$CBV?$basic_string@DU?$char_traits@D@std@@V?$allocator@D@2@@std@@PAVParticleEmitter@@@std@@@2@$0A@@std@@@std@@QAE?AV?$_Tree_iterator@V?$_Tree_val@V?$_Tmap_traits@V?$basic_string@DU?$char_traits@D@std@@V?$allocator@D@2@@std@@PAVParticleEmitter@@U?$less@V?$basic_string@DU?$char_traits@D@std@@V?$allocator@D@2@@std@@@2@V?$allocator@U?$pair@$$CBV?$basic_string@DU?$char_traits@D@std@@V?$allocator@D@2@@std@@PAVParticleEmitter@@@std@@@2@$0A@@std@@@std@@@2@V?$_Tree_const_iterator@V?$_Tree_val@V?$_Tmap_traits@V?$basic_string@DU?$char_traits@D@std@@V?$allocator@D@2@@std@@PAVParticleEmitter@@U?$less@V?$basic_string@DU?$char_traits@D@std@@V?$allocator@D@2@@std@@@2@V?$allocator@U?$pair@$$CBV?$basic_string@DU?$char_traits@D@std@@V?$allocator@D@2@@std@@PAVParticleEmitter@@@std@@@2@$0A@@std@@@std@@@2@PAU_Node@?$_Tree_nod@V?$_Tmap_traits@V?$basic_string@DU?$char_traits@D@std@@V?$allocator@D@2@@std@@PAVParticleEmitter@@U?$less@V?$basic_string@DU?$char_traits@D@std@@V?$allocator@D@2@@std@@@2@V?$allocator@U?$pair@$$CBV?$basic_string@DU?$char_traits@D@std@@V?$allocator@D@2@@std@@PAVParticleEmitter@@@std@@@2@$0A@@std@@@2@@Z 00404c20 f i ParticleEngine.obj
 0001:00003e10       ?_Linsert@?$_Tree@V?$_Tmap_traits@V?$basic_string@DU?$char_traits@D@std@@V?$allocator@D@2@@std@@PAVParticleEmitter@@U?$less@V?$basic_string@DU?$char_traits@D@std@@V?$allocator@D@2@@std@@@2@V?$allocator@U?$pair@$$CBV?$basic_string@DU?$char_traits@D@std@@V?$allocator@D@2@@std@@PAVParticleEmitter@@@std@@@2@$0A@@std@@@std@@QAE?AU?$pair@V?$_Tree_iterator@V?$_Tree_val@V?$_Tmap_traits@V?$basic_string@DU?$char_traits@D@std@@V?$allocator@D@2@@std@@PAVParticleEmitter@@U?$less@V?$basic_string@DU?$char_traits@D@std@@V?$allocator@D@2@@std@@@2@V?$allocator@U?$pair@$$CBV?$basic_string@DU?$char_traits@D@std@@V?$allocator@D@2@@std@@PAVParticleEmitter@@@std@@@2@$0A@@std@@@std@@@std@@_N@2@PAU_Node@?$_Tree_nod@V?$_Tmap_traits@V?$basic_string@DU?$char_traits@D@std@@V?$allocator@D@2@@std@@PAVParticleEmitter@@U?$less@V?$basic_string@DU?$char_traits@D@std@@V?$allocator@D@2@@std@@@2@V?$allocator@U?$pair@$$CBV?$basic_string@DU?$char_traits@D@std@@V?$allocator@D@2@@std@@PAVParticleEmitter@@@std@@@2@$0A@@std@@@2@_N@Z 00404e10 f i ParticleEngine.obj
 0001:00004070       ?_Insert@?$_Tree@V?$_Tmap_traits@V?$basic_string@DU?$char_traits@D@std@@V?$allocator@D@2@@std@@PAVParticleEmitter@@U?$less@V?$basic_string@DU?$char_traits@D@std@@V?$allocator@D@2@@std@@@2@V?$allocator@U?$pair@$$CBV?$basic_string@DU?$char_traits@D@std@@V?$allocator@D@2@@std@@PAVParticleEmitter@@@std@@@2@$0A@@std@@@std@@IAE?AV?$_Tree_iterator@V?$_Tree_val@V?$_Tmap_traits@V?$basic_string@DU?$char_traits@D@std@@V?$allocator@D@2@@std@@PAVParticleEmitter@@U?$less@V?$basic_string@DU?$char_traits@D@std@@V?$allocator@D@2@@std@@@2@V?$allocator@U?$pair@$$CBV?$basic_string@DU?$char_traits@D@std@@V?$allocator@D@2@@std@@PAVParticleEmitter@@@std@@@2@$0A@@std@@@std@@@2@_NPAU_Node@?$_Tree_nod@V?$_Tmap_traits@V?$basic_string@DU?$char_traits@D@std@@V?$allocator@D@2@@std@@PAVParticleEmitter@@U?$less@V?$basic_string@DU?$char_traits@D@std@@V?$allocator@D@2@@std@@@2@V?$allocator@U?$pair@$$CBV?$basic_string@DU?$char_traits@D@std@@V?$allocator@D@2@@std@@PAVParticleEmitter@@@std@@@2@$0A@@std@@@2@1@Z 00405070 f i ParticleEngine.obj
 0001:000042b0       ??$_Buynode@U?$pair@$$CBV?$basic_string@DU?$char_traits@D@std@@V?$allocator@D@2@@std@@PAVParticleEmitter@@@std@@@?$_Tree_val@V?$_Tmap_traits@V?$basic_string@DU?$char_traits@D@std@@V?$allocator@D@2@@std@@PAVParticleEmitter@@U?$less@V?$basic_string@DU?$char_traits@D@std@@V?$allocator@D@2@@std@@@2@V?$allocator@U?$pair@$$CBV?$basic_string@DU?$char_traits@D@std@@V?$allocator@D@2@@std@@PAVParticleEmitter@@@std@@@2@$0A@@std@@@std@@QAEPAU_Node@?$_Tree_nod@V?$_Tmap_traits@V?$basic_string@DU?$char_traits@D@std@@V?$allocator@D@2@@std@@PAVParticleEmitter@@U?$less@V?$basic_string@DU?$char_traits@D@std@@V?$allocator@D@2@@std@@@2@V?$allocator@U?$pair@$$CBV?$basic_string@DU?$char_traits@D@std@@V?$allocator@D@2@@std@@PAVParticleEmitter@@@std@@@2@$0A@@std@@@1@$$QAU?$pair@$$CBV?$basic_string@DU?$char_traits@D@std@@V?$allocator@D@2@@std@@PAVParticleEmitter@@@1@@Z 004052b0 f i ParticleEngine.obj
 0001:00004390       ??0SimpleParticle@@QAE@PAVParticleEngine@@@Z 00405390 f   SimpleParticle.obj
 0001:00004490       ?doUpdate@SimpleParticle@@MAEXXZ 00405490 f   SimpleParticle.obj
 0001:000045c0       ?doDraw@SimpleParticle@@MAEXXZ 004055c0 f   SimpleParticle.obj
 0001:00004610       ??1ResizeEvent@app@cinder@@UAE@XZ 00405610 f i SoixanteCircuits_TestApp.obj
 0001:00004610       ??1Event@app@cinder@@UAE@XZ 00405610 f i SoixanteCircuits_TestApp.obj
 0001:00004610       ??1KeyEvent@app@cinder@@UAE@XZ 00405610 f i SoixanteCircuits_TestApp.obj
 0001:00004610       ??1MouseEvent@app@cinder@@UAE@XZ 00405610 f i SoixanteCircuits_TestApp.obj
 0001:00004620       ??1FileDropEvent@app@cinder@@UAE@XZ 00405620 f i SoixanteCircuits_TestApp.obj
 0001:00004670       ?mouseDown@App@app@cinder@@UAEXVMouseEvent@23@@Z 00405670 f i SoixanteCircuits_TestApp.obj
 0001:00004670       ?mouseUp@App@app@cinder@@UAEXVMouseEvent@23@@Z 00405670 f i SoixanteCircuits_TestApp.obj
 0001:00004670       ?mouseWheel@App@app@cinder@@UAEXVMouseEvent@23@@Z 00405670 f i SoixanteCircuits_TestApp.obj
 0001:00004670       ?mouseMove@App@app@cinder@@UAEXVMouseEvent@23@@Z 00405670 f i SoixanteCircuits_TestApp.obj
 0001:00004670       ?mouseDrag@App@app@cinder@@UAEXVMouseEvent@23@@Z 00405670 f i SoixanteCircuits_TestApp.obj
 0001:00004680       ?keyDown@App@app@cinder@@UAEXVKeyEvent@23@@Z 00405680 f i SoixanteCircuits_TestApp.obj
 0001:00004680       ?keyUp@App@app@cinder@@UAEXVKeyEvent@23@@Z 00405680 f i SoixanteCircuits_TestApp.obj
 0001:00004690       ?resize@App@app@cinder@@UAEXVResizeEvent@23@@Z 00405690 f i SoixanteCircuits_TestApp.obj
 0001:000046a0       ?fileDrop@App@app@cinder@@UAEXVFileDropEvent@23@@Z 004056a0 f i SoixanteCircuits_TestApp.obj
 0001:000046d0       ??1TouchEvent@app@cinder@@UAE@XZ 004056d0 f i SoixanteCircuits_TestApp.obj
 0001:00004700       ?touchesBegan@AppBasic@app@cinder@@UAEXVTouchEvent@23@@Z 00405700 f i SoixanteCircuits_TestApp.obj
 0001:00004700       ?touchesMoved@AppBasic@app@cinder@@UAEXVTouchEvent@23@@Z 00405700 f i SoixanteCircuits_TestApp.obj
 0001:00004700       ?touchesEnded@AppBasic@app@cinder@@UAEXVTouchEvent@23@@Z 00405700 f i SoixanteCircuits_TestApp.obj
 0001:00004720       ?getSettings@AppBasic@app@cinder@@UBEABVSettings@123@XZ 00405720 f i SoixanteCircuits_TestApp.obj
 0001:00004730       ??1Capture@cinder@@QAE@XZ  00405730 f i SoixanteCircuits_TestApp.obj
 0001:00004770       ?loadIndex@CompositeIndex@flann@@UAEXPAU_iobuf@@@Z 00405770 f   flann:flann.obj
 0001:00004770       ?saveIndex@LinearIndex@flann@@UAEXPAU_iobuf@@@Z 00405770 f   flann:flann.obj
 0001:00004770       ?loadIndex@LinearIndex@flann@@UAEXPAU_iobuf@@@Z 00405770 f   flann:flann.obj
 0001:00004770       ?toParameters@IndexParams@flann@@UAEXAAUFLANNParameters@@@Z 00405770 f   flann:flann.obj
 0001:00004770       ?fromParameters@IndexParams@flann@@UAEXABUFLANNParameters@@@Z 00405770 f   flann:flann.obj
 0001:00004770       ?prepareSettings@SoixanteCircuits_Test_Application@@UAEXPAVSettings@AppBasic@app@cinder@@@Z 00405770 f   SoixanteCircuits_TestApp.obj
 0001:00004770       ?prepareSettings@AppBasic@app@cinder@@UAEXPAVSettings@123@@Z 00405770 f   cinder:AppBasic.obj
 0001:00004770       ?saveIndex@CompositeIndex@flann@@UAEXPAU_iobuf@@@Z 00405770 f   flann:flann.obj
 0001:00004770       ?setWindowWidth@AppImplMsw@app@cinder@@UAEXH@Z 00405770 f   cinder:AppImplMsw.obj
 0001:00004770       ?setWindowHeight@AppImplMsw@app@cinder@@UAEXH@Z 00405770 f   cinder:AppImplMsw.obj
 0001:00004780       ?setup@SoixanteCircuits_Test_Application@@UAEXXZ 00405780 f   SoixanteCircuits_TestApp.obj
 0001:00004f80       ??1InterfaceGl@params@cinder@@QAE@XZ 00405f80 f i SoixanteCircuits_TestApp.obj
 0001:00005030       ??4InterfaceGl@params@cinder@@QAEAAV012@ABV012@@Z 00406030 f i SoixanteCircuits_TestApp.obj
 0001:000050b0       ?update@SoixanteCircuits_Test_Application@@UAEXXZ 004060b0 f   SoixanteCircuits_TestApp.obj
 0001:00005500       ?draw@SoixanteCircuits_Test_Application@@UAEXXZ 00406500 f   SoixanteCircuits_TestApp.obj
 0001:00005670       _WinMain@16                00406670 f   SoixanteCircuits_TestApp.obj
 0001:00005710       ??_ESoixanteCircuits_Test_Application@@UAEPAXI@Z 00406710 f i  CIL library: CIL module
 0001:00005710       ??_GSoixanteCircuits_Test_Application@@UAEPAXI@Z 00406710 f i SoixanteCircuits_TestApp.obj
 0001:00005740       ??1SoixanteCircuits_Test_Application@@UAE@XZ 00406740 f i SoixanteCircuits_TestApp.obj
 0001:00005810       ??1?$vector@V?$basic_string@DU?$char_traits@D@std@@V?$allocator@D@2@@std@@V?$allocator@V?$basic_string@DU?$char_traits@D@std@@V?$allocator@D@2@@std@@@2@@std@@QAE@XZ 00406810 f i SoixanteCircuits_TestApp.obj
 0001:00005810       ?_Tidy@?$vector@V?$basic_string@DU?$char_traits@D@std@@V?$allocator@D@2@@std@@V?$allocator@V?$basic_string@DU?$char_traits@D@std@@V?$allocator@D@2@@std@@@2@@std@@IAEXXZ 00406810 f i SoixanteCircuits_TestApp.obj
 0001:00005850       ?push_back@?$vector@V?$basic_string@DU?$char_traits@D@std@@V?$allocator@D@2@@std@@V?$allocator@V?$basic_string@DU?$char_traits@D@std@@V?$allocator@D@2@@std@@@2@@std@@QAEXABV?$basic_string@DU?$char_traits@D@std@@V?$allocator@D@2@@2@@Z 00406850 f i SoixanteCircuits_TestApp.obj
 0001:00005920       ??4?$vector@V?$shared_ptr@V?$function@$$A6AXXZ@tr1@std@@@tr1@std@@V?$allocator@V?$shared_ptr@V?$function@$$A6AXXZ@tr1@std@@@tr1@std@@@3@@std@@QAEAAV01@ABV01@@Z 00406920 f i SoixanteCircuits_TestApp.obj
 0001:00005a60       ?_Reserve@?$vector@V?$basic_string@DU?$char_traits@D@std@@V?$allocator@D@2@@std@@V?$allocator@V?$basic_string@DU?$char_traits@D@std@@V?$allocator@D@2@@std@@@2@@std@@IAEXI@Z 00406a60 f i SoixanteCircuits_TestApp.obj
 0001:00005ae0       ?_Buy@?$vector@V?$shared_ptr@V?$function@$$A6AXXZ@tr1@std@@@tr1@std@@V?$allocator@V?$shared_ptr@V?$function@$$A6AXXZ@tr1@std@@@tr1@std@@@3@@std@@IAE_NI@Z 00406ae0 f i SoixanteCircuits_TestApp.obj
 0001:00005b20       ?reserve@?$vector@V?$basic_string@DU?$char_traits@D@std@@V?$allocator@D@2@@std@@V?$allocator@V?$basic_string@DU?$char_traits@D@std@@V?$allocator@D@2@@std@@@2@@std@@QAEXI@Z 00406b20 f i SoixanteCircuits_TestApp.obj
 0001:00005c40       ?_Destroy@?$vector@V?$basic_string@DU?$char_traits@D@std@@V?$allocator@D@2@@std@@V?$allocator@V?$basic_string@DU?$char_traits@D@std@@V?$allocator@D@2@@std@@@2@@std@@IAEXPAV?$basic_string@DU?$char_traits@D@std@@V?$allocator@D@2@@2@0@Z 00406c40 f i SoixanteCircuits_TestApp.obj
 0001:00005c80       ?allocate@?$allocator@U?$pair@UCostData@AutotunedIndex@flann@@UKDTreeIndexParams@3@@std@@@std@@QAEPAU?$pair@UCostData@AutotunedIndex@flann@@UKDTreeIndexParams@3@@2@I@Z 00406c80 f i flann:flann.obj
 0001:00005c80       ?allocate@?$allocator@V?$basic_string@DU?$char_traits@D@std@@V?$allocator@D@2@@std@@@std@@QAEPAV?$basic_string@DU?$char_traits@D@std@@V?$allocator@D@2@@2@I@Z 00406c80 f i SoixanteCircuits_TestApp.obj
 0001:00005ce0       ??$_Reset@UCTwBar@@@?$_Ptr_base@UCTwBar@@@tr1@std@@QAEXABV012@@Z 00406ce0 f i SoixanteCircuits_TestApp.obj
 0001:00005ce0       ??$_Reset@UObj@Capture@cinder@@@?$_Ptr_base@UObj@Capture@cinder@@@tr1@std@@QAEXABV012@@Z 00406ce0 f i SoixanteCircuits_TestApp.obj
 0001:00005d40       ??$_Copy_impl@PAV?$shared_ptr@V?$function@$$A6AXXZ@tr1@std@@@tr1@std@@PAV123@@std@@YAPAV?$shared_ptr@V?$function@$$A6AXXZ@tr1@std@@@tr1@0@PAV120@00U_Nonscalar_ptr_iterator_tag@0@@Z 00406d40 f i SoixanteCircuits_TestApp.obj
 0001:00005e00       ??$_Destroy_range@V?$allocator@V?$basic_string@DU?$char_traits@D@std@@V?$allocator@D@2@@std@@@std@@@std@@YAXPAV?$basic_string@DU?$char_traits@D@std@@V?$allocator@D@2@@0@0AAV?$allocator@V?$basic_string@DU?$char_traits@D@std@@V?$allocator@D@2@@std@@@0@U_Nonscalar_ptr_iterator_tag@0@@Z 00406e00 f i SoixanteCircuits_TestApp.obj
 0001:00005e40       ??$_Move@PAV?$shared_ptr@V?$function@$$A6AXXZ@tr1@std@@@tr1@std@@PAV123@@std@@YAPAV?$shared_ptr@V?$function@$$A6AXXZ@tr1@std@@@tr1@0@PAV120@00U_Nonscalar_ptr_iterator_tag@0@@Z 00406e40 f i SoixanteCircuits_TestApp.obj
 0001:00005ec0       ??0?$shared_ptr@VImageTarget@cinder@@@tr1@std@@QAE@ABV012@@Z 00406ec0 f i HaarHandDetector.obj
 0001:00005ec0       ??0?$shared_ptr@V?$function@$$A6AXXZ@tr1@std@@@tr1@std@@QAE@ABV012@@Z 00406ec0 f i SoixanteCircuits_TestApp.obj
 0001:00005ec0       ??0?$shared_ptr@UObj@Texture@gl@cinder@@@tr1@std@@QAE@ABV012@@Z 00406ec0 f i FireParticle.obj
 0001:00005ec0       ??0?$shared_ptr@UObj@?$SurfaceT@E@cinder@@@tr1@std@@QAE@ABV012@@Z 00406ec0 f i HandDetector.obj
 0001:00005f30       ??$_Uninit_copy@PAV?$shared_ptr@V?$function@$$A6AXXZ@tr1@std@@@tr1@std@@PAV123@V?$allocator@V?$shared_ptr@V?$function@$$A6AXXZ@tr1@std@@@tr1@std@@@3@@std@@YAPAV?$shared_ptr@V?$function@$$A6AXXZ@tr1@std@@@tr1@0@PAV120@00AAV?$allocator@V?$shared_ptr@V?$function@$$A6AXXZ@tr1@std@@@tr1@std@@@0@U_Nonscalar_ptr_iterator_tag@0@@Z 00406f30 f i SoixanteCircuits_TestApp.obj
 0001:00005fd0       ??$_Dest_val@V?$allocator@V?$shared_ptr@V?$function@$$A6AXXZ@tr1@std@@@tr1@std@@@std@@V?$shared_ptr@V?$function@$$A6AXXZ@tr1@std@@@tr1@2@@std@@YAXAAV?$allocator@V?$shared_ptr@V?$function@$$A6AXXZ@tr1@std@@@tr1@std@@@0@PAV?$shared_ptr@V?$function@$$A6AXXZ@tr1@std@@@tr1@0@@Z 00406fd0 f i SoixanteCircuits_TestApp.obj
 0001:00006010       ??$_Uninit_move@PAV?$basic_string@DU?$char_traits@D@std@@V?$allocator@D@2@@std@@PAV12@V?$allocator@V?$basic_string@DU?$char_traits@D@std@@V?$allocator@D@2@@std@@@2@V12@@std@@YAPAV?$basic_string@DU?$char_traits@D@std@@V?$allocator@D@2@@0@PAV10@00AAV?$allocator@V?$basic_string@DU?$char_traits@D@std@@V?$allocator@D@2@@std@@@0@0U_Nonscalar_ptr_iterator_tag@0@@Z 00407010 f i SoixanteCircuits_TestApp.obj
 0001:000060d0       ??$_Dest_val@V?$allocator@V?$basic_string@DU?$char_traits@D@std@@V?$allocator@D@2@@std@@@std@@V?$basic_string@DU?$char_traits@D@std@@V?$allocator@D@2@@2@@std@@YAXAAV?$allocator@V?$basic_string@DU?$char_traits@D@std@@V?$allocator@D@2@@std@@@0@PAV?$basic_string@DU?$char_traits@D@std@@V?$allocator@D@2@@0@@Z 004070d0 f i SoixanteCircuits_TestApp.obj
 0001:00006100       ?doEmit@SparkEmitter@@MAEXH@Z 00407100 f   SparkEmitter.obj
 0001:000062d0       ??0SparkParticle@@QAE@PAVParticleEngine@@@Z 004072d0 f   SparkParticle.obj
 0001:000065e0       ??_ESparkParticle@@UAEPAXI@Z 004075e0 f i  CIL library: CIL module
 0001:000065e0       ??_GSparkParticle@@UAEPAXI@Z 004075e0 f i SparkParticle.obj
 0001:00006680       ?doUpdate@SparkParticle@@MAEXXZ 00407680 f   SparkParticle.obj
 0001:000066e0       ?doDraw@SparkParticle@@MAEXXZ 004076e0 f   SparkParticle.obj
 0001:00006790       ??0StarParticle@@QAE@PAVParticleEngine@@@Z 00407790 f   StarParticle.obj
 0001:00006a60       ??_GStarParticle@@UAEPAXI@Z 00407a60 f i StarParticle.obj
 0001:00006a60       ??_EStarParticle@@UAEPAXI@Z 00407a60 f i  CIL library: CIL module
 0001:00006b00       ?doUpdate@StarParticle@@MAEXXZ 00407b00 f   StarParticle.obj
 0001:00006cd0       ?doDraw@StarParticle@@MAEXXZ 00407cd0 f   StarParticle.obj
 0001:00006d70       ?seed@?$mersenne_twister@I$0CA@$0CHA@$0BIN@$0BP@$0JJAILANP@$0L@$06$0JNCMFGIA@$0P@$0OPMGAAAA@$0BC@$0MHHGGGNO@@random@boost@@QAEXABI@Z 00407d70 f i cinder:Rand.obj
 0001:00006dd0       ?getSeconds@Timer@cinder@@QBENXZ 00407dd0 f   cinder:Timer.obj
 0001:00006e10       ??0Timer@cinder@@QAE@_N@Z  00407e10 f   cinder:Timer.obj
 0001:00006e70       ??Bid@locale@std@@QAEIXZ   00407e70 f i cinder:App.obj
 0001:00006eb0       ?_Incref@facet@locale@std@@QAEXXZ 00407eb0 f i cinder:App.obj
 0001:00006ee0       ?_Decref@facet@locale@std@@QAEPAV123@XZ 00407ee0 f i cinder:App.obj
 0001:00006f20       ??1facet@locale@std@@UAE@XZ 00407f20 f i cinder:App.obj
 0001:00006f20       ??1codecvt_base@std@@UAE@XZ 00407f20 f i libboost_filesystem-vc100-mt-s-1_44:path.obj
 0001:00006f30       ??1locale@std@@QAE@XZ      00407f30 f i cinder:App.obj
 0001:00006f80       ?_Getfacet@locale@std@@QBEPBVfacet@12@I@Z 00407f80 f i cinder:App.obj
 0001:00006fc0       ??_Efacet@locale@std@@UAEPAXI@Z 00407fc0 f i cinder:App.obj
 0001:00006fc0       ??_G?$num_put@DV?$ostreambuf_iterator@DU?$char_traits@D@std@@@std@@@std@@MAEPAXI@Z 00407fc0 f i cinder:TwMgr.obj
 0001:00006fc0       ??_E?$num_put@DV?$ostreambuf_iterator@DU?$char_traits@D@std@@@std@@@std@@MAEPAXI@Z 00407fc0 f i cinder:TwMgr.obj
 0001:00006fc0       ??_Gfacet@locale@std@@UAEPAXI@Z 00407fc0 f i cinder:App.obj
 0001:00006ff0       ?getloc@ios_base@std@@QBE?AVlocale@2@XZ 00407ff0 f i cinder:App.obj
 0001:00007030       ?privateSetup__@App@app@cinder@@UAEXXZ 00408030 f   cinder:App.obj
 0001:00007040       ?privateUpdate__@App@app@cinder@@UAEXXZ 00408040 f   cinder:App.obj
 0001:000070a0       ?privateDraw__@App@app@cinder@@UAEXXZ 004080a0 f   cinder:App.obj
 0001:000070b0       ?privateShutdown__@App@app@cinder@@UAEXXZ 004080b0 f   cinder:App.obj
 0001:000070c0       ?_Destroy@?$_Ref_count@UObj@Capture@cinder@@@tr1@std@@EAEXXZ 004080c0 f i cinder:Capture.obj
 0001:000070c0       ?_Destroy@?$_Ref_count@VRenderer@app@cinder@@@tr1@std@@EAEXXZ 004080c0 f i cinder:App.obj
 0001:000070d0       ??_Efailure@ios_base@std@@UAEPAXI@Z 004080d0 f i cinder:App.obj
 0001:000070d0       ??_Gsystem_error@std@@UAEPAXI@Z 004080d0 f i cinder:App.obj
 0001:000070d0       ??_Gruntime_error@std@@UAEPAXI@Z 004080d0 f i cinder:App.obj
 0001:000070d0       ??_Elogic_error@std@@UAEPAXI@Z 004080d0 f i cinder:Area.obj
 0001:000070d0       ??_GFLANNException@flann@@UAEPAXI@Z 004080d0 f i flann:flann.obj
 0001:000070d0       ??_Esystem_error@std@@UAEPAXI@Z 004080d0 f i cinder:App.obj
 0001:000070d0       ??_EFLANNException@flann@@UAEPAXI@Z 004080d0 f i flann:flann.obj
 0001:000070d0       ??_Gfailure@ios_base@std@@UAEPAXI@Z 004080d0 f i cinder:App.obj
 0001:000070d0       ??_Eruntime_error@std@@UAEPAXI@Z 004080d0 f i cinder:App.obj
 0001:000070d0       ??_GTextureDataExc@gl@cinder@@UAEPAXI@Z 004080d0 f i cinder:Texture.obj
 0001:000070d0       ??_ETextureDataExc@gl@cinder@@UAEPAXI@Z 004080d0 f i cinder:Texture.obj
 0001:000070d0       ??_Glogic_error@std@@UAEPAXI@Z 004080d0 f i cinder:Area.obj
 0001:00007100       ??0?$ctype@D@std@@QAE@ABV_Locinfo@1@I@Z 00408100 f i cinder:App.obj
 0001:00007150       ?do_tolower@?$ctype@D@std@@MBEDD@Z 00408150 f i cinder:App.obj
 0001:00007170       ?do_tolower@?$ctype@D@std@@MBEPBDPADPBD@Z 00408170 f i cinder:App.obj
 0001:000071a0       ?do_toupper@?$ctype@D@std@@MBEDD@Z 004081a0 f i cinder:App.obj
 0001:000071c0       ?do_toupper@?$ctype@D@std@@MBEPBDPADPBD@Z 004081c0 f i cinder:App.obj
 0001:000071f0       ?do_widen@?$ctype@D@std@@MBEDD@Z 004081f0 f i cinder:App.obj
 0001:00007200       ?do_widen@?$ctype@D@std@@MBEPBDPBD0PAD@Z 00408200 f i cinder:App.obj
 0001:00007230       ?do_narrow@?$ctype@D@std@@MBEDDD@Z 00408230 f i cinder:App.obj
 0001:00007240       ?do_narrow@?$ctype@D@std@@MBEPBDPBD0DPAD@Z 00408240 f i cinder:App.obj
 0001:00007270       ??_G?$ctype@D@std@@MAEPAXI@Z 00408270 f i cinder:App.obj
 0001:00007270       ??_E?$ctype@D@std@@MAEPAXI@Z 00408270 f i cinder:App.obj
 0001:000072c0       ??1runtime_error@std@@UAE@XZ 004082c0 f i cinder:App.obj
 0001:000072c0       ??1TextureDataExc@gl@cinder@@UAE@XZ 004082c0 f i cinder:Texture.obj
 0001:000072c0       ??1FLANNException@flann@@UAE@XZ 004082c0 f i flann:flann.obj
 0001:000072c0       ??1failure@ios_base@std@@UAE@XZ 004082c0 f i cinder:App.obj
 0001:000072d0       ?clear@ios_base@std@@QAEXH_N@Z 004082d0 f i cinder:App.obj
 0001:000073b0       ??0runtime_error@std@@QAE@ABV01@@Z 004083b0 f i cinder:App.obj
 0001:000073d0       ??0system_error@std@@QAE@ABV01@@Z 004083d0 f i cinder:App.obj
 0001:00007400       ??0failure@ios_base@std@@QAE@ABV012@@Z 00408400 f i cinder:App.obj
 0001:00007430       ??_EMouseEvent@app@cinder@@UAEPAXI@Z 00408430 f i cinder:App.obj
 0001:00007430       ??_GKeyEvent@app@cinder@@UAEPAXI@Z 00408430 f i cinder:App.obj
 0001:00007430       ??_EResizeEvent@app@cinder@@UAEPAXI@Z 00408430 f i cinder:App.obj
 0001:00007430       ??_EKeyEvent@app@cinder@@UAEPAXI@Z 00408430 f i cinder:App.obj
 0001:00007430       ??_EEvent@app@cinder@@UAEPAXI@Z 00408430 f i  CIL library: CIL module
 0001:00007430       ??_GResizeEvent@app@cinder@@UAEPAXI@Z 00408430 f i cinder:App.obj
 0001:00007430       ??_GMouseEvent@app@cinder@@UAEPAXI@Z 00408430 f i cinder:App.obj
 0001:00007430       ??_GEvent@app@cinder@@UAEPAXI@Z 00408430 f i SoixanteCircuits_TestApp.obj
 0001:00007460       ??1?$_Yarn@D@std@@QAE@XZ   00408460 f i cinder:App.obj
 0001:00007480       ??0_Locinfo@std@@QAE@PBD@Z 00408480 f i cinder:App.obj
 0001:00007530       ??1_Locinfo@std@@QAE@XZ    00408530 f i cinder:App.obj
 0001:000075e0       ?_Getcat@?$ctype@D@std@@SAIPAPBVfacet@locale@2@PBV42@@Z 004085e0 f i cinder:App.obj
 0001:000076c0       ??0ResourceLoadExc@app@cinder@@QAE@HABV?$basic_string@DU?$char_traits@D@std@@V?$allocator@D@2@@std@@@Z 004086c0 f   cinder:App.obj
 0001:00007700       ??1?$function@$$A6A_NVKeyEvent@app@cinder@@@Z@tr1@std@@QAE@XZ 00408700 f i cinder:App.obj
 0001:00007700       ??1?$function@$$A6A_NVResizeEvent@app@cinder@@@Z@tr1@std@@QAE@XZ 00408700 f i cinder:App.obj
 0001:00007700       ??1?$function@$$A6A_NVMouseEvent@app@cinder@@@Z@tr1@std@@QAE@XZ 00408700 f i cinder:App.obj
 0001:00007730       ??$use_facet@V?$ctype@D@std@@@std@@YAABV?$ctype@D@0@ABVlocale@0@@Z 00408730 f i cinder:App.obj
 0001:00007870       ??1?$pair@IV?$function@$$A6A_NVKeyEvent@app@cinder@@@Z@tr1@std@@@std@@QAE@XZ 00408870 f i cinder:App.obj
 0001:00007870       ??1?$pair@IV?$function@$$A6A_NVMouseEvent@app@cinder@@@Z@tr1@std@@@std@@QAE@XZ 00408870 f i cinder:App.obj
 0001:00007870       ??1?$pair@IV?$function@$$A6A_NVResizeEvent@app@cinder@@@Z@tr1@std@@@std@@QAE@XZ 00408870 f i cinder:App.obj
 0001:000078a0       ??$_Resetp@VRenderer@app@cinder@@@?$shared_ptr@VRenderer@app@cinder@@@tr1@std@@AAEXPAVRenderer@app@cinder@@@Z 004088a0 f i cinder:App.obj
 0001:00007940       ?privateMouseDown__@App@app@cinder@@QAEXABVMouseEvent@23@@Z 00408940 f   cinder:App.obj
 0001:00007a80       ?privateMouseUp__@App@app@cinder@@QAEXABVMouseEvent@23@@Z 00408a80 f   cinder:App.obj
 0001:00007bc0       ?privateMouseWheel__@App@app@cinder@@QAEXABVMouseEvent@23@@Z 00408bc0 f   cinder:App.obj
 0001:00007d00       ?privateMouseMove__@App@app@cinder@@QAEXABVMouseEvent@23@@Z 00408d00 f   cinder:App.obj
 0001:00007e40       ?privateMouseDrag__@App@app@cinder@@QAEXABVMouseEvent@23@@Z 00408e40 f   cinder:App.obj
 0001:00007f80       ?privateKeyDown__@App@app@cinder@@QAEXABVKeyEvent@23@@Z 00408f80 f   cinder:App.obj
 0001:000080a0       ?privateKeyUp__@App@app@cinder@@QAEXABVKeyEvent@23@@Z 004090a0 f   cinder:App.obj
 0001:000081c0       ?privateResize__@App@app@cinder@@UAEXABVResizeEvent@23@@Z 004091c0 f   cinder:App.obj
 0001:000082c0       ??0Settings@App@app@cinder@@IAE@XZ 004092c0 f   cinder:App.obj
 0001:00008300       ??_GSettings@AppBasic@app@cinder@@UAEPAXI@Z 00409300 f i cinder:AppBasic.obj
 0001:00008300       ??_GSettings@App@app@cinder@@MAEPAXI@Z 00409300 f i cinder:App.obj
 0001:00008300       ??_ESettings@App@app@cinder@@MAEPAXI@Z 00409300 f i cinder:App.obj
 0001:00008300       ??_ESettings@AppBasic@app@cinder@@UAEPAXI@Z 00409300 f i cinder:AppBasic.obj
 0001:00008350       ?executeLaunch@App@app@cinder@@KAXPAV123@PAVRenderer@23@PBDHQBQAD@Z 00409350 f   cinder:App.obj
 0001:00008410       ??$_Dest_val@V?$allocator@U?$pair@IV?$function@$$A6A_NVResizeEvent@app@cinder@@@Z@tr1@std@@@std@@@std@@U?$pair@IV?$function@$$A6A_NVResizeEvent@app@cinder@@@Z@tr1@std@@@2@@std@@YAXAAV?$allocator@U?$pair@IV?$function@$$A6A_NVResizeEvent@app@cinder@@@Z@tr1@std@@@std@@@0@PAU?$pair@IV?$function@$$A6A_NVResizeEvent@app@cinder@@@Z@tr1@std@@@0@@Z 00409410 f i cinder:App.obj
 0001:00008410       ??$_Dest_val@V?$allocator@U?$pair@IV?$function@$$A6A_NVMouseEvent@app@cinder@@@Z@tr1@std@@@std@@@std@@U?$pair@IV?$function@$$A6A_NVMouseEvent@app@cinder@@@Z@tr1@std@@@2@@std@@YAXAAV?$allocator@U?$pair@IV?$function@$$A6A_NVMouseEvent@app@cinder@@@Z@tr1@std@@@std@@@0@PAU?$pair@IV?$function@$$A6A_NVMouseEvent@app@cinder@@@Z@tr1@std@@@0@@Z 00409410 f i cinder:App.obj
 0001:00008410       ??$_Dest_val@V?$allocator@U?$pair@IV?$function@$$A6A_NVKeyEvent@app@cinder@@@Z@tr1@std@@@std@@@std@@U?$pair@IV?$function@$$A6A_NVKeyEvent@app@cinder@@@Z@tr1@std@@@2@@std@@YAXAAV?$allocator@U?$pair@IV?$function@$$A6A_NVKeyEvent@app@cinder@@@Z@tr1@std@@@std@@@0@PAU?$pair@IV?$function@$$A6A_NVKeyEvent@app@cinder@@@Z@tr1@std@@@0@@Z 00409410 f i cinder:App.obj
 0001:00008440       ?loadResource@App@app@cinder@@SA?AV?$shared_ptr@VDataSourceBuffer@cinder@@@tr1@std@@HABV?$basic_string@DU?$char_traits@D@std@@V?$allocator@D@2@@6@@Z 00409440 f   cinder:App.obj
 0001:000084e0       ??$_Destroy_range@V?$allocator@U?$pair@IV?$function@$$A6A_NVTouchEvent@app@cinder@@@Z@tr1@std@@@std@@@std@@@std@@YAXPAU?$pair@IV?$function@$$A6A_NVTouchEvent@app@cinder@@@Z@tr1@std@@@0@0AAV?$allocator@U?$pair@IV?$function@$$A6A_NVTouchEvent@app@cinder@@@Z@tr1@std@@@std@@@0@U_Nonscalar_ptr_iterator_tag@0@@Z 004094e0 f i cinder:AppBasic.obj
 0001:000084e0       ??$_Destroy_range@V?$allocator@U?$pair@IV?$function@$$A6A_NVFileDropEvent@app@cinder@@@Z@tr1@std@@@std@@@std@@@std@@YAXPAU?$pair@IV?$function@$$A6A_NVFileDropEvent@app@cinder@@@Z@tr1@std@@@0@0AAV?$allocator@U?$pair@IV?$function@$$A6A_NVFileDropEvent@app@cinder@@@Z@tr1@std@@@std@@@0@U_Nonscalar_ptr_iterator_tag@0@@Z 004094e0 f i cinder:App.obj
 0001:000084e0       ??$_Destroy_range@V?$allocator@U?$pair@IV?$function@$$A6A_NVKeyEvent@app@cinder@@@Z@tr1@std@@@std@@@std@@@std@@YAXPAU?$pair@IV?$function@$$A6A_NVKeyEvent@app@cinder@@@Z@tr1@std@@@0@0AAV?$allocator@U?$pair@IV?$function@$$A6A_NVKeyEvent@app@cinder@@@Z@tr1@std@@@std@@@0@U_Nonscalar_ptr_iterator_tag@0@@Z 004094e0 f i cinder:App.obj
 0001:000084e0       ??$_Destroy_range@V?$allocator@U?$pair@IV?$function@$$A6A_NVMouseEvent@app@cinder@@@Z@tr1@std@@@std@@@std@@@std@@YAXPAU?$pair@IV?$function@$$A6A_NVMouseEvent@app@cinder@@@Z@tr1@std@@@0@0AAV?$allocator@U?$pair@IV?$function@$$A6A_NVMouseEvent@app@cinder@@@Z@tr1@std@@@std@@@0@U_Nonscalar_ptr_iterator_tag@0@@Z 004094e0 f i cinder:App.obj
 0001:000084e0       ??$_Destroy_range@V?$allocator@U?$pair@IV?$function@$$A6A_NVResizeEvent@app@cinder@@@Z@tr1@std@@@std@@@std@@@std@@YAXPAU?$pair@IV?$function@$$A6A_NVResizeEvent@app@cinder@@@Z@tr1@std@@@0@0AAV?$allocator@U?$pair@IV?$function@$$A6A_NVResizeEvent@app@cinder@@@Z@tr1@std@@@std@@@0@U_Nonscalar_ptr_iterator_tag@0@@Z 004094e0 f i cinder:App.obj
 0001:00008520       ??$_Uninit_copy@V?$_Vector_const_iterator@V?$_Vector_val@V?$basic_string@DU?$char_traits@D@std@@V?$allocator@D@2@@std@@V?$allocator@V?$basic_string@DU?$char_traits@D@std@@V?$allocator@D@2@@std@@@2@@std@@@std@@PAV?$basic_string@DU?$char_traits@D@std@@V?$allocator@D@2@@2@V?$allocator@V?$basic_string@DU?$char_traits@D@std@@V?$allocator@D@2@@std@@@2@@std@@YAPAV?$basic_string@DU?$char_traits@D@std@@V?$allocator@D@2@@0@V?$_Vector_const_iterator@V?$_Vector_val@V?$basic_string@DU?$char_traits@D@std@@V?$allocator@D@2@@std@@V?$allocator@V?$basic_string@DU?$char_traits@D@std@@V?$allocator@D@2@@std@@@2@@std@@@0@0PAV10@AAV?$allocator@V?$basic_string@DU?$char_traits@D@std@@V?$allocator@D@2@@std@@@0@U_Nonscalar_ptr_iterator_tag@0@@Z 00409520 f i cinder:App.obj
 0001:000085e0       ??0?$vector@V?$basic_string@DU?$char_traits@D@std@@V?$allocator@D@2@@std@@V?$allocator@V?$basic_string@DU?$char_traits@D@std@@V?$allocator@D@2@@std@@@2@@std@@QAE@ABV01@@Z 004095e0 f i cinder:App.obj
 0001:000086c0       ??1App@app@cinder@@UAE@XZ  004096c0 f   cinder:App.obj
 0001:000089c0       ??R?$_Function_impl1@_NVFileDropEvent@app@cinder@@@tr1@std@@QBE_NVFileDropEvent@app@cinder@@@Z 004099c0 f i cinder:App.obj
 0001:00008a80       ??_EFileDropEvent@app@cinder@@UAEPAXI@Z 00409a80 f i cinder:App.obj
 0001:00008a80       ??_GFileDropEvent@app@cinder@@UAEPAXI@Z 00409a80 f i cinder:App.obj
 0001:00008ae0       ??0App@app@cinder@@QAE@XZ  00409ae0 f   cinder:App.obj
 0001:00008be0       ??_GApp@app@cinder@@UAEPAXI@Z 00409be0 f i cinder:App.obj
 0001:00008be0       ??_EApp@app@cinder@@UAEPAXI@Z 00409be0 f i cinder:App.obj
 0001:00008c10       ?privateFileDrop__@App@app@cinder@@QAEXABVFileDropEvent@23@@Z 00409c10 f   cinder:App.obj
 0001:00008d10       ??0ImageIo@cinder@@IAE@XZ  00409d10 f   cinder:ImageIo.obj
 0001:00008d30       ?channelOrderHasAlpha@ImageIo@cinder@@SA_NW4ChannelOrder@12@@Z 00409d30 f   cinder:ImageIo.obj
 0001:00008d50       ?dataTypeBytes@ImageIo@cinder@@SAEW4DataType@12@@Z 00409d50 f   cinder:ImageIo.obj
 0001:00008d80       ?isPremultiplied@ImageSource@cinder@@QBE_NXZ 00409d80 f   cinder:ImageIo.obj
 0001:00008d90       ?_Min@?$_Tree_val@V?$_Tmap_traits@V?$basic_string@DU?$char_traits@D@std@@V?$allocator@D@2@@std@@V?$multimap@HP6A?AV?$shared_ptr@VImageSource@cinder@@@tr1@std@@V?$shared_ptr@VDataSource@cinder@@@23@VOptions@ImageSource@cinder@@@ZU?$less@H@3@V?$allocator@U?$pair@$$CBHP6A?AV?$shared_ptr@VImageSource@cinder@@@tr1@std@@V?$shared_ptr@VDataSource@cinder@@@23@VOptions@ImageSource@cinder@@@Z@std@@@3@@2@U?$less@V?$basic_string@DU?$char_traits@D@std@@V?$allocator@D@2@@std@@@2@V?$allocator@U?$pair@$$CBV?$basic_string@DU?$char_traits@D@std@@V?$allocator@D@2@@std@@V?$multimap@HP6A?AV?$shared_ptr@VImageSource@cinder@@@tr1@std@@V?$shared_ptr@VDataSource@cinder@@@23@VOptions@ImageSource@cinder@@@ZU?$less@H@3@V?$allocator@U?$pair@$$CBHP6A?AV?$shared_ptr@VImageSource@cinder@@@tr1@std@@V?$shared_ptr@VDataSource@cinder@@@23@VOptions@ImageSource@cinder@@@Z@std@@@3@@2@@std@@@2@$0A@@std@@@std@@SAPAU_Node@?$_Tree_nod@V?$_Tmap_traits@V?$basic_string@DU?$char_traits@D@std@@V?$allocator@D@2@@std@@V?$multimap@HP6A?AV?$shared_ptr@VImageSource@cinder@@@tr1@std@@V?$shared_ptr@VDataSource@cinder@@@23@VOptions@ImageSource@cinder@@@ZU?$less@H@3@V?$allocator@U?$pair@$$CBHP6A?AV?$shared_ptr@VImageSource@cinder@@@tr1@std@@V?$shared_ptr@VDataSource@cinder@@@23@VOptions@ImageSource@cinder@@@Z@std@@@3@@2@U?$less@V?$basic_string@DU?$char_traits@D@std@@V?$allocator@D@2@@std@@@2@V?$allocator@U?$pair@$$CBV?$basic_string@DU?$char_traits@D@std@@V?$allocator@D@2@@std@@V?$multimap@HP6A?AV?$shared_ptr@VImageSource@cinder@@@tr1@std@@V?$shared_ptr@VDataSource@cinder@@@23@VOptions@ImageSource@cinder@@@ZU?$less@H@3@V?$allocator@U?$pair@$$CBHP6A?AV?$shared_ptr@VImageSource@cinder@@@tr1@std@@V?$shared_ptr@VDataSource@cinder@@@23@VOptions@ImageSource@cinder@@@Z@std@@@3@@2@@std@@@2@$0A@@std@@@2@PAU342@@Z 00409d90 f i cinder:ImageIo.obj
 0001:00008d90       ?_Min@?$_Tree_val@V?$_Tmap_traits@V?$basic_string@DU?$char_traits@D@std@@V?$allocator@D@2@@std@@V?$multimap@HU?$pair@P6A?AV?$shared_ptr@VImageTarget@cinder@@@tr1@std@@V?$shared_ptr@VDataTarget@cinder@@@23@V?$shared_ptr@VImageSource@cinder@@@23@VOptions@ImageTarget@cinder@@ABV?$basic_string@DU?$char_traits@D@std@@V?$allocator@D@2@@3@@ZV93@@std@@U?$less@H@2@V?$allocator@U?$pair@$$CBHU?$pair@P6A?AV?$shared_ptr@VImageTarget@cinder@@@tr1@std@@V?$shared_ptr@VDataTarget@cinder@@@23@V?$shared_ptr@VImageSource@cinder@@@23@VOptions@ImageTarget@cinder@@ABV?$basic_string@DU?$char_traits@D@std@@V?$allocator@D@2@@3@@ZV93@@std@@@std@@@2@@2@U?$less@V?$basic_string@DU?$char_traits@D@std@@V?$allocator@D@2@@std@@@2@V?$allocator@U?$pair@$$CBV?$basic_string@DU?$char_traits@D@std@@V?$allocator@D@2@@std@@V?$multimap@HU?$pair@P6A?AV?$shared_ptr@VImageTarget@cinder@@@tr1@std@@V?$shared_ptr@VDataTarget@cinder@@@23@V?$shared_ptr@VImageSource@cinder@@@23@VOptions@ImageTarget@cinder@@ABV?$basic_string@DU?$char_traits@D@std@@V?$allocator@D@2@@3@@ZV93@@std@@U?$less@H@2@V?$allocator@U?$pair@$$CBHU?$pair@P6A?AV?$shared_ptr@VImageTarget@cinder@@@tr1@std@@V?$shared_ptr@VDataTarget@cinder@@@23@V?$shared_ptr@VImageSource@cinder@@@23@VOptions@ImageTarget@cinder@@ABV?$basic_string@DU?$char_traits@D@std@@V?$allocator@D@2@@3@@ZV93@@std@@@std@@@2@@2@@std@@@2@$0A@@std@@@std@@SAPAU_Node@?$_Tree_nod@V?$_Tmap_traits@V?$basic_string@DU?$char_traits@D@std@@V?$allocator@D@2@@std@@V?$multimap@HU?$pair@P6A?AV?$shared_ptr@VImageTarget@cinder@@@tr1@std@@V?$shared_ptr@VDataTarget@cinder@@@23@V?$shared_ptr@VImageSource@cinder@@@23@VOptions@ImageTarget@cinder@@ABV?$basic_string@DU?$char_traits@D@std@@V?$allocator@D@2@@3@@ZV93@@std@@U?$less@H@2@V?$allocator@U?$pair@$$CBHU?$pair@P6A?AV?$shared_ptr@VImageTarget@cinder@@@tr1@std@@V?$shared_ptr@VDataTarget@cinder@@@23@V?$shared_ptr@VImageSource@cinder@@@23@VOptions@ImageTarget@cinder@@ABV?$basic_string@DU?$char_traits@D@std@@V?$allocator@D@2@@3@@ZV93@@std@@@std@@@2@@2@U?$less@V?$basic_string@DU?$char_traits@D@std@@V?$allocator@D@2@@std@@@2@V?$allocator@U?$pair@$$CBV?$basic_string@DU?$char_traits@D@std@@V?$allocator@D@2@@std@@V?$multimap@HU?$pair@P6A?AV?$shared_ptr@VImageTarget@cinder@@@tr1@std@@V?$shared_ptr@VDataTarget@cinder@@@23@V?$shared_ptr@VImageSource@cinder@@@23@VOptions@ImageTarget@cinder@@ABV?$basic_string@DU?$char_traits@D@std@@V?$allocator@D@2@@3@@ZV93@@std@@U?$less@H@2@V?$allocator@U?$pair@$$CBHU?$pair@P6A?AV?$shared_ptr@VImageTarget@cinder@@@tr1@std@@V?$shared_ptr@VDataTarget@cinder@@@23@V?$shared_ptr@VImageSource@cinder@@@23@VOptions@ImageTarget@cinder@@ABV?$basic_string@DU?$char_traits@D@std@@V?$allocator@D@2@@3@@ZV93@@std@@@std@@@2@@2@@std@@@2@$0A@@std@@@2@PAU342@@Z 00409d90 f i cinder:ImageIo.obj
 0001:00008db0       ?_Lrotate@?$_Tree@V?$_Tmap_traits@V?$basic_string@DU?$char_traits@D@std@@V?$allocator@D@2@@std@@V?$multimap@HU?$pair@P6A?AV?$shared_ptr@VImageTarget@cinder@@@tr1@std@@V?$shared_ptr@VDataTarget@cinder@@@23@V?$shared_ptr@VImageSource@cinder@@@23@VOptions@ImageTarget@cinder@@ABV?$basic_string@DU?$char_traits@D@std@@V?$allocator@D@2@@3@@ZV93@@std@@U?$less@H@2@V?$allocator@U?$pair@$$CBHU?$pair@P6A?AV?$shared_ptr@VImageTarget@cinder@@@tr1@std@@V?$shared_ptr@VDataTarget@cinder@@@23@V?$shared_ptr@VImageSource@cinder@@@23@VOptions@ImageTarget@cinder@@ABV?$basic_string@DU?$char_traits@D@std@@V?$allocator@D@2@@3@@ZV93@@std@@@std@@@2@@2@U?$less@V?$basic_string@DU?$char_traits@D@std@@V?$allocator@D@2@@std@@@2@V?$allocator@U?$pair@$$CBV?$basic_string@DU?$char_traits@D@std@@V?$allocator@D@2@@std@@V?$multimap@HU?$pair@P6A?AV?$shared_ptr@VImageTarget@cinder@@@tr1@std@@V?$shared_ptr@VDataTarget@cinder@@@23@V?$shared_ptr@VImageSource@cinder@@@23@VOptions@ImageTarget@cinder@@ABV?$basic_string@DU?$char_traits@D@std@@V?$allocator@D@2@@3@@ZV93@@std@@U?$less@H@2@V?$allocator@U?$pair@$$CBHU?$pair@P6A?AV?$shared_ptr@VImageTarget@cinder@@@tr1@std@@V?$shared_ptr@VDataTarget@cinder@@@23@V?$shared_ptr@VImageSource@cinder@@@23@VOptions@ImageTarget@cinder@@ABV?$basic_string@DU?$char_traits@D@std@@V?$allocator@D@2@@3@@ZV93@@std@@@std@@@2@@2@@std@@@2@$0A@@std@@@std@@IAEXPAU_Node@?$_Tree_nod@V?$_Tmap_traits@V?$basic_string@DU?$char_traits@D@std@@V?$allocator@D@2@@std@@V?$multimap@HU?$pair@P6A?AV?$shared_ptr@VImageTarget@cinder@@@tr1@std@@V?$shared_ptr@VDataTarget@cinder@@@23@V?$shared_ptr@VImageSource@cinder@@@23@VOptions@ImageTarget@cinder@@ABV?$basic_string@DU?$char_traits@D@std@@V?$allocator@D@2@@3@@ZV93@@std@@U?$less@H@2@V?$allocator@U?$pair@$$CBHU?$pair@P6A?AV?$shared_ptr@VImageTarget@cinder@@@tr1@std@@V?$shared_ptr@VDataTarget@cinder@@@23@V?$shared_ptr@VImageSource@cinder@@@23@VOptions@ImageTarget@cinder@@ABV?$basic_string@DU?$char_traits@D@std@@V?$allocator@D@2@@3@@ZV93@@std@@@std@@@2@@2@U?$less@V?$basic_string@DU?$char_traits@D@std@@V?$allocator@D@2@@std@@@2@V?$allocator@U?$pair@$$CBV?$basic_string@DU?$char_traits@D@std@@V?$allocator@D@2@@std@@V?$multimap@HU?$pair@P6A?AV?$shared_ptr@VImageTarget@cinder@@@tr1@std@@V?$shared_ptr@VDataTarget@cinder@@@23@V?$shared_ptr@VImageSource@cinder@@@23@VOptions@ImageTarget@cinder@@ABV?$basic_string@DU?$char_traits@D@std@@V?$allocator@D@2@@3@@ZV93@@std@@U?$less@H@2@V?$allocator@U?$pair@$$CBHU?$pair@P6A?AV?$shared_ptr@VImageTarget@cinder@@@tr1@std@@V?$shared_ptr@VDataTarget@cinder@@@23@V?$shared_ptr@VImageSource@cinder@@@23@VOptions@ImageTarget@cinder@@ABV?$basic_string@DU?$char_traits@D@std@@V?$allocator@D@2@@3@@ZV93@@std@@@std@@@2@@2@@std@@@2@$0A@@std@@@2@@Z 00409db0 f i cinder:ImageIo.obj
 0001:00008db0       ?_Lrotate@?$_Tree@V?$_Tmap_traits@V?$basic_string@DU?$char_traits@D@std@@V?$allocator@D@2@@std@@V?$multimap@HP6A?AV?$shared_ptr@VImageSource@cinder@@@tr1@std@@V?$shared_ptr@VDataSource@cinder@@@23@VOptions@ImageSource@cinder@@@ZU?$less@H@3@V?$allocator@U?$pair@$$CBHP6A?AV?$shared_ptr@VImageSource@cinder@@@tr1@std@@V?$shared_ptr@VDataSource@cinder@@@23@VOptions@ImageSource@cinder@@@Z@std@@@3@@2@U?$less@V?$basic_string@DU?$char_traits@D@std@@V?$allocator@D@2@@std@@@2@V?$allocator@U?$pair@$$CBV?$basic_string@DU?$char_traits@D@std@@V?$allocator@D@2@@std@@V?$multimap@HP6A?AV?$shared_ptr@VImageSource@cinder@@@tr1@std@@V?$shared_ptr@VDataSource@cinder@@@23@VOptions@ImageSource@cinder@@@ZU?$less@H@3@V?$allocator@U?$pair@$$CBHP6A?AV?$shared_ptr@VImageSource@cinder@@@tr1@std@@V?$shared_ptr@VDataSource@cinder@@@23@VOptions@ImageSource@cinder@@@Z@std@@@3@@2@@std@@@2@$0A@@std@@@std@@IAEXPAU_Node@?$_Tree_nod@V?$_Tmap_traits@V?$basic_string@DU?$char_traits@D@std@@V?$allocator@D@2@@std@@V?$multimap@HP6A?AV?$shared_ptr@VImageSource@cinder@@@tr1@std@@V?$shared_ptr@VDataSource@cinder@@@23@VOptions@ImageSource@cinder@@@ZU?$less@H@3@V?$allocator@U?$pair@$$CBHP6A?AV?$shared_ptr@VImageSource@cinder@@@tr1@std@@V?$shared_ptr@VDataSource@cinder@@@23@VOptions@ImageSource@cinder@@@Z@std@@@3@@2@U?$less@V?$basic_string@DU?$char_traits@D@std@@V?$allocator@D@2@@std@@@2@V?$allocator@U?$pair@$$CBV?$basic_string@DU?$char_traits@D@std@@V?$allocator@D@2@@std@@V?$multimap@HP6A?AV?$shared_ptr@VImageSource@cinder@@@tr1@std@@V?$shared_ptr@VDataSource@cinder@@@23@VOptions@ImageSource@cinder@@@ZU?$less@H@3@V?$allocator@U?$pair@$$CBHP6A?AV?$shared_ptr@VImageSource@cinder@@@tr1@std@@V?$shared_ptr@VDataSource@cinder@@@23@VOptions@ImageSource@cinder@@@Z@std@@@3@@2@@std@@@2@$0A@@std@@@2@@Z 00409db0 f i cinder:ImageIo.obj
 0001:00008e10       ?_Max@?$_Tree_val@V?$_Tmap_traits@V?$basic_string@DU?$char_traits@D@std@@V?$allocator@D@2@@std@@V?$multimap@HU?$pair@P6A?AV?$shared_ptr@VImageTarget@cinder@@@tr1@std@@V?$shared_ptr@VDataTarget@cinder@@@23@V?$shared_ptr@VImageSource@cinder@@@23@VOptions@ImageTarget@cinder@@ABV?$basic_string@DU?$char_traits@D@std@@V?$allocator@D@2@@3@@ZV93@@std@@U?$less@H@2@V?$allocator@U?$pair@$$CBHU?$pair@P6A?AV?$shared_ptr@VImageTarget@cinder@@@tr1@std@@V?$shared_ptr@VDataTarget@cinder@@@23@V?$shared_ptr@VImageSource@cinder@@@23@VOptions@ImageTarget@cinder@@ABV?$basic_string@DU?$char_traits@D@std@@V?$allocator@D@2@@3@@ZV93@@std@@@std@@@2@@2@U?$less@V?$basic_string@DU?$char_traits@D@std@@V?$allocator@D@2@@std@@@2@V?$allocator@U?$pair@$$CBV?$basic_string@DU?$char_traits@D@std@@V?$allocator@D@2@@std@@V?$multimap@HU?$pair@P6A?AV?$shared_ptr@VImageTarget@cinder@@@tr1@std@@V?$shared_ptr@VDataTarget@cinder@@@23@V?$shared_ptr@VImageSource@cinder@@@23@VOptions@ImageTarget@cinder@@ABV?$basic_string@DU?$char_traits@D@std@@V?$allocator@D@2@@3@@ZV93@@std@@U?$less@H@2@V?$allocator@U?$pair@$$CBHU?$pair@P6A?AV?$shared_ptr@VImageTarget@cinder@@@tr1@std@@V?$shared_ptr@VDataTarget@cinder@@@23@V?$shared_ptr@VImageSource@cinder@@@23@VOptions@ImageTarget@cinder@@ABV?$basic_string@DU?$char_traits@D@std@@V?$allocator@D@2@@3@@ZV93@@std@@@std@@@2@@2@@std@@@2@$0A@@std@@@std@@SAPAU_Node@?$_Tree_nod@V?$_Tmap_traits@V?$basic_string@DU?$char_traits@D@std@@V?$allocator@D@2@@std@@V?$multimap@HU?$pair@P6A?AV?$shared_ptr@VImageTarget@cinder@@@tr1@std@@V?$shared_ptr@VDataTarget@cinder@@@23@V?$shared_ptr@VImageSource@cinder@@@23@VOptions@ImageTarget@cinder@@ABV?$basic_string@DU?$char_traits@D@std@@V?$allocator@D@2@@3@@ZV93@@std@@U?$less@H@2@V?$allocator@U?$pair@$$CBHU?$pair@P6A?AV?$shared_ptr@VImageTarget@cinder@@@tr1@std@@V?$shared_ptr@VDataTarget@cinder@@@23@V?$shared_ptr@VImageSource@cinder@@@23@VOptions@ImageTarget@cinder@@ABV?$basic_string@DU?$char_traits@D@std@@V?$allocator@D@2@@3@@ZV93@@std@@@std@@@2@@2@U?$less@V?$basic_string@DU?$char_traits@D@std@@V?$allocator@D@2@@std@@@2@V?$allocator@U?$pair@$$CBV?$basic_string@DU?$char_traits@D@std@@V?$allocator@D@2@@std@@V?$multimap@HU?$pair@P6A?AV?$shared_ptr@VImageTarget@cinder@@@tr1@std@@V?$shared_ptr@VDataTarget@cinder@@@23@V?$shared_ptr@VImageSource@cinder@@@23@VOptions@ImageTarget@cinder@@ABV?$basic_string@DU?$char_traits@D@std@@V?$allocator@D@2@@3@@ZV93@@std@@U?$less@H@2@V?$allocator@U?$pair@$$CBHU?$pair@P6A?AV?$shared_ptr@VImageTarget@cinder@@@tr1@std@@V?$shared_ptr@VDataTarget@cinder@@@23@V?$shared_ptr@VImageSource@cinder@@@23@VOptions@ImageTarget@cinder@@ABV?$basic_string@DU?$char_traits@D@std@@V?$allocator@D@2@@3@@ZV93@@std@@@std@@@2@@2@@std@@@2@$0A@@std@@@2@PAU342@@Z 00409e10 f i cinder:ImageIo.obj
 0001:00008e10       ?_Max@?$_Tree_val@V?$_Tmap_traits@V?$basic_string@DU?$char_traits@D@std@@V?$allocator@D@2@@std@@V?$multimap@HP6A?AV?$shared_ptr@VImageSource@cinder@@@tr1@std@@V?$shared_ptr@VDataSource@cinder@@@23@VOptions@ImageSource@cinder@@@ZU?$less@H@3@V?$allocator@U?$pair@$$CBHP6A?AV?$shared_ptr@VImageSource@cinder@@@tr1@std@@V?$shared_ptr@VDataSource@cinder@@@23@VOptions@ImageSource@cinder@@@Z@std@@@3@@2@U?$less@V?$basic_string@DU?$char_traits@D@std@@V?$allocator@D@2@@std@@@2@V?$allocator@U?$pair@$$CBV?$basic_string@DU?$char_traits@D@std@@V?$allocator@D@2@@std@@V?$multimap@HP6A?AV?$shared_ptr@VImageSource@cinder@@@tr1@std@@V?$shared_ptr@VDataSource@cinder@@@23@VOptions@ImageSource@cinder@@@ZU?$less@H@3@V?$allocator@U?$pair@$$CBHP6A?AV?$shared_ptr@VImageSource@cinder@@@tr1@std@@V?$shared_ptr@VDataSource@cinder@@@23@VOptions@ImageSource@cinder@@@Z@std@@@3@@2@@std@@@2@$0A@@std@@@std@@SAPAU_Node@?$_Tree_nod@V?$_Tmap_traits@V?$basic_string@DU?$char_traits@D@std@@V?$allocator@D@2@@std@@V?$multimap@HP6A?AV?$shared_ptr@VImageSource@cinder@@@tr1@std@@V?$shared_ptr@VDataSource@cinder@@@23@VOptions@ImageSource@cinder@@@ZU?$less@H@3@V?$allocator@U?$pair@$$CBHP6A?AV?$shared_ptr@VImageSource@cinder@@@tr1@std@@V?$shared_ptr@VDataSource@cinder@@@23@VOptions@ImageSource@cinder@@@Z@std@@@3@@2@U?$less@V?$basic_string@DU?$char_traits@D@std@@V?$allocator@D@2@@std@@@2@V?$allocator@U?$pair@$$CBV?$basic_string@DU?$char_traits@D@std@@V?$allocator@D@2@@std@@V?$multimap@HP6A?AV?$shared_ptr@VImageSource@cinder@@@tr1@std@@V?$shared_ptr@VDataSource@cinder@@@23@VOptions@ImageSource@cinder@@@ZU?$less@H@3@V?$allocator@U?$pair@$$CBHP6A?AV?$shared_ptr@VImageSource@cinder@@@tr1@std@@V?$shared_ptr@VDataSource@cinder@@@23@VOptions@ImageSource@cinder@@@Z@std@@@3@@2@@std@@@2@$0A@@std@@@2@PAU342@@Z 00409e10 f i cinder:ImageIo.obj
 0001:00008e30       ?_Max@?$_Tree_val@V?$_Tmap_traits@HP6A?AV?$shared_ptr@VImageSource@cinder@@@tr1@std@@V?$shared_ptr@VDataSource@cinder@@@23@VOptions@ImageSource@cinder@@@ZU?$less@H@3@V?$allocator@U?$pair@$$CBHP6A?AV?$shared_ptr@VImageSource@cinder@@@tr1@std@@V?$shared_ptr@VDataSource@cinder@@@23@VOptions@ImageSource@cinder@@@Z@std@@@3@$0A@@std@@@std@@SAPAU_Node@?$_Tree_nod@V?$_Tmap_traits@HP6A?AV?$shared_ptr@VImageSource@cinder@@@tr1@std@@V?$shared_ptr@VDataSource@cinder@@@23@VOptions@ImageSource@cinder@@@ZU?$less@H@3@V?$allocator@U?$pair@$$CBHP6A?AV?$shared_ptr@VImageSource@cinder@@@tr1@std@@V?$shared_ptr@VDataSource@cinder@@@23@VOptions@ImageSource@cinder@@@Z@std@@@3@$0A@@std@@@2@PAU342@@Z 00409e30 f i cinder:ImageIo.obj
 0001:00008e30       ?_Max@?$_Tree_val@V?$_Tmap_traits@W4flann_algorithm_t@@P6APAUIndexParams@flann@@XZU?$less@W4flann_algorithm_t@@@std@@V?$allocator@U?$pair@$$CBW4flann_algorithm_t@@P6APAUIndexParams@flann@@XZ@std@@@5@$0A@@std@@@std@@SAPAU_Node@?$_Tree_nod@V?$_Tmap_traits@W4flann_algorithm_t@@P6APAUIndexParams@flann@@XZU?$less@W4flann_algorithm_t@@@std@@V?$allocator@U?$pair@$$CBW4flann_algorithm_t@@P6APAUIndexParams@flann@@XZ@std@@@5@$0A@@std@@@2@PAU342@@Z 00409e30 f i flann:flann.obj
 0001:00008e30       ?_Max@?$_Tree_val@V?$_Tmap_traits@HP6A?AV?$shared_ptr@VImageSource@cinder@@@tr1@std@@V?$shared_ptr@VDataSource@cinder@@@23@VOptions@ImageSource@cinder@@@ZU?$less@H@3@V?$allocator@U?$pair@$$CBHP6A?AV?$shared_ptr@VImageSource@cinder@@@tr1@std@@V?$shared_ptr@VDataSource@cinder@@@23@VOptions@ImageSource@cinder@@@Z@std@@@3@$00@std@@@std@@SAPAU_Node@?$_Tree_nod@V?$_Tmap_traits@HP6A?AV?$shared_ptr@VImageSource@cinder@@@tr1@std@@V?$shared_ptr@VDataSource@cinder@@@23@VOptions@ImageSource@cinder@@@ZU?$less@H@3@V?$allocator@U?$pair@$$CBHP6A?AV?$shared_ptr@VImageSource@cinder@@@tr1@std@@V?$shared_ptr@VDataSource@cinder@@@23@VOptions@ImageSource@cinder@@@Z@std@@@3@$00@std@@@2@PAU342@@Z 00409e30 f i cinder:ImageIo.obj
 0001:00008e30       ?_Max@?$_Tree_val@V?$_Tmap_traits@W4flann_centers_init_t@@P6AXHABV?$Matrix@M@flann@@PAHHPAPAMAAH@ZU?$less@W4flann_centers_init_t@@@std@@V?$allocator@U?$pair@$$CBW4flann_centers_init_t@@P6AXHABV?$Matrix@M@flann@@PAHHPAPAMAAH@Z@std@@@5@$0A@@std@@@std@@SAPAU_Node@?$_Tree_nod@V?$_Tmap_traits@W4flann_centers_init_t@@P6AXHABV?$Matrix@M@flann@@PAHHPAPAMAAH@ZU?$less@W4flann_centers_init_t@@@std@@V?$allocator@U?$pair@$$CBW4flann_centers_init_t@@P6AXHABV?$Matrix@M@flann@@PAHHPAPAMAAH@Z@std@@@5@$0A@@std@@@2@PAU342@@Z 00409e30 f i flann:flann.obj
 0001:00008e50       ?_Rrotate@?$_Tree@V?$_Tmap_traits@V?$basic_string@DU?$char_traits@D@std@@V?$allocator@D@2@@std@@V?$multimap@HU?$pair@P6A?AV?$shared_ptr@VImageTarget@cinder@@@tr1@std@@V?$shared_ptr@VDataTarget@cinder@@@23@V?$shared_ptr@VImageSource@cinder@@@23@VOptions@ImageTarget@cinder@@ABV?$basic_string@DU?$char_traits@D@std@@V?$allocator@D@2@@3@@ZV93@@std@@U?$less@H@2@V?$allocator@U?$pair@$$CBHU?$pair@P6A?AV?$shared_ptr@VImageTarget@cinder@@@tr1@std@@V?$shared_ptr@VDataTarget@cinder@@@23@V?$shared_ptr@VImageSource@cinder@@@23@VOptions@ImageTarget@cinder@@ABV?$basic_string@DU?$char_traits@D@std@@V?$allocator@D@2@@3@@ZV93@@std@@@std@@@2@@2@U?$less@V?$basic_string@DU?$char_traits@D@std@@V?$allocator@D@2@@std@@@2@V?$allocator@U?$pair@$$CBV?$basic_string@DU?$char_traits@D@std@@V?$allocator@D@2@@std@@V?$multimap@HU?$pair@P6A?AV?$shared_ptr@VImageTarget@cinder@@@tr1@std@@V?$shared_ptr@VDataTarget@cinder@@@23@V?$shared_ptr@VImageSource@cinder@@@23@VOptions@ImageTarget@cinder@@ABV?$basic_string@DU?$char_traits@D@std@@V?$allocator@D@2@@3@@ZV93@@std@@U?$less@H@2@V?$allocator@U?$pair@$$CBHU?$pair@P6A?AV?$shared_ptr@VImageTarget@cinder@@@tr1@std@@V?$shared_ptr@VDataTarget@cinder@@@23@V?$shared_ptr@VImageSource@cinder@@@23@VOptions@ImageTarget@cinder@@ABV?$basic_string@DU?$char_traits@D@std@@V?$allocator@D@2@@3@@ZV93@@std@@@std@@@2@@2@@std@@@2@$0A@@std@@@std@@IAEXPAU_Node@?$_Tree_nod@V?$_Tmap_traits@V?$basic_string@DU?$char_traits@D@std@@V?$allocator@D@2@@std@@V?$multimap@HU?$pair@P6A?AV?$shared_ptr@VImageTarget@cinder@@@tr1@std@@V?$shared_ptr@VDataTarget@cinder@@@23@V?$shared_ptr@VImageSource@cinder@@@23@VOptions@ImageTarget@cinder@@ABV?$basic_string@DU?$char_traits@D@std@@V?$allocator@D@2@@3@@ZV93@@std@@U?$less@H@2@V?$allocator@U?$pair@$$CBHU?$pair@P6A?AV?$shared_ptr@VImageTarget@cinder@@@tr1@std@@V?$shared_ptr@VDataTarget@cinder@@@23@V?$shared_ptr@VImageSource@cinder@@@23@VOptions@ImageTarget@cinder@@ABV?$basic_string@DU?$char_traits@D@std@@V?$allocator@D@2@@3@@ZV93@@std@@@std@@@2@@2@U?$less@V?$basic_string@DU?$char_traits@D@std@@V?$allocator@D@2@@std@@@2@V?$allocator@U?$pair@$$CBV?$basic_string@DU?$char_traits@D@std@@V?$allocator@D@2@@std@@V?$multimap@HU?$pair@P6A?AV?$shared_ptr@VImageTarget@cinder@@@tr1@std@@V?$shared_ptr@VDataTarget@cinder@@@23@V?$shared_ptr@VImageSource@cinder@@@23@VOptions@ImageTarget@cinder@@ABV?$basic_string@DU?$char_traits@D@std@@V?$allocator@D@2@@3@@ZV93@@std@@U?$less@H@2@V?$allocator@U?$pair@$$CBHU?$pair@P6A?AV?$shared_ptr@VImageTarget@cinder@@@tr1@std@@V?$shared_ptr@VDataTarget@cinder@@@23@V?$shared_ptr@VImageSource@cinder@@@23@VOptions@ImageTarget@cinder@@ABV?$basic_string@DU?$char_traits@D@std@@V?$allocator@D@2@@3@@ZV93@@std@@@std@@@2@@2@@std@@@2@$0A@@std@@@2@@Z 00409e50 f i cinder:ImageIo.obj
 0001:00008e50       ?_Rrotate@?$_Tree@V?$_Tmap_traits@V?$basic_string@DU?$char_traits@D@std@@V?$allocator@D@2@@std@@V?$multimap@HP6A?AV?$shared_ptr@VImageSource@cinder@@@tr1@std@@V?$shared_ptr@VDataSource@cinder@@@23@VOptions@ImageSource@cinder@@@ZU?$less@H@3@V?$allocator@U?$pair@$$CBHP6A?AV?$shared_ptr@VImageSource@cinder@@@tr1@std@@V?$shared_ptr@VDataSource@cinder@@@23@VOptions@ImageSource@cinder@@@Z@std@@@3@@2@U?$less@V?$basic_string@DU?$char_traits@D@std@@V?$allocator@D@2@@std@@@2@V?$allocator@U?$pair@$$CBV?$basic_string@DU?$char_traits@D@std@@V?$allocator@D@2@@std@@V?$multimap@HP6A?AV?$shared_ptr@VImageSource@cinder@@@tr1@std@@V?$shared_ptr@VDataSource@cinder@@@23@VOptions@ImageSource@cinder@@@ZU?$less@H@3@V?$allocator@U?$pair@$$CBHP6A?AV?$shared_ptr@VImageSource@cinder@@@tr1@std@@V?$shared_ptr@VDataSource@cinder@@@23@VOptions@ImageSource@cinder@@@Z@std@@@3@@2@@std@@@2@$0A@@std@@@std@@IAEXPAU_Node@?$_Tree_nod@V?$_Tmap_traits@V?$basic_string@DU?$char_traits@D@std@@V?$allocator@D@2@@std@@V?$multimap@HP6A?AV?$shared_ptr@VImageSource@cinder@@@tr1@std@@V?$shared_ptr@VDataSource@cinder@@@23@VOptions@ImageSource@cinder@@@ZU?$less@H@3@V?$allocator@U?$pair@$$CBHP6A?AV?$shared_ptr@VImageSource@cinder@@@tr1@std@@V?$shared_ptr@VDataSource@cinder@@@23@VOptions@ImageSource@cinder@@@Z@std@@@3@@2@U?$less@V?$basic_string@DU?$char_traits@D@std@@V?$allocator@D@2@@std@@@2@V?$allocator@U?$pair@$$CBV?$basic_string@DU?$char_traits@D@std@@V?$allocator@D@2@@std@@V?$multimap@HP6A?AV?$shared_ptr@VImageSource@cinder@@@tr1@std@@V?$shared_ptr@VDataSource@cinder@@@23@VOptions@ImageSource@cinder@@@ZU?$less@H@3@V?$allocator@U?$pair@$$CBHP6A?AV?$shared_ptr@VImageSource@cinder@@@tr1@std@@V?$shared_ptr@VDataSource@cinder@@@23@VOptions@ImageSource@cinder@@@Z@std@@@3@@2@@std@@@2@$0A@@std@@@2@@Z 00409e50 f i cinder:ImageIo.obj
 0001:00008eb0       ?_Rrotate@?$_Tree@V?$_Tmap_traits@HU?$pair@P6A?AV?$shared_ptr@VImageTarget@cinder@@@tr1@std@@V?$shared_ptr@VDataTarget@cinder@@@23@V?$shared_ptr@VImageSource@cinder@@@23@VOptions@ImageTarget@cinder@@ABV?$basic_string@DU?$char_traits@D@std@@V?$allocator@D@2@@3@@ZV93@@std@@U?$less@H@2@V?$allocator@U?$pair@$$CBHU?$pair@P6A?AV?$shared_ptr@VImageTarget@cinder@@@tr1@std@@V?$shared_ptr@VDataTarget@cinder@@@23@V?$shared_ptr@VImageSource@cinder@@@23@VOptions@ImageTarget@cinder@@ABV?$basic_string@DU?$char_traits@D@std@@V?$allocator@D@2@@3@@ZV93@@std@@@std@@@2@$00@std@@@std@@IAEXPAU_Node@?$_Tree_nod@V?$_Tmap_traits@HU?$pair@P6A?AV?$shared_ptr@VImageTarget@cinder@@@tr1@std@@V?$shared_ptr@VDataTarget@cinder@@@23@V?$shared_ptr@VImageSource@cinder@@@23@VOptions@ImageTarget@cinder@@ABV?$basic_string@DU?$char_traits@D@std@@V?$allocator@D@2@@3@@ZV93@@std@@U?$less@H@2@V?$allocator@U?$pair@$$CBHU?$pair@P6A?AV?$shared_ptr@VImageTarget@cinder@@@tr1@std@@V?$shared_ptr@VDataTarget@cinder@@@23@V?$shared_ptr@VImageSource@cinder@@@23@VOptions@ImageTarget@cinder@@ABV?$basic_string@DU?$char_traits@D@std@@V?$allocator@D@2@@3@@ZV93@@std@@@std@@@2@$00@std@@@2@@Z 00409eb0 f i cinder:ImageIo.obj
 0001:00008f10       ?_Max@?$_Tree_val@V?$_Tmap_traits@HU?$pair@P6A?AV?$shared_ptr@VImageTarget@cinder@@@tr1@std@@V?$shared_ptr@VDataTarget@cinder@@@23@V?$shared_ptr@VImageSource@cinder@@@23@VOptions@ImageTarget@cinder@@ABV?$basic_string@DU?$char_traits@D@std@@V?$allocator@D@2@@3@@ZV93@@std@@U?$less@H@2@V?$allocator@U?$pair@$$CBHU?$pair@P6A?AV?$shared_ptr@VImageTarget@cinder@@@tr1@std@@V?$shared_ptr@VDataTarget@cinder@@@23@V?$shared_ptr@VImageSource@cinder@@@23@VOptions@ImageTarget@cinder@@ABV?$basic_string@DU?$char_traits@D@std@@V?$allocator@D@2@@3@@ZV93@@std@@@std@@@2@$00@std@@@std@@SAPAU_Node@?$_Tree_nod@V?$_Tmap_traits@HU?$pair@P6A?AV?$shared_ptr@VImageTarget@cinder@@@tr1@std@@V?$shared_ptr@VDataTarget@cinder@@@23@V?$shared_ptr@VImageSource@cinder@@@23@VOptions@ImageTarget@cinder@@ABV?$basic_string@DU?$char_traits@D@std@@V?$allocator@D@2@@3@@ZV93@@std@@U?$less@H@2@V?$allocator@U?$pair@$$CBHU?$pair@P6A?AV?$shared_ptr@VImageTarget@cinder@@@tr1@std@@V?$shared_ptr@VDataTarget@cinder@@@23@V?$shared_ptr@VImageSource@cinder@@@23@VOptions@ImageTarget@cinder@@ABV?$basic_string@DU?$char_traits@D@std@@V?$allocator@D@2@@3@@ZV93@@std@@@std@@@2@$00@std@@@2@PAU342@@Z 00409f10 f i cinder:ImageIo.obj
 0001:00008f30       ?_Min@?$_Tree_val@V?$_Tmap_traits@HU?$pair@P6A?AV?$shared_ptr@VImageTarget@cinder@@@tr1@std@@V?$shared_ptr@VDataTarget@cinder@@@23@V?$shared_ptr@VImageSource@cinder@@@23@VOptions@ImageTarget@cinder@@ABV?$basic_string@DU?$char_traits@D@std@@V?$allocator@D@2@@3@@ZV93@@std@@U?$less@H@2@V?$allocator@U?$pair@$$CBHU?$pair@P6A?AV?$shared_ptr@VImageTarget@cinder@@@tr1@std@@V?$shared_ptr@VDataTarget@cinder@@@23@V?$shared_ptr@VImageSource@cinder@@@23@VOptions@ImageTarget@cinder@@ABV?$basic_string@DU?$char_traits@D@std@@V?$allocator@D@2@@3@@ZV93@@std@@@std@@@2@$00@std@@@std@@SAPAU_Node@?$_Tree_nod@V?$_Tmap_traits@HU?$pair@P6A?AV?$shared_ptr@VImageTarget@cinder@@@tr1@std@@V?$shared_ptr@VDataTarget@cinder@@@23@V?$shared_ptr@VImageSource@cinder@@@23@VOptions@ImageTarget@cinder@@ABV?$basic_string@DU?$char_traits@D@std@@V?$allocator@D@2@@3@@ZV93@@std@@U?$less@H@2@V?$allocator@U?$pair@$$CBHU?$pair@P6A?AV?$shared_ptr@VImageTarget@cinder@@@tr1@std@@V?$shared_ptr@VDataTarget@cinder@@@23@V?$shared_ptr@VImageSource@cinder@@@23@VOptions@ImageTarget@cinder@@ABV?$basic_string@DU?$char_traits@D@std@@V?$allocator@D@2@@3@@ZV93@@std@@@std@@@2@$00@std@@@2@PAU342@@Z 00409f30 f i cinder:ImageIo.obj
 0001:00008f50       ??E?$_Tree_unchecked_const_iterator@V?$_Tree_val@V?$_Tmap_traits@HU?$pair@P6A?AV?$shared_ptr@VImageTarget@cinder@@@tr1@std@@V?$shared_ptr@VDataTarget@cinder@@@23@V?$shared_ptr@VImageSource@cinder@@@23@VOptions@ImageTarget@cinder@@ABV?$basic_string@DU?$char_traits@D@std@@V?$allocator@D@2@@3@@ZV93@@std@@U?$less@H@2@V?$allocator@U?$pair@$$CBHU?$pair@P6A?AV?$shared_ptr@VImageTarget@cinder@@@tr1@std@@V?$shared_ptr@VDataTarget@cinder@@@23@V?$shared_ptr@VImageSource@cinder@@@23@VOptions@ImageTarget@cinder@@ABV?$basic_string@DU?$char_traits@D@std@@V?$allocator@D@2@@3@@ZV93@@std@@@std@@@2@$00@std@@@std@@U_Iterator_base0@2@@std@@QAEAAV01@XZ 00409f50 f i cinder:ImageIo.obj
 0001:00008fa0       ??F?$_Tree_unchecked_const_iterator@V?$_Tree_val@V?$_Tmap_traits@V?$basic_string@DU?$char_traits@D@std@@V?$allocator@D@2@@std@@V?$multimap@HU?$pair@P6A?AV?$shared_ptr@VImageTarget@cinder@@@tr1@std@@V?$shared_ptr@VDataTarget@cinder@@@23@V?$shared_ptr@VImageSource@cinder@@@23@VOptions@ImageTarget@cinder@@ABV?$basic_string@DU?$char_traits@D@std@@V?$allocator@D@2@@3@@ZV93@@std@@U?$less@H@2@V?$allocator@U?$pair@$$CBHU?$pair@P6A?AV?$shared_ptr@VImageTarget@cinder@@@tr1@std@@V?$shared_ptr@VDataTarget@cinder@@@23@V?$shared_ptr@VImageSource@cinder@@@23@VOptions@ImageTarget@cinder@@ABV?$basic_string@DU?$char_traits@D@std@@V?$allocator@D@2@@3@@ZV93@@std@@@std@@@2@@2@U?$less@V?$basic_string@DU?$char_traits@D@std@@V?$allocator@D@2@@std@@@2@V?$allocator@U?$pair@$$CBV?$basic_string@DU?$char_traits@D@std@@V?$allocator@D@2@@std@@V?$multimap@HU?$pair@P6A?AV?$shared_ptr@VImageTarget@cinder@@@tr1@std@@V?$shared_ptr@VDataTarget@cinder@@@23@V?$shared_ptr@VImageSource@cinder@@@23@VOptions@ImageTarget@cinder@@ABV?$basic_string@DU?$char_traits@D@std@@V?$allocator@D@2@@3@@ZV93@@std@@U?$less@H@2@V?$allocator@U?$pair@$$CBHU?$pair@P6A?AV?$shared_ptr@VImageTarget@cinder@@@tr1@std@@V?$shared_ptr@VDataTarget@cinder@@@23@V?$shared_ptr@VImageSource@cinder@@@23@VOptions@ImageTarget@cinder@@ABV?$basic_string@DU?$char_traits@D@std@@V?$allocator@D@2@@3@@ZV93@@std@@@std@@@2@@2@@std@@@2@$0A@@std@@@std@@U_Iterator_base0@2@@std@@QAEAAV01@XZ 00409fa0 f i cinder:ImageIo.obj
 0001:00009000       ?channelOrderNumChannels@ImageIo@cinder@@SACW4ChannelOrder@12@@Z 0040a000 f   cinder:ImageIo.obj
 0001:00009080       ??1?$_Tree_val@V?$_Tmap_traits@V?$basic_string@DU?$char_traits@D@std@@V?$allocator@D@2@@std@@V?$multimap@HP6A?AV?$shared_ptr@VImageSource@cinder@@@tr1@std@@V?$shared_ptr@VDataSource@cinder@@@23@VOptions@ImageSource@cinder@@@ZU?$less@H@3@V?$allocator@U?$pair@$$CBHP6A?AV?$shared_ptr@VImageSource@cinder@@@tr1@std@@V?$shared_ptr@VDataSource@cinder@@@23@VOptions@ImageSource@cinder@@@Z@std@@@3@@2@U?$less@V?$basic_string@DU?$char_traits@D@std@@V?$allocator@D@2@@std@@@2@V?$allocator@U?$pair@$$CBV?$basic_string@DU?$char_traits@D@std@@V?$allocator@D@2@@std@@V?$multimap@HP6A?AV?$shared_ptr@VImageSource@cinder@@@tr1@std@@V?$shared_ptr@VDataSource@cinder@@@23@VOptions@ImageSource@cinder@@@ZU?$less@H@3@V?$allocator@U?$pair@$$CBHP6A?AV?$shared_ptr@VImageSource@cinder@@@tr1@std@@V?$shared_ptr@VDataSource@cinder@@@23@VOptions@ImageSource@cinder@@@Z@std@@@3@@2@@std@@@2@$0A@@std@@@std@@QAE@XZ 0040a080 f i cinder:ImageIo.obj
 0001:00009080       ??1?$_Tree_val@V?$_Tset_traits@W4ETwType@@UStructCompare@@V?$allocator@W4ETwType@@@std@@$0A@@std@@@std@@QAE@XZ 0040a080 f i cinder:TwMgr.obj
 0001:00009080       ??1?$_Tree_val@V?$_Tmap_traits@W4flann_centers_init_t@@P6AXHABV?$Matrix@M@flann@@PAHHPAPAMAAH@ZU?$less@W4flann_centers_init_t@@@std@@V?$allocator@U?$pair@$$CBW4flann_centers_init_t@@P6AXHABV?$Matrix@M@flann@@PAHHPAPAMAAH@Z@std@@@5@$0A@@std@@@std@@QAE@XZ 0040a080 f i flann:flann.obj
 0001:00009080       ??1?$_Tree_val@V?$_Tmap_traits@V?$basic_string@DU?$char_traits@D@std@@V?$allocator@D@2@@std@@PBU_GUID@@U?$less@V?$basic_string@DU?$char_traits@D@std@@V?$allocator@D@2@@std@@@2@V?$allocator@U?$pair@$$CBV?$basic_string@DU?$char_traits@D@std@@V?$allocator@D@2@@std@@PBU_GUID@@@std@@@2@$0A@@std@@@std@@QAE@XZ 0040a080 f i cinder:ImageTargetFileWic.obj
 0001:00009080       ??1?$_Tree_val@V?$_Tmap_traits@HP6A?AV?$shared_ptr@VImageSource@cinder@@@tr1@std@@V?$shared_ptr@VDataSource@cinder@@@23@VOptions@ImageSource@cinder@@@ZU?$less@H@3@V?$allocator@U?$pair@$$CBHP6A?AV?$shared_ptr@VImageSource@cinder@@@tr1@std@@V?$shared_ptr@VDataSource@cinder@@@23@VOptions@ImageSource@cinder@@@Z@std@@@3@$00@std@@@std@@QAE@XZ 0040a080 f i cinder:ImageIo.obj
 0001:00009080       ??1?$_Tree_val@V?$_Tmap_traits@HP6A?AV?$shared_ptr@VImageSource@cinder@@@tr1@std@@V?$shared_ptr@VDataSource@cinder@@@23@VOptions@ImageSource@cinder@@@ZU?$less@H@3@V?$allocator@U?$pair@$$CBHP6A?AV?$shared_ptr@VImageSource@cinder@@@tr1@std@@V?$shared_ptr@VDataSource@cinder@@@23@VOptions@ImageSource@cinder@@@Z@std@@@3@$0A@@std@@@std@@QAE@XZ 0040a080 f i cinder:ImageIo.obj
 0001:00009080       ??1?$_Tree_val@V?$_Tmap_traits@PAUCStructProxy@CTwMgr@@UCCustomRecord@CTwBar@@U?$less@PAUCStructProxy@CTwMgr@@@std@@V?$allocator@U?$pair@QAUCStructProxy@CTwMgr@@UCCustomRecord@CTwBar@@@std@@@6@$0A@@std@@@std@@QAE@XZ 0040a080 f i cinder:TwBar.obj
 0001:00009080       ??1?$_Tree_val@V?$_Tmap_traits@W4flann_algorithm_t@@P6APAUIndexParams@flann@@XZU?$less@W4flann_algorithm_t@@@std@@V?$allocator@U?$pair@$$CBW4flann_algorithm_t@@P6APAUIndexParams@flann@@XZ@std@@@5@$0A@@std@@@std@@QAE@XZ 0040a080 f i flann:flann.obj
 0001:00009080       ??1?$_Tree_val@V?$_Tmap_traits@IV?$basic_string@DU?$char_traits@D@std@@V?$allocator@D@2@@std@@U?$less@I@2@V?$allocator@U?$pair@$$CBIV?$basic_string@DU?$char_traits@D@std@@V?$allocator@D@2@@std@@@std@@@2@$0A@@std@@@std@@QAE@XZ 0040a080 f i cinder:TwMgr.obj
 0001:00009080       ??1?$_Tree_val@V?$_Tmap_traits@V?$basic_string@DU?$char_traits@D@std@@V?$allocator@D@2@@std@@V?$multimap@HU?$pair@P6A?AV?$shared_ptr@VImageTarget@cinder@@@tr1@std@@V?$shared_ptr@VDataTarget@cinder@@@23@V?$shared_ptr@VImageSource@cinder@@@23@VOptions@ImageTarget@cinder@@ABV?$basic_string@DU?$char_traits@D@std@@V?$allocator@D@2@@3@@ZV93@@std@@U?$less@H@2@V?$allocator@U?$pair@$$CBHU?$pair@P6A?AV?$shared_ptr@VImageTarget@cinder@@@tr1@std@@V?$shared_ptr@VDataTarget@cinder@@@23@V?$shared_ptr@VImageSource@cinder@@@23@VOptions@ImageTarget@cinder@@ABV?$basic_string@DU?$char_traits@D@std@@V?$allocator@D@2@@3@@ZV93@@std@@@std@@@2@@2@U?$less@V?$basic_string@DU?$char_traits@D@std@@V?$allocator@D@2@@std@@@2@V?$allocator@U?$pair@$$CBV?$basic_string@DU?$char_traits@D@std@@V?$allocator@D@2@@std@@V?$multimap@HU?$pair@P6A?AV?$shared_ptr@VImageTarget@cinder@@@tr1@std@@V?$shared_ptr@VDataTarget@cinder@@@23@V?$shared_ptr@VImageSource@cinder@@@23@VOptions@ImageTarget@cinder@@ABV?$basic_string@DU?$char_traits@D@std@@V?$allocator@D@2@@3@@ZV93@@std@@U?$less@H@2@V?$allocator@U?$pair@$$CBHU?$pair@P6A?AV?$shared_ptr@VImageTarget@cinder@@@tr1@std@@V?$shared_ptr@VDataTarget@cinder@@@23@V?$shared_ptr@VImageSource@cinder@@@23@VOptions@ImageTarget@cinder@@ABV?$basic_string@DU?$char_traits@D@std@@V?$allocator@D@2@@3@@ZV93@@std@@@std@@@2@@2@@std@@@2@$0A@@std@@@std@@QAE@XZ 0040a080 f i cinder:ImageIo.obj
 0001:00009080       ??1?$_Tree_val@V?$_Tmap_traits@KV?$Vec2@M@cinder@@U?$less@K@std@@V?$allocator@U?$pair@$$CBKV?$Vec2@M@cinder@@@std@@@4@$0A@@std@@@std@@QAE@XZ 0040a080 f i cinder:AppImplMswBasic.obj
 0001:00009080       ??1?$_Tree_val@V?$_Tmap_traits@HU?$pair@P6A?AV?$shared_ptr@VImageTarget@cinder@@@tr1@std@@V?$shared_ptr@VDataTarget@cinder@@@23@V?$shared_ptr@VImageSource@cinder@@@23@VOptions@ImageTarget@cinder@@ABV?$basic_string@DU?$char_traits@D@std@@V?$allocator@D@2@@3@@ZV93@@std@@U?$less@H@2@V?$allocator@U?$pair@$$CBHU?$pair@P6A?AV?$shared_ptr@VImageTarget@cinder@@@tr1@std@@V?$shared_ptr@VDataTarget@cinder@@@23@V?$shared_ptr@VImageSource@cinder@@@23@VOptions@ImageTarget@cinder@@ABV?$basic_string@DU?$char_traits@D@std@@V?$allocator@D@2@@3@@ZV93@@std@@@std@@@2@$00@std@@@std@@QAE@XZ 0040a080 f i cinder:ImageIo.obj
 0001:00009090       ??E?$_Tree_unchecked_const_iterator@V?$_Tree_val@V?$_Tmap_traits@V?$basic_string@DU?$char_traits@D@std@@V?$allocator@D@2@@std@@V?$multimap@HP6A?AV?$shared_ptr@VImageSource@cinder@@@tr1@std@@V?$shared_ptr@VDataSource@cinder@@@23@VOptions@ImageSource@cinder@@@ZU?$less@H@3@V?$allocator@U?$pair@$$CBHP6A?AV?$shared_ptr@VImageSource@cinder@@@tr1@std@@V?$shared_ptr@VDataSource@cinder@@@23@VOptions@ImageSource@cinder@@@Z@std@@@3@@2@U?$less@V?$basic_string@DU?$char_traits@D@std@@V?$allocator@D@2@@std@@@2@V?$allocator@U?$pair@$$CBV?$basic_string@DU?$char_traits@D@std@@V?$allocator@D@2@@std@@V?$multimap@HP6A?AV?$shared_ptr@VImageSource@cinder@@@tr1@std@@V?$shared_ptr@VDataSource@cinder@@@23@VOptions@ImageSource@cinder@@@ZU?$less@H@3@V?$allocator@U?$pair@$$CBHP6A?AV?$shared_ptr@VImageSource@cinder@@@tr1@std@@V?$shared_ptr@VDataSource@cinder@@@23@VOptions@ImageSource@cinder@@@Z@std@@@3@@2@@std@@@2@$0A@@std@@@std@@U_Iterator_base0@2@@std@@QAEAAV01@XZ 0040a090 f i cinder:ImageIo.obj
 0001:00009090       ??E?$_Tree_unchecked_const_iterator@V?$_Tree_val@V?$_Tmap_traits@V?$basic_string@DU?$char_traits@D@std@@V?$allocator@D@2@@std@@V?$multimap@HU?$pair@P6A?AV?$shared_ptr@VImageTarget@cinder@@@tr1@std@@V?$shared_ptr@VDataTarget@cinder@@@23@V?$shared_ptr@VImageSource@cinder@@@23@VOptions@ImageTarget@cinder@@ABV?$basic_string@DU?$char_traits@D@std@@V?$allocator@D@2@@3@@ZV93@@std@@U?$less@H@2@V?$allocator@U?$pair@$$CBHU?$pair@P6A?AV?$shared_ptr@VImageTarget@cinder@@@tr1@std@@V?$shared_ptr@VDataTarget@cinder@@@23@V?$shared_ptr@VImageSource@cinder@@@23@VOptions@ImageTarget@cinder@@ABV?$basic_string@DU?$char_traits@D@std@@V?$allocator@D@2@@3@@ZV93@@std@@@std@@@2@@2@U?$less@V?$basic_string@DU?$char_traits@D@std@@V?$allocator@D@2@@std@@@2@V?$allocator@U?$pair@$$CBV?$basic_string@DU?$char_traits@D@std@@V?$allocator@D@2@@std@@V?$multimap@HU?$pair@P6A?AV?$shared_ptr@VImageTarget@cinder@@@tr1@std@@V?$shared_ptr@VDataTarget@cinder@@@23@V?$shared_ptr@VImageSource@cinder@@@23@VOptions@ImageTarget@cinder@@ABV?$basic_string@DU?$char_traits@D@std@@V?$allocator@D@2@@3@@ZV93@@std@@U?$less@H@2@V?$allocator@U?$pair@$$CBHU?$pair@P6A?AV?$shared_ptr@VImageTarget@cinder@@@tr1@std@@V?$shared_ptr@VDataTarget@cinder@@@23@V?$shared_ptr@VImageSource@cinder@@@23@VOptions@ImageTarget@cinder@@ABV?$basic_string@DU?$char_traits@D@std@@V?$allocator@D@2@@3@@ZV93@@std@@@std@@@2@@2@@std@@@2@$0A@@std@@@std@@U_Iterator_base0@2@@std@@QAEAAV01@XZ 0040a090 f i cinder:ImageIo.obj
 0001:000090e0       ??E?$_Tree_unchecked_const_iterator@V?$_Tree_val@V?$_Tmap_traits@W4flann_algorithm_t@@P6APAUIndexParams@flann@@XZU?$less@W4flann_algorithm_t@@@std@@V?$allocator@U?$pair@$$CBW4flann_algorithm_t@@P6APAUIndexParams@flann@@XZ@std@@@5@$0A@@std@@@std@@U_Iterator_base0@2@@std@@QAEAAV01@XZ 0040a0e0 f i flann:flann.obj
 0001:000090e0       ??E?$_Tree_unchecked_const_iterator@V?$_Tree_val@V?$_Tmap_traits@W4flann_centers_init_t@@P6AXHABV?$Matrix@M@flann@@PAHHPAPAMAAH@ZU?$less@W4flann_centers_init_t@@@std@@V?$allocator@U?$pair@$$CBW4flann_centers_init_t@@P6AXHABV?$Matrix@M@flann@@PAHHPAPAMAAH@Z@std@@@5@$0A@@std@@@std@@U_Iterator_base0@2@@std@@QAEAAV01@XZ 0040a0e0 f i flann:flann.obj
 0001:000090e0       ??E?$_Tree_unchecked_const_iterator@V?$_Tree_val@V?$_Tmap_traits@HP6A?AV?$shared_ptr@VImageSource@cinder@@@tr1@std@@V?$shared_ptr@VDataSource@cinder@@@23@VOptions@ImageSource@cinder@@@ZU?$less@H@3@V?$allocator@U?$pair@$$CBHP6A?AV?$shared_ptr@VImageSource@cinder@@@tr1@std@@V?$shared_ptr@VDataSource@cinder@@@23@VOptions@ImageSource@cinder@@@Z@std@@@3@$00@std@@@std@@U_Iterator_base0@2@@std@@QAEAAV01@XZ 0040a0e0 f i cinder:ImageIo.obj
 0001:000090e0       ??E?$_Tree_unchecked_const_iterator@V?$_Tree_val@V?$_Tmap_traits@HP6A?AV?$shared_ptr@VImageSource@cinder@@@tr1@std@@V?$shared_ptr@VDataSource@cinder@@@23@VOptions@ImageSource@cinder@@@ZU?$less@H@3@V?$allocator@U?$pair@$$CBHP6A?AV?$shared_ptr@VImageSource@cinder@@@tr1@std@@V?$shared_ptr@VDataSource@cinder@@@23@VOptions@ImageSource@cinder@@@Z@std@@@3@$0A@@std@@@std@@U_Iterator_base0@2@@std@@QAEAAV01@XZ 0040a0e0 f i cinder:ImageIo.obj
 0001:00009130       ?_Lrotate@?$_Tree@V?$_Tmap_traits@W4flann_centers_init_t@@P6AXHABV?$Matrix@M@flann@@PAHHPAPAMAAH@ZU?$less@W4flann_centers_init_t@@@std@@V?$allocator@U?$pair@$$CBW4flann_centers_init_t@@P6AXHABV?$Matrix@M@flann@@PAHHPAPAMAAH@Z@std@@@5@$0A@@std@@@std@@IAEXPAU_Node@?$_Tree_nod@V?$_Tmap_traits@W4flann_centers_init_t@@P6AXHABV?$Matrix@M@flann@@PAHHPAPAMAAH@ZU?$less@W4flann_centers_init_t@@@std@@V?$allocator@U?$pair@$$CBW4flann_centers_init_t@@P6AXHABV?$Matrix@M@flann@@PAHHPAPAMAAH@Z@std@@@5@$0A@@std@@@2@@Z 0040a130 f i flann:flann.obj
 0001:00009130       ?_Lrotate@?$_Tree@V?$_Tmap_traits@W4flann_algorithm_t@@P6APAUIndexParams@flann@@XZU?$less@W4flann_algorithm_t@@@std@@V?$allocator@U?$pair@$$CBW4flann_algorithm_t@@P6APAUIndexParams@flann@@XZ@std@@@5@$0A@@std@@@std@@IAEXPAU_Node@?$_Tree_nod@V?$_Tmap_traits@W4flann_algorithm_t@@P6APAUIndexParams@flann@@XZU?$less@W4flann_algorithm_t@@@std@@V?$allocator@U?$pair@$$CBW4flann_algorithm_t@@P6APAUIndexParams@flann@@XZ@std@@@5@$0A@@std@@@2@@Z 0040a130 f i flann:flann.obj
 0001:00009130       ?_Lrotate@?$_Tree@V?$_Tmap_traits@HP6A?AV?$shared_ptr@VImageSource@cinder@@@tr1@std@@V?$shared_ptr@VDataSource@cinder@@@23@VOptions@ImageSource@cinder@@@ZU?$less@H@3@V?$allocator@U?$pair@$$CBHP6A?AV?$shared_ptr@VImageSource@cinder@@@tr1@std@@V?$shared_ptr@VDataSource@cinder@@@23@VOptions@ImageSource@cinder@@@Z@std@@@3@$00@std@@@std@@IAEXPAU_Node@?$_Tree_nod@V?$_Tmap_traits@HP6A?AV?$shared_ptr@VImageSource@cinder@@@tr1@std@@V?$shared_ptr@VDataSource@cinder@@@23@VOptions@ImageSource@cinder@@@ZU?$less@H@3@V?$allocator@U?$pair@$$CBHP6A?AV?$shared_ptr@VImageSource@cinder@@@tr1@std@@V?$shared_ptr@VDataSource@cinder@@@23@VOptions@ImageSource@cinder@@@Z@std@@@3@$00@std@@@2@@Z 0040a130 f i cinder:ImageIo.obj
 0001:00009130       ?_Lrotate@?$_Tree@V?$_Tmap_traits@HP6A?AV?$shared_ptr@VImageSource@cinder@@@tr1@std@@V?$shared_ptr@VDataSource@cinder@@@23@VOptions@ImageSource@cinder@@@ZU?$less@H@3@V?$allocator@U?$pair@$$CBHP6A?AV?$shared_ptr@VImageSource@cinder@@@tr1@std@@V?$shared_ptr@VDataSource@cinder@@@23@VOptions@ImageSource@cinder@@@Z@std@@@3@$0A@@std@@@std@@IAEXPAU_Node@?$_Tree_nod@V?$_Tmap_traits@HP6A?AV?$shared_ptr@VImageSource@cinder@@@tr1@std@@V?$shared_ptr@VDataSource@cinder@@@23@VOptions@ImageSource@cinder@@@ZU?$less@H@3@V?$allocator@U?$pair@$$CBHP6A?AV?$shared_ptr@VImageSource@cinder@@@tr1@std@@V?$shared_ptr@VDataSource@cinder@@@23@VOptions@ImageSource@cinder@@@Z@std@@@3@$0A@@std@@@2@@Z 0040a130 f i cinder:ImageIo.obj
 0001:00009190       ?_Lrotate@?$_Tree@V?$_Tmap_traits@HU?$pair@P6A?AV?$shared_ptr@VImageTarget@cinder@@@tr1@std@@V?$shared_ptr@VDataTarget@cinder@@@23@V?$shared_ptr@VImageSource@cinder@@@23@VOptions@ImageTarget@cinder@@ABV?$basic_string@DU?$char_traits@D@std@@V?$allocator@D@2@@3@@ZV93@@std@@U?$less@H@2@V?$allocator@U?$pair@$$CBHU?$pair@P6A?AV?$shared_ptr@VImageTarget@cinder@@@tr1@std@@V?$shared_ptr@VDataTarget@cinder@@@23@V?$shared_ptr@VImageSource@cinder@@@23@VOptions@ImageTarget@cinder@@ABV?$basic_string@DU?$char_traits@D@std@@V?$allocator@D@2@@3@@ZV93@@std@@@std@@@2@$00@std@@@std@@IAEXPAU_Node@?$_Tree_nod@V?$_Tmap_traits@HU?$pair@P6A?AV?$shared_ptr@VImageTarget@cinder@@@tr1@std@@V?$shared_ptr@VDataTarget@cinder@@@23@V?$shared_ptr@VImageSource@cinder@@@23@VOptions@ImageTarget@cinder@@ABV?$basic_string@DU?$char_traits@D@std@@V?$allocator@D@2@@3@@ZV93@@std@@U?$less@H@2@V?$allocator@U?$pair@$$CBHU?$pair@P6A?AV?$shared_ptr@VImageTarget@cinder@@@tr1@std@@V?$shared_ptr@VDataTarget@cinder@@@23@V?$shared_ptr@VImageSource@cinder@@@23@VOptions@ImageTarget@cinder@@ABV?$basic_string@DU?$char_traits@D@std@@V?$allocator@D@2@@3@@ZV93@@std@@@std@@@2@$00@std@@@2@@Z 0040a190 f i cinder:ImageIo.obj
 0001:000091f0       ?_Reset0@?$_Ptr_base@V?$ImageTargetGLTexture@E@gl@cinder@@@tr1@std@@QAEXPAV?$ImageTargetGLTexture@E@gl@cinder@@PAV_Ref_count_base@23@@Z 0040a1f0 f i cinder:Texture.obj
 0001:000091f0       ?_Reset0@?$_Ptr_base@VDataSource@cinder@@@tr1@std@@QAEXPAVDataSource@cinder@@PAV_Ref_count_base@23@@Z 0040a1f0 f i cinder:ImageIo.obj
 0001:000091f0       ?_Reset0@?$_Ptr_base@V?$map@V?$basic_string@DU?$char_traits@D@std@@V?$allocator@D@2@@std@@PBU_GUID@@U?$less@V?$basic_string@DU?$char_traits@D@std@@V?$allocator@D@2@@std@@@2@V?$allocator@U?$pair@$$CBV?$basic_string@DU?$char_traits@D@std@@V?$allocator@D@2@@std@@PBU_GUID@@@std@@@2@@std@@@tr1@std@@QAEXPAV?$map@V?$basic_string@DU?$char_traits@D@std@@V?$allocator@D@2@@std@@PBU_GUID@@U?$less@V?$basic_string@DU?$char_traits@D@std@@V?$allocator@D@2@@std@@@2@V?$allocator@U?$pair@$$CBV?$basic_string@DU?$char_traits@D@std@@V?$allocator@D@2@@std@@PBU_GUID@@@std@@@2@@3@PAV_Ref_count_base@23@@Z 0040a1f0 f i cinder:ImageTargetFileWic.obj
 0001:000091f0       ?_Reset0@?$_Ptr_base@UCTwBar@@@tr1@std@@QAEXPAUCTwBar@@PAV_Ref_count_base@23@@Z 0040a1f0 f i SoixanteCircuits_TestApp.obj
 0001:000091f0       ?_Reset0@?$_Ptr_base@UIWICBitmapEncoder@@@tr1@std@@QAEXPAUIWICBitmapEncoder@@PAV_Ref_count_base@23@@Z 0040a1f0 f i cinder:ImageTargetFileWic.obj
 0001:000091f0       ?_Reset0@?$_Ptr_base@UObj@?$ChannelT@E@cinder@@@tr1@std@@QAEXPAUObj@?$ChannelT@E@cinder@@PAV_Ref_count_base@23@@Z 0040a1f0 f i cinder:Surface.obj
 0001:000091f0       ?_Reset0@?$_Ptr_base@VDataSourceBuffer@cinder@@@tr1@std@@QAEXPAVDataSourceBuffer@cinder@@PAV_Ref_count_base@23@@Z 0040a1f0 f i cinder:DataSource.obj
 0001:000091f0       ?_Reset0@?$_Ptr_base@VDataTarget@cinder@@@tr1@std@@QAEXPAVDataTarget@cinder@@PAV_Ref_count_base@23@@Z 0040a1f0 f i cinder:ImageIo.obj
 0001:000091f0       ?_Reset0@?$_Ptr_base@UIWICImagingFactory@@@tr1@std@@QAEXPAUIWICImagingFactory@@PAV_Ref_count_base@23@@Z 0040a1f0 f i cinder:ImageSourceFileWic.obj
 0001:000091f0       ?_Reset0@?$_Ptr_base@UObj@?$SurfaceT@E@cinder@@@tr1@std@@QAEXPAUObj@?$SurfaceT@E@cinder@@PAV_Ref_count_base@23@@Z 0040a1f0 f i HandDetector.obj
 0001:000091f0       ?_Reset0@?$_Ptr_base@VDisplay@cinder@@@tr1@std@@QAEXPAVDisplay@cinder@@PAV_Ref_count_base@23@@Z 0040a1f0 f i cinder:Display.obj
 0001:000091f0       ?_Reset0@?$_Ptr_base@V?$ImageTargetGLTexture@G@gl@cinder@@@tr1@std@@QAEXPAV?$ImageTargetGLTexture@G@gl@cinder@@PAV_Ref_count_base@23@@Z 0040a1f0 f i cinder:Texture.obj
 0001:000091f0       ?_Reset0@?$_Ptr_base@VCaptureMgr@cinder@@@tr1@std@@QAEXPAVCaptureMgr@cinder@@PAV_Ref_count_base@23@@Z 0040a1f0 f i cinder:CaptureImplDirectShow.obj
 0001:000091f0       ?_Reset0@?$_Ptr_base@UIWICBitmapFrameDecode@@@tr1@std@@QAEXPAUIWICBitmapFrameDecode@@PAV_Ref_count_base@23@@Z 0040a1f0 f i cinder:ImageSourceFileWic.obj
 0001:000091f0       ?_Reset0@?$_Ptr_base@UInst@ImageIoRegistrar@cinder@@@tr1@std@@QAEXPAUInst@ImageIoRegistrar@cinder@@PAV_Ref_count_base@23@@Z 0040a1f0 f i cinder:ImageIo.obj
 0001:000091f0       ?_Reset0@?$_Ptr_base@V?$ImageTargetGLTexture@M@gl@cinder@@@tr1@std@@QAEXPAV?$ImageTargetGLTexture@M@gl@cinder@@PAV_Ref_count_base@23@@Z 0040a1f0 f i cinder:Texture.obj
 0001:000091f0       ?_Reset0@?$_Ptr_base@UIWICStream@@@tr1@std@@QAEXPAUIWICStream@@PAV_Ref_count_base@23@@Z 0040a1f0 f i cinder:ImageSourceFileWic.obj
 0001:000091f0       ?_Reset0@?$_Ptr_base@UIWICBitmapFrameEncode@@@tr1@std@@QAEXPAUIWICBitmapFrameEncode@@PAV_Ref_count_base@23@@Z 0040a1f0 f i cinder:ImageTargetFileWic.obj
 0001:000091f0       ?_Reset0@?$_Ptr_base@UObj@Capture@cinder@@@tr1@std@@QAEXPAUObj@Capture@cinder@@PAV_Ref_count_base@23@@Z 0040a1f0 f i SoixanteCircuits_TestApp.obj
 0001:000091f0       ?_Reset0@?$_Ptr_base@UIWICBitmapDecoder@@@tr1@std@@QAEXPAUIWICBitmapDecoder@@PAV_Ref_count_base@23@@Z 0040a1f0 f i cinder:ImageSourceFileWic.obj
 0001:000091f0       ?_Reset0@?$_Ptr_base@VDevice@Capture@cinder@@@tr1@std@@QAEXPAVDevice@Capture@cinder@@PAV_Ref_count_base@23@@Z 0040a1f0 f i cinder:Capture.obj
 0001:000091f0       ?_Reset0@?$_Ptr_base@VRenderer@app@cinder@@@tr1@std@@QAEXPAVRenderer@app@cinder@@PAV_Ref_count_base@23@@Z 0040a1f0 f i cinder:App.obj
 0001:000091f0       ?_Reset0@?$_Ptr_base@VOStream@cinder@@@tr1@std@@QAEXPAVOStream@cinder@@PAV_Ref_count_base@23@@Z 0040a1f0 f i cinder:ImageTargetFileWic.obj
 0001:000091f0       ?_Reset0@?$_Ptr_base@VImageSourceFileWic@cinder@@@tr1@std@@QAEXPAVImageSourceFileWic@cinder@@PAV_Ref_count_base@23@@Z 0040a1f0 f i cinder:ImageSourceFileWic.obj
 0001:000091f0       ?_Reset0@?$_Ptr_base@V?$function@$$A6AXXZ@tr1@std@@@tr1@std@@QAEXPAV?$function@$$A6AXXZ@23@PAV_Ref_count_base@23@@Z 0040a1f0 f i SoixanteCircuits_TestApp.obj
 0001:000091f0       ?_Reset0@?$_Ptr_base@UObj@Texture@gl@cinder@@@tr1@std@@QAEXPAUObj@Texture@gl@cinder@@PAV_Ref_count_base@23@@Z 0040a1f0 f i FireParticle.obj
 0001:000091f0       ?_Reset0@?$_Ptr_base@UIWICFormatConverter@@@tr1@std@@QAEXPAUIWICFormatConverter@@PAV_Ref_count_base@23@@Z 0040a1f0 f i cinder:ImageSourceFileWic.obj
 0001:000091f0       ?_Reset0@?$_Ptr_base@VImageTarget@cinder@@@tr1@std@@QAEXPAVImageTarget@cinder@@PAV_Ref_count_base@23@@Z 0040a1f0 f i HaarHandDetector.obj
 0001:000091f0       ?_Reset0@?$_Ptr_base@UtagTOUCHINPUT@@@tr1@std@@QAEXPAUtagTOUCHINPUT@@PAV_Ref_count_base@23@@Z 0040a1f0 f i cinder:AppImplMswBasic.obj
 0001:000091f0       ?_Reset0@?$_Ptr_base@VAntMgr@?A0x041a4b4a@params@cinder@@@tr1@std@@QAEXPAVAntMgr@?A0x041a4b4a@params@cinder@@PAV_Ref_count_base@23@@Z 0040a1f0 f i cinder:Params.obj
 0001:000091f0       ?_Reset0@?$_Ptr_base@E@tr1@std@@QAEXPAEPAV_Ref_count_base@23@@Z 0040a1f0 f i cinder:Texture.obj
 0001:000091f0       ?_Reset0@?$_Ptr_base@VSurfaceCache@cinder@@@tr1@std@@QAEXPAVSurfaceCache@cinder@@PAV_Ref_count_base@23@@Z 0040a1f0 f i cinder:CaptureImplDirectShow.obj
 0001:000091f0       ?_Reset0@?$_Ptr_base@UObj@Buffer@cinder@@@tr1@std@@QAEXPAUObj@Buffer@cinder@@PAV_Ref_count_base@23@@Z 0040a1f0 f i cinder:DataSource.obj
 0001:000091f0       ?_Reset0@?$_Ptr_base@VIStreamMem@cinder@@@tr1@std@@QAEXPAVIStreamMem@cinder@@PAV_Ref_count_base@23@@Z 0040a1f0 f i cinder:Stream.obj
 0001:000091f0       ?_Reset0@?$_Ptr_base@VImageSource@cinder@@@tr1@std@@QAEXPAVImageSource@cinder@@PAV_Ref_count_base@23@@Z 0040a1f0 f i cinder:ImageIo.obj
 0001:000091f0       ?_Reset0@?$_Ptr_base@VComOStream@msw@cinder@@@tr1@std@@QAEXPAVComOStream@msw@cinder@@PAV_Ref_count_base@23@@Z 0040a1f0 f i cinder:ImageTargetFileWic.obj
 0001:00009260       ?translateRgbColorModelToOffsets@ImageIo@cinder@@SAXW4ChannelOrder@12@PAC1111@Z 0040a260 f   cinder:ImageIo.obj
 0001:00009420       ??0ImageIoExceptionIllegalChannelOrder@cinder@@QAE@ABV01@@Z 0040a420 f i cinder:ImageIo.obj
 0001:00009440       ??$_Transform@PADV?$_String_iterator@DU?$char_traits@D@std@@V?$allocator@D@2@@std@@P6AHH@Z@std@@YA?AV?$_String_iterator@DU?$char_traits@D@std@@V?$allocator@D@2@@0@PAD0V10@P6AHH@Z@Z 0040a440 f i cinder:ImageIo.obj
 0001:00009480       ??$rowFuncSourceRgb@EE$0A@$00@ImageSource@cinder@@IAEXV?$shared_ptr@VImageTarget@cinder@@@tr1@std@@HPBX@Z 0040a480 f i cinder:ImageIo.obj
 0001:00009570       ??$rowFuncSourceRgb@EE$0A@$0A@@ImageSource@cinder@@IAEXV?$shared_ptr@VImageTarget@cinder@@@tr1@std@@HPBX@Z 0040a570 f i cinder:ImageIo.obj
 0001:00009650       ??$rowFuncSourceGray@EE$0A@$00@ImageSource@cinder@@IAEXV?$shared_ptr@VImageTarget@cinder@@@tr1@std@@HPBX@Z 0040a650 f i cinder:ImageIo.obj
 0001:00009730       ??$rowFuncSourceGray@EE$0A@$0A@@ImageSource@cinder@@IAEXV?$shared_ptr@VImageTarget@cinder@@@tr1@std@@HPBX@Z 0040a730 f i cinder:ImageIo.obj
 0001:00009800       ??$rowFuncSourceRgb@EE$00$00@ImageSource@cinder@@IAEXV?$shared_ptr@VImageTarget@cinder@@@tr1@std@@HPBX@Z 0040a800 f i cinder:ImageIo.obj
 0001:000098f0       ??$rowFuncSourceRgb@EE$00$0A@@ImageSource@cinder@@IAEXV?$shared_ptr@VImageTarget@cinder@@@tr1@std@@HPBX@Z 0040a8f0 f i cinder:ImageIo.obj
 0001:000099d0       ??$rowFuncSourceGray@EE$00$00@ImageSource@cinder@@IAEXV?$shared_ptr@VImageTarget@cinder@@@tr1@std@@HPBX@Z 0040a9d0 f i cinder:ImageIo.obj
 0001:00009a90       ??$rowFuncSourceGray@EE$00$0A@@ImageSource@cinder@@IAEXV?$shared_ptr@VImageTarget@cinder@@@tr1@std@@HPBX@Z 0040aa90 f i cinder:ImageIo.obj
 0001:00009b40       ??$rowFuncSourceRgb@EG$0A@$00@ImageSource@cinder@@IAEXV?$shared_ptr@VImageTarget@cinder@@@tr1@std@@HPBX@Z 0040ab40 f i cinder:ImageIo.obj
 0001:00009c40       ??$rowFuncSourceRgb@EG$0A@$0A@@ImageSource@cinder@@IAEXV?$shared_ptr@VImageTarget@cinder@@@tr1@std@@HPBX@Z 0040ac40 f i cinder:ImageIo.obj
 0001:00009d30       ??$rowFuncSourceGray@EG$0A@$00@ImageSource@cinder@@IAEXV?$shared_ptr@VImageTarget@cinder@@@tr1@std@@HPBX@Z 0040ad30 f i cinder:ImageIo.obj
 0001:00009e20       ??$rowFuncSourceGray@EG$0A@$0A@@ImageSource@cinder@@IAEXV?$shared_ptr@VImageTarget@cinder@@@tr1@std@@HPBX@Z 0040ae20 f i cinder:ImageIo.obj
 0001:00009ef0       ??$rowFuncSourceRgb@EG$00$00@ImageSource@cinder@@IAEXV?$shared_ptr@VImageTarget@cinder@@@tr1@std@@HPBX@Z 0040aef0 f i cinder:ImageIo.obj
 0001:00009ff0       ??$rowFuncSourceRgb@EG$00$0A@@ImageSource@cinder@@IAEXV?$shared_ptr@VImageTarget@cinder@@@tr1@std@@HPBX@Z 0040aff0 f i cinder:ImageIo.obj
 0001:0000a0e0       ??$rowFuncSourceGray@EG$00$00@ImageSource@cinder@@IAEXV?$shared_ptr@VImageTarget@cinder@@@tr1@std@@HPBX@Z 0040b0e0 f i cinder:ImageIo.obj
 0001:0000a1c0       ??$rowFuncSourceGray@EG$00$0A@@ImageSource@cinder@@IAEXV?$shared_ptr@VImageTarget@cinder@@@tr1@std@@HPBX@Z 0040b1c0 f i cinder:ImageIo.obj
 0001:0000a280       ??$rowFuncSourceRgb@EM$0A@$00@ImageSource@cinder@@IAEXV?$shared_ptr@VImageTarget@cinder@@@tr1@std@@HPBX@Z 0040b280 f i cinder:ImageIo.obj
 0001:0000a5e0       ??$rowFuncSourceRgb@EM$0A@$0A@@ImageSource@cinder@@IAEXV?$shared_ptr@VImageTarget@cinder@@@tr1@std@@HPBX@Z 0040b5e0 f i cinder:ImageIo.obj
 0001:0000a8a0       ??$rowFuncSourceGray@EM$0A@$00@ImageSource@cinder@@IAEXV?$shared_ptr@VImageTarget@cinder@@@tr1@std@@HPBX@Z 0040b8a0 f i cinder:ImageIo.obj
 0001:0000ab10       ??$rowFuncSourceGray@EM$0A@$0A@@ImageSource@cinder@@IAEXV?$shared_ptr@VImageTarget@cinder@@@tr1@std@@HPBX@Z 0040bb10 f i cinder:ImageIo.obj
 0001:0000acf0       ??$rowFuncSourceRgb@EM$00$00@ImageSource@cinder@@IAEXV?$shared_ptr@VImageTarget@cinder@@@tr1@std@@HPBX@Z 0040bcf0 f i cinder:ImageIo.obj
 0001:0000afe0       ??$rowFuncSourceRgb@EM$00$0A@@ImageSource@cinder@@IAEXV?$shared_ptr@VImageTarget@cinder@@@tr1@std@@HPBX@Z 0040bfe0 f i cinder:ImageIo.obj
 0001:0000b240       ??$rowFuncSourceGray@EM$00$00@ImageSource@cinder@@IAEXV?$shared_ptr@VImageTarget@cinder@@@tr1@std@@HPBX@Z 0040c240 f i cinder:ImageIo.obj
 0001:0000b440       ??$rowFuncSourceGray@EM$00$0A@@ImageSource@cinder@@IAEXV?$shared_ptr@VImageTarget@cinder@@@tr1@std@@HPBX@Z 0040c440 f i cinder:ImageIo.obj
 0001:0000b5b0       ??$rowFuncSourceRgb@GE$0A@$00@ImageSource@cinder@@IAEXV?$shared_ptr@VImageTarget@cinder@@@tr1@std@@HPBX@Z 0040c5b0 f i cinder:ImageIo.obj
 0001:0000b6e0       ??$rowFuncSourceRgb@GE$0A@$0A@@ImageSource@cinder@@IAEXV?$shared_ptr@VImageTarget@cinder@@@tr1@std@@HPBX@Z 0040c6e0 f i cinder:ImageIo.obj
 0001:0000b7f0       ??$rowFuncSourceGray@GE$0A@$00@ImageSource@cinder@@IAEXV?$shared_ptr@VImageTarget@cinder@@@tr1@std@@HPBX@Z 0040c7f0 f i cinder:ImageIo.obj
 0001:0000b8f0       ??$rowFuncSourceGray@GE$0A@$0A@@ImageSource@cinder@@IAEXV?$shared_ptr@VImageTarget@cinder@@@tr1@std@@HPBX@Z 0040c8f0 f i cinder:ImageIo.obj
 0001:0000b9d0       ??$rowFuncSourceRgb@GE$00$00@ImageSource@cinder@@IAEXV?$shared_ptr@VImageTarget@cinder@@@tr1@std@@HPBX@Z 0040c9d0 f i cinder:ImageIo.obj
 0001:0000baf0       ??$rowFuncSourceRgb@GE$00$0A@@ImageSource@cinder@@IAEXV?$shared_ptr@VImageTarget@cinder@@@tr1@std@@HPBX@Z 0040caf0 f i cinder:ImageIo.obj
 0001:0000bbf0       ??$rowFuncSourceGray@GE$00$00@ImageSource@cinder@@IAEXV?$shared_ptr@VImageTarget@cinder@@@tr1@std@@HPBX@Z 0040cbf0 f i cinder:ImageIo.obj
 0001:0000bce0       ??$rowFuncSourceGray@GE$00$0A@@ImageSource@cinder@@IAEXV?$shared_ptr@VImageTarget@cinder@@@tr1@std@@HPBX@Z 0040cce0 f i cinder:ImageIo.obj
 0001:0000bdb0       ??$rowFuncSourceRgb@GG$0A@$00@ImageSource@cinder@@IAEXV?$shared_ptr@VImageTarget@cinder@@@tr1@std@@HPBX@Z 0040cdb0 f i cinder:ImageIo.obj
 0001:0000bea0       ??$rowFuncSourceRgb@GG$0A@$0A@@ImageSource@cinder@@IAEXV?$shared_ptr@VImageTarget@cinder@@@tr1@std@@HPBX@Z 0040cea0 f i cinder:ImageIo.obj
 0001:0000bf80       ??$rowFuncSourceGray@GG$0A@$00@ImageSource@cinder@@IAEXV?$shared_ptr@VImageTarget@cinder@@@tr1@std@@HPBX@Z 0040cf80 f i cinder:ImageIo.obj
 0001:0000c060       ??$rowFuncSourceGray@GG$0A@$0A@@ImageSource@cinder@@IAEXV?$shared_ptr@VImageTarget@cinder@@@tr1@std@@HPBX@Z 0040d060 f i cinder:ImageIo.obj
 0001:0000c130       ??$rowFuncSourceRgb@GG$00$00@ImageSource@cinder@@IAEXV?$shared_ptr@VImageTarget@cinder@@@tr1@std@@HPBX@Z 0040d130 f i cinder:ImageIo.obj
 0001:0000c230       ??$rowFuncSourceRgb@GG$00$0A@@ImageSource@cinder@@IAEXV?$shared_ptr@VImageTarget@cinder@@@tr1@std@@HPBX@Z 0040d230 f i cinder:ImageIo.obj
 0001:0000c320       ??$rowFuncSourceGray@GG$00$00@ImageSource@cinder@@IAEXV?$shared_ptr@VImageTarget@cinder@@@tr1@std@@HPBX@Z 0040d320 f i cinder:ImageIo.obj
 0001:0000c3e0       ??$rowFuncSourceGray@GG$00$0A@@ImageSource@cinder@@IAEXV?$shared_ptr@VImageTarget@cinder@@@tr1@std@@HPBX@Z 0040d3e0 f i cinder:ImageIo.obj
 0001:0000c490       ??$rowFuncSourceRgb@GM$0A@$00@ImageSource@cinder@@IAEXV?$shared_ptr@VImageTarget@cinder@@@tr1@std@@HPBX@Z 0040d490 f i cinder:ImageIo.obj
 0001:0000c7f0       ??$rowFuncSourceRgb@GM$0A@$0A@@ImageSource@cinder@@IAEXV?$shared_ptr@VImageTarget@cinder@@@tr1@std@@HPBX@Z 0040d7f0 f i cinder:ImageIo.obj
 0001:0000cab0       ??$rowFuncSourceGray@GM$0A@$00@ImageSource@cinder@@IAEXV?$shared_ptr@VImageTarget@cinder@@@tr1@std@@HPBX@Z 0040dab0 f i cinder:ImageIo.obj
 0001:0000cd30       ??$rowFuncSourceGray@GM$0A@$0A@@ImageSource@cinder@@IAEXV?$shared_ptr@VImageTarget@cinder@@@tr1@std@@HPBX@Z 0040dd30 f i cinder:ImageIo.obj
 0001:0000cf20       ??$rowFuncSourceRgb@GM$00$00@ImageSource@cinder@@IAEXV?$shared_ptr@VImageTarget@cinder@@@tr1@std@@HPBX@Z 0040df20 f i cinder:ImageIo.obj
 0001:0000d230       ??$rowFuncSourceRgb@GM$00$0A@@ImageSource@cinder@@IAEXV?$shared_ptr@VImageTarget@cinder@@@tr1@std@@HPBX@Z 0040e230 f i cinder:ImageIo.obj
 0001:0000d4b0       ??$rowFuncSourceGray@GM$00$00@ImageSource@cinder@@IAEXV?$shared_ptr@VImageTarget@cinder@@@tr1@std@@HPBX@Z 0040e4b0 f i cinder:ImageIo.obj
 0001:0000d6c0       ??$rowFuncSourceGray@GM$00$0A@@ImageSource@cinder@@IAEXV?$shared_ptr@VImageTarget@cinder@@@tr1@std@@HPBX@Z 0040e6c0 f i cinder:ImageIo.obj
 0001:0000d830       ??$rowFuncSourceRgb@ME$0A@$00@ImageSource@cinder@@IAEXV?$shared_ptr@VImageTarget@cinder@@@tr1@std@@HPBX@Z 0040e830 f i cinder:ImageIo.obj
 0001:0000d9a0       ??$rowFuncSourceRgb@ME$0A@$0A@@ImageSource@cinder@@IAEXV?$shared_ptr@VImageTarget@cinder@@@tr1@std@@HPBX@Z 0040e9a0 f i cinder:ImageIo.obj
 0001:0000dae0       ??$rowFuncSourceGray@ME$0A@$00@ImageSource@cinder@@IAEXV?$shared_ptr@VImageTarget@cinder@@@tr1@std@@HPBX@Z 0040eae0 f i cinder:ImageIo.obj
 0001:0000dbf0       ??$rowFuncSourceGray@ME$0A@$0A@@ImageSource@cinder@@IAEXV?$shared_ptr@VImageTarget@cinder@@@tr1@std@@HPBX@Z 0040ebf0 f i cinder:ImageIo.obj
 0001:0000dce0       ??$rowFuncSourceRgb@ME$00$00@ImageSource@cinder@@IAEXV?$shared_ptr@VImageTarget@cinder@@@tr1@std@@HPBX@Z 0040ece0 f i cinder:ImageIo.obj
 0001:0000de30       ??$rowFuncSourceRgb@ME$00$0A@@ImageSource@cinder@@IAEXV?$shared_ptr@VImageTarget@cinder@@@tr1@std@@HPBX@Z 0040ee30 f i cinder:ImageIo.obj
 0001:0000df40       ??$rowFuncSourceGray@ME$00$00@ImageSource@cinder@@IAEXV?$shared_ptr@VImageTarget@cinder@@@tr1@std@@HPBX@Z 0040ef40 f i cinder:ImageIo.obj
 0001:0000e040       ??$rowFuncSourceGray@ME$00$0A@@ImageSource@cinder@@IAEXV?$shared_ptr@VImageTarget@cinder@@@tr1@std@@HPBX@Z 0040f040 f i cinder:ImageIo.obj
 0001:0000e120       ??$rowFuncSourceRgb@MG$0A@$00@ImageSource@cinder@@IAEXV?$shared_ptr@VImageTarget@cinder@@@tr1@std@@HPBX@Z 0040f120 f i cinder:ImageIo.obj
 0001:0000e290       ??$rowFuncSourceRgb@MG$0A@$0A@@ImageSource@cinder@@IAEXV?$shared_ptr@VImageTarget@cinder@@@tr1@std@@HPBX@Z 0040f290 f i cinder:ImageIo.obj
 0001:0000e3d0       ??$rowFuncSourceGray@MG$0A@$00@ImageSource@cinder@@IAEXV?$shared_ptr@VImageTarget@cinder@@@tr1@std@@HPBX@Z 0040f3d0 f i cinder:ImageIo.obj
 0001:0000e4f0       ??$rowFuncSourceGray@MG$0A@$0A@@ImageSource@cinder@@IAEXV?$shared_ptr@VImageTarget@cinder@@@tr1@std@@HPBX@Z 0040f4f0 f i cinder:ImageIo.obj
 0001:0000e5e0       ??$rowFuncSourceRgb@MG$00$00@ImageSource@cinder@@IAEXV?$shared_ptr@VImageTarget@cinder@@@tr1@std@@HPBX@Z 0040f5e0 f i cinder:ImageIo.obj
 0001:0000e730       ??$rowFuncSourceRgb@MG$00$0A@@ImageSource@cinder@@IAEXV?$shared_ptr@VImageTarget@cinder@@@tr1@std@@HPBX@Z 0040f730 f i cinder:ImageIo.obj
 0001:0000e850       ??$rowFuncSourceGray@MG$00$00@ImageSource@cinder@@IAEXV?$shared_ptr@VImageTarget@cinder@@@tr1@std@@HPBX@Z 0040f850 f i cinder:ImageIo.obj
 0001:0000e960       ??$rowFuncSourceGray@MG$00$0A@@ImageSource@cinder@@IAEXV?$shared_ptr@VImageTarget@cinder@@@tr1@std@@HPBX@Z 0040f960 f i cinder:ImageIo.obj
 0001:0000ea40       ??$rowFuncSourceRgb@MM$0A@$00@ImageSource@cinder@@IAEXV?$shared_ptr@VImageTarget@cinder@@@tr1@std@@HPBX@Z 0040fa40 f i cinder:ImageIo.obj
 0001:0000eca0       ??$rowFuncSourceRgb@MM$0A@$0A@@ImageSource@cinder@@IAEXV?$shared_ptr@VImageTarget@cinder@@@tr1@std@@HPBX@Z 0040fca0 f i cinder:ImageIo.obj
 0001:0000eea0       ??$rowFuncSourceGray@MM$0A@$00@ImageSource@cinder@@IAEXV?$shared_ptr@VImageTarget@cinder@@@tr1@std@@HPBX@Z 0040fea0 f i cinder:ImageIo.obj
 0001:0000f0b0       ??$rowFuncSourceGray@MM$0A@$0A@@ImageSource@cinder@@IAEXV?$shared_ptr@VImageTarget@cinder@@@tr1@std@@HPBX@Z 004100b0 f i cinder:ImageIo.obj
 0001:0000f260       ??$rowFuncSourceRgb@MM$00$00@ImageSource@cinder@@IAEXV?$shared_ptr@VImageTarget@cinder@@@tr1@std@@HPBX@Z 00410260 f i cinder:ImageIo.obj
 0001:0000f4b0       ??$rowFuncSourceRgb@MM$00$0A@@ImageSource@cinder@@IAEXV?$shared_ptr@VImageTarget@cinder@@@tr1@std@@HPBX@Z 004104b0 f i cinder:ImageIo.obj
 0001:0000f6b0       ??$rowFuncSourceGray@MM$00$00@ImageSource@cinder@@IAEXV?$shared_ptr@VImageTarget@cinder@@@tr1@std@@HPBX@Z 004106b0 f i cinder:ImageIo.obj
 0001:0000f870       ??$rowFuncSourceGray@MM$00$0A@@ImageSource@cinder@@IAEXV?$shared_ptr@VImageTarget@cinder@@@tr1@std@@HPBX@Z 00410870 f i cinder:ImageIo.obj
 0001:0000f9d0       ?setupRowFuncRgbSource@ImageSource@cinder@@IAEXV?$shared_ptr@VImageTarget@cinder@@@tr1@std@@@Z 004109d0 f   cinder:ImageIo.obj
 0001:0000fae0       ?setupRowFuncGraySource@ImageSource@cinder@@IAEXV?$shared_ptr@VImageTarget@cinder@@@tr1@std@@@Z 00410ae0 f   cinder:ImageIo.obj
 0001:0000fc00       ?_Lbound@?$_Tree@V?$_Tmap_traits@V?$basic_string@DU?$char_traits@D@std@@V?$allocator@D@2@@std@@V?$multimap@HP6A?AV?$shared_ptr@VImageSource@cinder@@@tr1@std@@V?$shared_ptr@VDataSource@cinder@@@23@VOptions@ImageSource@cinder@@@ZU?$less@H@3@V?$allocator@U?$pair@$$CBHP6A?AV?$shared_ptr@VImageSource@cinder@@@tr1@std@@V?$shared_ptr@VDataSource@cinder@@@23@VOptions@ImageSource@cinder@@@Z@std@@@3@@2@U?$less@V?$basic_string@DU?$char_traits@D@std@@V?$allocator@D@2@@std@@@2@V?$allocator@U?$pair@$$CBV?$basic_string@DU?$char_traits@D@std@@V?$allocator@D@2@@std@@V?$multimap@HP6A?AV?$shared_ptr@VImageSource@cinder@@@tr1@std@@V?$shared_ptr@VDataSource@cinder@@@23@VOptions@ImageSource@cinder@@@ZU?$less@H@3@V?$allocator@U?$pair@$$CBHP6A?AV?$shared_ptr@VImageSource@cinder@@@tr1@std@@V?$shared_ptr@VDataSource@cinder@@@23@VOptions@ImageSource@cinder@@@Z@std@@@3@@2@@std@@@2@$0A@@std@@@std@@IAEPAU_Node@?$_Tree_nod@V?$_Tmap_traits@V?$basic_string@DU?$char_traits@D@std@@V?$allocator@D@2@@std@@V?$multimap@HP6A?AV?$shared_ptr@VImageSource@cinder@@@tr1@std@@V?$shared_ptr@VDataSource@cinder@@@23@VOptions@ImageSource@cinder@@@ZU?$less@H@3@V?$allocator@U?$pair@$$CBHP6A?AV?$shared_ptr@VImageSource@cinder@@@tr1@std@@V?$shared_ptr@VDataSource@cinder@@@23@VOptions@ImageSource@cinder@@@Z@std@@@3@@2@U?$less@V?$basic_string@DU?$char_traits@D@std@@V?$allocator@D@2@@std@@@2@V?$allocator@U?$pair@$$CBV?$basic_string@DU?$char_traits@D@std@@V?$allocator@D@2@@std@@V?$multimap@HP6A?AV?$shared_ptr@VImageSource@cinder@@@tr1@std@@V?$shared_ptr@VDataSource@cinder@@@23@VOptions@ImageSource@cinder@@@ZU?$less@H@3@V?$allocator@U?$pair@$$CBHP6A?AV?$shared_ptr@VImageSource@cinder@@@tr1@std@@V?$shared_ptr@VDataSource@cinder@@@23@VOptions@ImageSource@cinder@@@Z@std@@@3@@2@@std@@@2@$0A@@std@@@2@ABV?$basic_string@DU?$char_traits@D@std@@V?$allocator@D@2@@2@@Z 00410c00 f i cinder:ImageIo.obj
 0001:0000fc00       ?_Lbound@?$_Tree@V?$_Tmap_traits@V?$basic_string@DU?$char_traits@D@std@@V?$allocator@D@2@@std@@V?$multimap@HU?$pair@P6A?AV?$shared_ptr@VImageTarget@cinder@@@tr1@std@@V?$shared_ptr@VDataTarget@cinder@@@23@V?$shared_ptr@VImageSource@cinder@@@23@VOptions@ImageTarget@cinder@@ABV?$basic_string@DU?$char_traits@D@std@@V?$allocator@D@2@@3@@ZV93@@std@@U?$less@H@2@V?$allocator@U?$pair@$$CBHU?$pair@P6A?AV?$shared_ptr@VImageTarget@cinder@@@tr1@std@@V?$shared_ptr@VDataTarget@cinder@@@23@V?$shared_ptr@VImageSource@cinder@@@23@VOptions@ImageTarget@cinder@@ABV?$basic_string@DU?$char_traits@D@std@@V?$allocator@D@2@@3@@ZV93@@std@@@std@@@2@@2@U?$less@V?$basic_string@DU?$char_traits@D@std@@V?$allocator@D@2@@std@@@2@V?$allocator@U?$pair@$$CBV?$basic_string@DU?$char_traits@D@std@@V?$allocator@D@2@@std@@V?$multimap@HU?$pair@P6A?AV?$shared_ptr@VImageTarget@cinder@@@tr1@std@@V?$shared_ptr@VDataTarget@cinder@@@23@V?$shared_ptr@VImageSource@cinder@@@23@VOptions@ImageTarget@cinder@@ABV?$basic_string@DU?$char_traits@D@std@@V?$allocator@D@2@@3@@ZV93@@std@@U?$less@H@2@V?$allocator@U?$pair@$$CBHU?$pair@P6A?AV?$shared_ptr@VImageTarget@cinder@@@tr1@std@@V?$shared_ptr@VDataTarget@cinder@@@23@V?$shared_ptr@VImageSource@cinder@@@23@VOptions@ImageTarget@cinder@@ABV?$basic_string@DU?$char_traits@D@std@@V?$allocator@D@2@@3@@ZV93@@std@@@std@@@2@@2@@std@@@2@$0A@@std@@@std@@IAEPAU_Node@?$_Tree_nod@V?$_Tmap_traits@V?$basic_string@DU?$char_traits@D@std@@V?$allocator@D@2@@std@@V?$multimap@HU?$pair@P6A?AV?$shared_ptr@VImageTarget@cinder@@@tr1@std@@V?$shared_ptr@VDataTarget@cinder@@@23@V?$shared_ptr@VImageSource@cinder@@@23@VOptions@ImageTarget@cinder@@ABV?$basic_string@DU?$char_traits@D@std@@V?$allocator@D@2@@3@@ZV93@@std@@U?$less@H@2@V?$allocator@U?$pair@$$CBHU?$pair@P6A?AV?$shared_ptr@VImageTarget@cinder@@@tr1@std@@V?$shared_ptr@VDataTarget@cinder@@@23@V?$shared_ptr@VImageSource@cinder@@@23@VOptions@ImageTarget@cinder@@ABV?$basic_string@DU?$char_traits@D@std@@V?$allocator@D@2@@3@@ZV93@@std@@@std@@@2@@2@U?$less@V?$basic_string@DU?$char_traits@D@std@@V?$allocator@D@2@@std@@@2@V?$allocator@U?$pair@$$CBV?$basic_string@DU?$char_traits@D@std@@V?$allocator@D@2@@std@@V?$multimap@HU?$pair@P6A?AV?$shared_ptr@VImageTarget@cinder@@@tr1@std@@V?$shared_ptr@VDataTarget@cinder@@@23@V?$shared_ptr@VImageSource@cinder@@@23@VOptions@ImageTarget@cinder@@ABV?$basic_string@DU?$char_traits@D@std@@V?$allocator@D@2@@3@@ZV93@@std@@U?$less@H@2@V?$allocator@U?$pair@$$CBHU?$pair@P6A?AV?$shared_ptr@VImageTarget@cinder@@@tr1@std@@V?$shared_ptr@VDataTarget@cinder@@@23@V?$shared_ptr@VImageSource@cinder@@@23@VOptions@ImageTarget@cinder@@ABV?$basic_string@DU?$char_traits@D@std@@V?$allocator@D@2@@3@@ZV93@@std@@@std@@@2@@2@@std@@@2@$0A@@std@@@2@ABV?$basic_string@DU?$char_traits@D@std@@V?$allocator@D@2@@2@@Z 00410c00 f i cinder:ImageIo.obj
 0001:0000fc90       ?erase@?$_Tree@V?$_Tmap_traits@HP6A?AV?$shared_ptr@VImageSource@cinder@@@tr1@std@@V?$shared_ptr@VDataSource@cinder@@@23@VOptions@ImageSource@cinder@@@ZU?$less@H@3@V?$allocator@U?$pair@$$CBHP6A?AV?$shared_ptr@VImageSource@cinder@@@tr1@std@@V?$shared_ptr@VDataSource@cinder@@@23@VOptions@ImageSource@cinder@@@Z@std@@@3@$0A@@std@@@std@@QAE?AV?$_Tree_iterator@V?$_Tree_val@V?$_Tmap_traits@HP6A?AV?$shared_ptr@VImageSource@cinder@@@tr1@std@@V?$shared_ptr@VDataSource@cinder@@@23@VOptions@ImageSource@cinder@@@ZU?$less@H@3@V?$allocator@U?$pair@$$CBHP6A?AV?$shared_ptr@VImageSource@cinder@@@tr1@std@@V?$shared_ptr@VDataSource@cinder@@@23@VOptions@ImageSource@cinder@@@Z@std@@@3@$0A@@std@@@std@@@2@V?$_Tree_const_iterator@V?$_Tree_val@V?$_Tmap_traits@HP6A?AV?$shared_ptr@VImageSource@cinder@@@tr1@std@@V?$shared_ptr@VDataSource@cinder@@@23@VOptions@ImageSource@cinder@@@ZU?$less@H@3@V?$allocator@U?$pair@$$CBHP6A?AV?$shared_ptr@VImageSource@cinder@@@tr1@std@@V?$shared_ptr@VDataSource@cinder@@@23@VOptions@ImageSource@cinder@@@Z@std@@@3@$0A@@std@@@std@@@2@@Z 00410c90 f i cinder:ImageIo.obj
 0001:0000fc90       ?erase@?$_Tree@V?$_Tmap_traits@W4flann_centers_init_t@@P6AXHABV?$Matrix@M@flann@@PAHHPAPAMAAH@ZU?$less@W4flann_centers_init_t@@@std@@V?$allocator@U?$pair@$$CBW4flann_centers_init_t@@P6AXHABV?$Matrix@M@flann@@PAHHPAPAMAAH@Z@std@@@5@$0A@@std@@@std@@QAE?AV?$_Tree_iterator@V?$_Tree_val@V?$_Tmap_traits@W4flann_centers_init_t@@P6AXHABV?$Matrix@M@flann@@PAHHPAPAMAAH@ZU?$less@W4flann_centers_init_t@@@std@@V?$allocator@U?$pair@$$CBW4flann_centers_init_t@@P6AXHABV?$Matrix@M@flann@@PAHHPAPAMAAH@Z@std@@@5@$0A@@std@@@std@@@2@V?$_Tree_const_iterator@V?$_Tree_val@V?$_Tmap_traits@W4flann_centers_init_t@@P6AXHABV?$Matrix@M@flann@@PAHHPAPAMAAH@ZU?$less@W4flann_centers_init_t@@@std@@V?$allocator@U?$pair@$$CBW4flann_centers_init_t@@P6AXHABV?$Matrix@M@flann@@PAHHPAPAMAAH@Z@std@@@5@$0A@@std@@@std@@@2@@Z 00410c90 f i flann:flann.obj
 0001:0000fc90       ?erase@?$_Tree@V?$_Tmap_traits@W4flann_algorithm_t@@P6APAUIndexParams@flann@@XZU?$less@W4flann_algorithm_t@@@std@@V?$allocator@U?$pair@$$CBW4flann_algorithm_t@@P6APAUIndexParams@flann@@XZ@std@@@5@$0A@@std@@@std@@QAE?AV?$_Tree_iterator@V?$_Tree_val@V?$_Tmap_traits@W4flann_algorithm_t@@P6APAUIndexParams@flann@@XZU?$less@W4flann_algorithm_t@@@std@@V?$allocator@U?$pair@$$CBW4flann_algorithm_t@@P6APAUIndexParams@flann@@XZ@std@@@5@$0A@@std@@@std@@@2@V?$_Tree_const_iterator@V?$_Tree_val@V?$_Tmap_traits@W4flann_algorithm_t@@P6APAUIndexParams@flann@@XZU?$less@W4flann_algorithm_t@@@std@@V?$allocator@U?$pair@$$CBW4flann_algorithm_t@@P6APAUIndexParams@flann@@XZ@std@@@5@$0A@@std@@@std@@@2@@Z 00410c90 f i flann:flann.obj
 0001:0000fc90       ?erase@?$_Tree@V?$_Tmap_traits@HP6A?AV?$shared_ptr@VImageSource@cinder@@@tr1@std@@V?$shared_ptr@VDataSource@cinder@@@23@VOptions@ImageSource@cinder@@@ZU?$less@H@3@V?$allocator@U?$pair@$$CBHP6A?AV?$shared_ptr@VImageSource@cinder@@@tr1@std@@V?$shared_ptr@VDataSource@cinder@@@23@VOptions@ImageSource@cinder@@@Z@std@@@3@$00@std@@@std@@QAE?AV?$_Tree_iterator@V?$_Tree_val@V?$_Tmap_traits@HP6A?AV?$shared_ptr@VImageSource@cinder@@@tr1@std@@V?$shared_ptr@VDataSource@cinder@@@23@VOptions@ImageSource@cinder@@@ZU?$less@H@3@V?$allocator@U?$pair@$$CBHP6A?AV?$shared_ptr@VImageSource@cinder@@@tr1@std@@V?$shared_ptr@VDataSource@cinder@@@23@VOptions@ImageSource@cinder@@@Z@std@@@3@$00@std@@@std@@@2@V?$_Tree_const_iterator@V?$_Tree_val@V?$_Tmap_traits@HP6A?AV?$shared_ptr@VImageSource@cinder@@@tr1@std@@V?$shared_ptr@VDataSource@cinder@@@23@VOptions@ImageSource@cinder@@@ZU?$less@H@3@V?$allocator@U?$pair@$$CBHP6A?AV?$shared_ptr@VImageSource@cinder@@@tr1@std@@V?$shared_ptr@VDataSource@cinder@@@23@VOptions@ImageSource@cinder@@@Z@std@@@3@$00@std@@@std@@@2@@Z 00410c90 f i cinder:ImageIo.obj
 0001:0000fee0       ?_Erase@?$_Tree@V?$_Tmap_traits@W4flann_algorithm_t@@P6APAUIndexParams@flann@@XZU?$less@W4flann_algorithm_t@@@std@@V?$allocator@U?$pair@$$CBW4flann_algorithm_t@@P6APAUIndexParams@flann@@XZ@std@@@5@$0A@@std@@@std@@IAEXPAU_Node@?$_Tree_nod@V?$_Tmap_traits@W4flann_algorithm_t@@P6APAUIndexParams@flann@@XZU?$less@W4flann_algorithm_t@@@std@@V?$allocator@U?$pair@$$CBW4flann_algorithm_t@@P6APAUIndexParams@flann@@XZ@std@@@5@$0A@@std@@@2@@Z 00410ee0 f i flann:flann.obj
 0001:0000fee0       ?_Erase@?$_Tree@V?$_Tmap_traits@HP6A?AV?$shared_ptr@VImageSource@cinder@@@tr1@std@@V?$shared_ptr@VDataSource@cinder@@@23@VOptions@ImageSource@cinder@@@ZU?$less@H@3@V?$allocator@U?$pair@$$CBHP6A?AV?$shared_ptr@VImageSource@cinder@@@tr1@std@@V?$shared_ptr@VDataSource@cinder@@@23@VOptions@ImageSource@cinder@@@Z@std@@@3@$00@std@@@std@@IAEXPAU_Node@?$_Tree_nod@V?$_Tmap_traits@HP6A?AV?$shared_ptr@VImageSource@cinder@@@tr1@std@@V?$shared_ptr@VDataSource@cinder@@@23@VOptions@ImageSource@cinder@@@ZU?$less@H@3@V?$allocator@U?$pair@$$CBHP6A?AV?$shared_ptr@VImageSource@cinder@@@tr1@std@@V?$shared_ptr@VDataSource@cinder@@@23@VOptions@ImageSource@cinder@@@Z@std@@@3@$00@std@@@2@@Z 00410ee0 f i cinder:ImageIo.obj
 0001:0000fee0       ?_Erase@?$_Tree@V?$_Tmap_traits@HP6A?AV?$shared_ptr@VImageSource@cinder@@@tr1@std@@V?$shared_ptr@VDataSource@cinder@@@23@VOptions@ImageSource@cinder@@@ZU?$less@H@3@V?$allocator@U?$pair@$$CBHP6A?AV?$shared_ptr@VImageSource@cinder@@@tr1@std@@V?$shared_ptr@VDataSource@cinder@@@23@VOptions@ImageSource@cinder@@@Z@std@@@3@$0A@@std@@@std@@IAEXPAU_Node@?$_Tree_nod@V?$_Tmap_traits@HP6A?AV?$shared_ptr@VImageSource@cinder@@@tr1@std@@V?$shared_ptr@VDataSource@cinder@@@23@VOptions@ImageSource@cinder@@@ZU?$less@H@3@V?$allocator@U?$pair@$$CBHP6A?AV?$shared_ptr@VImageSource@cinder@@@tr1@std@@V?$shared_ptr@VDataSource@cinder@@@23@VOptions@ImageSource@cinder@@@Z@std@@@3@$0A@@std@@@2@@Z 00410ee0 f i cinder:ImageIo.obj
 0001:0000fee0       ?_Erase@?$_Tree@V?$_Tmap_traits@W4flann_centers_init_t@@P6AXHABV?$Matrix@M@flann@@PAHHPAPAMAAH@ZU?$less@W4flann_centers_init_t@@@std@@V?$allocator@U?$pair@$$CBW4flann_centers_init_t@@P6AXHABV?$Matrix@M@flann@@PAHHPAPAMAAH@Z@std@@@5@$0A@@std@@@std@@IAEXPAU_Node@?$_Tree_nod@V?$_Tmap_traits@W4flann_centers_init_t@@P6AXHABV?$Matrix@M@flann@@PAHHPAPAMAAH@ZU?$less@W4flann_centers_init_t@@@std@@V?$allocator@U?$pair@$$CBW4flann_centers_init_t@@P6AXHABV?$Matrix@M@flann@@PAHHPAPAMAAH@Z@std@@@5@$0A@@std@@@2@@Z 00410ee0 f i flann:flann.obj
 0001:0000ff20       ?_Linsert@?$_Tree@V?$_Tmap_traits@W4flann_algorithm_t@@P6APAUIndexParams@flann@@XZU?$less@W4flann_algorithm_t@@@std@@V?$allocator@U?$pair@$$CBW4flann_algorithm_t@@P6APAUIndexParams@flann@@XZ@std@@@5@$0A@@std@@@std@@QAE?AU?$pair@V?$_Tree_iterator@V?$_Tree_val@V?$_Tmap_traits@W4flann_algorithm_t@@P6APAUIndexParams@flann@@XZU?$less@W4flann_algorithm_t@@@std@@V?$allocator@U?$pair@$$CBW4flann_algorithm_t@@P6APAUIndexParams@flann@@XZ@std@@@5@$0A@@std@@@std@@@std@@_N@2@PAU_Node@?$_Tree_nod@V?$_Tmap_traits@W4flann_algorithm_t@@P6APAUIndexParams@flann@@XZU?$less@W4flann_algorithm_t@@@std@@V?$allocator@U?$pair@$$CBW4flann_algorithm_t@@P6APAUIndexParams@flann@@XZ@std@@@5@$0A@@std@@@2@_N@Z 00410f20 f i flann:flann.obj
 0001:0000ff20       ?_Linsert@?$_Tree@V?$_Tmap_traits@W4flann_centers_init_t@@P6AXHABV?$Matrix@M@flann@@PAHHPAPAMAAH@ZU?$less@W4flann_centers_init_t@@@std@@V?$allocator@U?$pair@$$CBW4flann_centers_init_t@@P6AXHABV?$Matrix@M@flann@@PAHHPAPAMAAH@Z@std@@@5@$0A@@std@@@std@@QAE?AU?$pair@V?$_Tree_iterator@V?$_Tree_val@V?$_Tmap_traits@W4flann_centers_init_t@@P6AXHABV?$Matrix@M@flann@@PAHHPAPAMAAH@ZU?$less@W4flann_centers_init_t@@@std@@V?$allocator@U?$pair@$$CBW4flann_centers_init_t@@P6AXHABV?$Matrix@M@flann@@PAHHPAPAMAAH@Z@std@@@5@$0A@@std@@@std@@@std@@_N@2@PAU_Node@?$_Tree_nod@V?$_Tmap_traits@W4flann_centers_init_t@@P6AXHABV?$Matrix@M@flann@@PAHHPAPAMAAH@ZU?$less@W4flann_centers_init_t@@@std@@V?$allocator@U?$pair@$$CBW4flann_centers_init_t@@P6AXHABV?$Matrix@M@flann@@PAHHPAPAMAAH@Z@std@@@5@$0A@@std@@@2@_N@Z 00410f20 f i flann:flann.obj
 0001:0000ff20       ?_Linsert@?$_Tree@V?$_Tmap_traits@HP6A?AV?$shared_ptr@VImageSource@cinder@@@tr1@std@@V?$shared_ptr@VDataSource@cinder@@@23@VOptions@ImageSource@cinder@@@ZU?$less@H@3@V?$allocator@U?$pair@$$CBHP6A?AV?$shared_ptr@VImageSource@cinder@@@tr1@std@@V?$shared_ptr@VDataSource@cinder@@@23@VOptions@ImageSource@cinder@@@Z@std@@@3@$0A@@std@@@std@@QAE?AU?$pair@V?$_Tree_iterator@V?$_Tree_val@V?$_Tmap_traits@HP6A?AV?$shared_ptr@VImageSource@cinder@@@tr1@std@@V?$shared_ptr@VDataSource@cinder@@@23@VOptions@ImageSource@cinder@@@ZU?$less@H@3@V?$allocator@U?$pair@$$CBHP6A?AV?$shared_ptr@VImageSource@cinder@@@tr1@std@@V?$shared_ptr@VDataSource@cinder@@@23@VOptions@ImageSource@cinder@@@Z@std@@@3@$0A@@std@@@std@@@std@@_N@2@PAU_Node@?$_Tree_nod@V?$_Tmap_traits@HP6A?AV?$shared_ptr@VImageSource@cinder@@@tr1@std@@V?$shared_ptr@VDataSource@cinder@@@23@VOptions@ImageSource@cinder@@@ZU?$less@H@3@V?$allocator@U?$pair@$$CBHP6A?AV?$shared_ptr@VImageSource@cinder@@@tr1@std@@V?$shared_ptr@VDataSource@cinder@@@23@VOptions@ImageSource@cinder@@@Z@std@@@3@$0A@@std@@@2@_N@Z 00410f20 f i cinder:ImageIo.obj
 0001:00010000       ??$_Buynode@U?$pair@HP6A?AV?$shared_ptr@VImageSource@cinder@@@tr1@std@@V?$shared_ptr@VDataSource@cinder@@@23@VOptions@ImageSource@cinder@@@Z@std@@@?$_Tree_val@V?$_Tmap_traits@HP6A?AV?$shared_ptr@VImageSource@cinder@@@tr1@std@@V?$shared_ptr@VDataSource@cinder@@@23@VOptions@ImageSource@cinder@@@ZU?$less@H@3@V?$allocator@U?$pair@$$CBHP6A?AV?$shared_ptr@VImageSource@cinder@@@tr1@std@@V?$shared_ptr@VDataSource@cinder@@@23@VOptions@ImageSource@cinder@@@Z@std@@@3@$0A@@std@@@std@@QAEPAU_Node@?$_Tree_nod@V?$_Tmap_traits@HP6A?AV?$shared_ptr@VImageSource@cinder@@@tr1@std@@V?$shared_ptr@VDataSource@cinder@@@23@VOptions@ImageSource@cinder@@@ZU?$less@H@3@V?$allocator@U?$pair@$$CBHP6A?AV?$shared_ptr@VImageSource@cinder@@@tr1@std@@V?$shared_ptr@VDataSource@cinder@@@23@VOptions@ImageSource@cinder@@@Z@std@@@3@$0A@@std@@@1@$$QAU?$pair@HP6A?AV?$shared_ptr@VImageSource@cinder@@@tr1@std@@V?$shared_ptr@VDataSource@cinder@@@23@VOptions@ImageSource@cinder@@@Z@1@@Z 00411000 f i cinder:ImageIo.obj
 0001:00010000       ??$_Buynode@U?$pair@$$CBW4flann_centers_init_t@@P6AXHABV?$Matrix@M@flann@@PAHHPAPAMAAH@Z@std@@@?$_Tree_val@V?$_Tmap_traits@W4flann_centers_init_t@@P6AXHABV?$Matrix@M@flann@@PAHHPAPAMAAH@ZU?$less@W4flann_centers_init_t@@@std@@V?$allocator@U?$pair@$$CBW4flann_centers_init_t@@P6AXHABV?$Matrix@M@flann@@PAHHPAPAMAAH@Z@std@@@5@$0A@@std@@@std@@QAEPAU_Node@?$_Tree_nod@V?$_Tmap_traits@W4flann_centers_init_t@@P6AXHABV?$Matrix@M@flann@@PAHHPAPAMAAH@ZU?$less@W4flann_centers_init_t@@@std@@V?$allocator@U?$pair@$$CBW4flann_centers_init_t@@P6AXHABV?$Matrix@M@flann@@PAHHPAPAMAAH@Z@std@@@5@$0A@@std@@@1@$$QAU?$pair@$$CBW4flann_centers_init_t@@P6AXHABV?$Matrix@M@flann@@PAHHPAPAMAAH@Z@1@@Z 00411000 f i flann:flann.obj
 0001:00010000       ??$_Buynode@U?$pair@$$CBW4flann_algorithm_t@@P6APAUIndexParams@flann@@XZ@std@@@?$_Tree_val@V?$_Tmap_traits@W4flann_algorithm_t@@P6APAUIndexParams@flann@@XZU?$less@W4flann_algorithm_t@@@std@@V?$allocator@U?$pair@$$CBW4flann_algorithm_t@@P6APAUIndexParams@flann@@XZ@std@@@5@$0A@@std@@@std@@QAEPAU_Node@?$_Tree_nod@V?$_Tmap_traits@W4flann_algorithm_t@@P6APAUIndexParams@flann@@XZU?$less@W4flann_algorithm_t@@@std@@V?$allocator@U?$pair@$$CBW4flann_algorithm_t@@P6APAUIndexParams@flann@@XZ@std@@@5@$0A@@std@@@1@$$QAU?$pair@$$CBW4flann_algorithm_t@@P6APAUIndexParams@flann@@XZ@1@@Z 00411000 f i flann:flann.obj
 0001:00010000       ??$_Buynode@U?$pair@W4flann_centers_init_t@@P6AXHABV?$Matrix@M@flann@@PAHHPAPAMAAH@Z@std@@@?$_Tree_val@V?$_Tmap_traits@W4flann_centers_init_t@@P6AXHABV?$Matrix@M@flann@@PAHHPAPAMAAH@ZU?$less@W4flann_centers_init_t@@@std@@V?$allocator@U?$pair@$$CBW4flann_centers_init_t@@P6AXHABV?$Matrix@M@flann@@PAHHPAPAMAAH@Z@std@@@5@$0A@@std@@@std@@QAEPAU_Node@?$_Tree_nod@V?$_Tmap_traits@W4flann_centers_init_t@@P6AXHABV?$Matrix@M@flann@@PAHHPAPAMAAH@ZU?$less@W4flann_centers_init_t@@@std@@V?$allocator@U?$pair@$$CBW4flann_centers_init_t@@P6AXHABV?$Matrix@M@flann@@PAHHPAPAMAAH@Z@std@@@5@$0A@@std@@@1@$$QAU?$pair@W4flann_centers_init_t@@P6AXHABV?$Matrix@M@flann@@PAHHPAPAMAAH@Z@1@@Z 00411000 f i flann:flann.obj
 0001:00010070       ??$setupRowFuncForTypesAndTargetColorModel@EE$0A@@ImageSource@cinder@@IAEP801@AEXV?$shared_ptr@VImageTarget@cinder@@@tr1@std@@HPBX@Z0@Z 00411070 f i cinder:ImageIo.obj
 0001:00010250       ??$setupRowFuncForTypesAndTargetColorModel@EE$00@ImageSource@cinder@@IAEP801@AEXV?$shared_ptr@VImageTarget@cinder@@@tr1@std@@HPBX@Z0@Z 00411250 f i cinder:ImageIo.obj
 0001:00010430       ??$setupRowFuncForTypesAndTargetColorModel@EG$0A@@ImageSource@cinder@@IAEP801@AEXV?$shared_ptr@VImageTarget@cinder@@@tr1@std@@HPBX@Z0@Z 00411430 f i cinder:ImageIo.obj
 0001:00010610       ??$setupRowFuncForTypesAndTargetColorModel@EG$00@ImageSource@cinder@@IAEP801@AEXV?$shared_ptr@VImageTarget@cinder@@@tr1@std@@HPBX@Z0@Z 00411610 f i cinder:ImageIo.obj
 0001:000107f0       ??$setupRowFuncForTypesAndTargetColorModel@EM$0A@@ImageSource@cinder@@IAEP801@AEXV?$shared_ptr@VImageTarget@cinder@@@tr1@std@@HPBX@Z0@Z 004117f0 f i cinder:ImageIo.obj
 0001:000109d0       ??$setupRowFuncForTypesAndTargetColorModel@EM$00@ImageSource@cinder@@IAEP801@AEXV?$shared_ptr@VImageTarget@cinder@@@tr1@std@@HPBX@Z0@Z 004119d0 f i cinder:ImageIo.obj
 0001:00010bb0       ??$setupRowFuncForTypesAndTargetColorModel@GE$0A@@ImageSource@cinder@@IAEP801@AEXV?$shared_ptr@VImageTarget@cinder@@@tr1@std@@HPBX@Z0@Z 00411bb0 f i cinder:ImageIo.obj
 0001:00010d90       ??$setupRowFuncForTypesAndTargetColorModel@GE$00@ImageSource@cinder@@IAEP801@AEXV?$shared_ptr@VImageTarget@cinder@@@tr1@std@@HPBX@Z0@Z 00411d90 f i cinder:ImageIo.obj
 0001:00010f70       ??$setupRowFuncForTypesAndTargetColorModel@GG$0A@@ImageSource@cinder@@IAEP801@AEXV?$shared_ptr@VImageTarget@cinder@@@tr1@std@@HPBX@Z0@Z 00411f70 f i cinder:ImageIo.obj
 0001:00011150       ??$setupRowFuncForTypesAndTargetColorModel@GG$00@ImageSource@cinder@@IAEP801@AEXV?$shared_ptr@VImageTarget@cinder@@@tr1@std@@HPBX@Z0@Z 00412150 f i cinder:ImageIo.obj
 0001:00011330       ??$setupRowFuncForTypesAndTargetColorModel@GM$0A@@ImageSource@cinder@@IAEP801@AEXV?$shared_ptr@VImageTarget@cinder@@@tr1@std@@HPBX@Z0@Z 00412330 f i cinder:ImageIo.obj
 0001:00011510       ??$setupRowFuncForTypesAndTargetColorModel@GM$00@ImageSource@cinder@@IAEP801@AEXV?$shared_ptr@VImageTarget@cinder@@@tr1@std@@HPBX@Z0@Z 00412510 f i cinder:ImageIo.obj
 0001:000116f0       ??$setupRowFuncForTypesAndTargetColorModel@ME$0A@@ImageSource@cinder@@IAEP801@AEXV?$shared_ptr@VImageTarget@cinder@@@tr1@std@@HPBX@Z0@Z 004126f0 f i cinder:ImageIo.obj
 0001:000118d0       ??$setupRowFuncForTypesAndTargetColorModel@ME$00@ImageSource@cinder@@IAEP801@AEXV?$shared_ptr@VImageTarget@cinder@@@tr1@std@@HPBX@Z0@Z 004128d0 f i cinder:ImageIo.obj
 0001:00011ab0       ??$setupRowFuncForTypesAndTargetColorModel@MG$0A@@ImageSource@cinder@@IAEP801@AEXV?$shared_ptr@VImageTarget@cinder@@@tr1@std@@HPBX@Z0@Z 00412ab0 f i cinder:ImageIo.obj
 0001:00011c90       ??$setupRowFuncForTypesAndTargetColorModel@MG$00@ImageSource@cinder@@IAEP801@AEXV?$shared_ptr@VImageTarget@cinder@@@tr1@std@@HPBX@Z0@Z 00412c90 f i cinder:ImageIo.obj
 0001:00011e70       ??$setupRowFuncForTypesAndTargetColorModel@MM$0A@@ImageSource@cinder@@IAEP801@AEXV?$shared_ptr@VImageTarget@cinder@@@tr1@std@@HPBX@Z0@Z 00412e70 f i cinder:ImageIo.obj
 0001:00012050       ??$setupRowFuncForTypesAndTargetColorModel@MM$00@ImageSource@cinder@@IAEP801@AEXV?$shared_ptr@VImageTarget@cinder@@@tr1@std@@HPBX@Z0@Z 00413050 f i cinder:ImageIo.obj
 0001:00012230       ??1?$pair@HU?$pair@P6A?AV?$shared_ptr@VImageTarget@cinder@@@tr1@std@@V?$shared_ptr@VDataTarget@cinder@@@23@V?$shared_ptr@VImageSource@cinder@@@23@VOptions@ImageTarget@cinder@@ABV?$basic_string@DU?$char_traits@D@std@@V?$allocator@D@2@@3@@ZV93@@std@@@std@@QAE@XZ 00413230 f i cinder:ImageIo.obj
 0001:00012260       ?erase@?$_Tree@V?$_Tmap_traits@HP6A?AV?$shared_ptr@VImageSource@cinder@@@tr1@std@@V?$shared_ptr@VDataSource@cinder@@@23@VOptions@ImageSource@cinder@@@ZU?$less@H@3@V?$allocator@U?$pair@$$CBHP6A?AV?$shared_ptr@VImageSource@cinder@@@tr1@std@@V?$shared_ptr@VDataSource@cinder@@@23@VOptions@ImageSource@cinder@@@Z@std@@@3@$00@std@@@std@@QAE?AV?$_Tree_iterator@V?$_Tree_val@V?$_Tmap_traits@HP6A?AV?$shared_ptr@VImageSource@cinder@@@tr1@std@@V?$shared_ptr@VDataSource@cinder@@@23@VOptions@ImageSource@cinder@@@ZU?$less@H@3@V?$allocator@U?$pair@$$CBHP6A?AV?$shared_ptr@VImageSource@cinder@@@tr1@std@@V?$shared_ptr@VDataSource@cinder@@@23@VOptions@ImageSource@cinder@@@Z@std@@@3@$00@std@@@std@@@2@V?$_Tree_const_iterator@V?$_Tree_val@V?$_Tmap_traits@HP6A?AV?$shared_ptr@VImageSource@cinder@@@tr1@std@@V?$shared_ptr@VDataSource@cinder@@@23@VOptions@ImageSource@cinder@@@ZU?$less@H@3@V?$allocator@U?$pair@$$CBHP6A?AV?$shared_ptr@VImageSource@cinder@@@tr1@std@@V?$shared_ptr@VDataSource@cinder@@@23@VOptions@ImageSource@cinder@@@Z@std@@@3@$00@std@@@std@@@2@0@Z 00413260 f i cinder:ImageIo.obj
 0001:00012260       ?erase@?$_Tree@V?$_Tmap_traits@W4flann_centers_init_t@@P6AXHABV?$Matrix@M@flann@@PAHHPAPAMAAH@ZU?$less@W4flann_centers_init_t@@@std@@V?$allocator@U?$pair@$$CBW4flann_centers_init_t@@P6AXHABV?$Matrix@M@flann@@PAHHPAPAMAAH@Z@std@@@5@$0A@@std@@@std@@QAE?AV?$_Tree_iterator@V?$_Tree_val@V?$_Tmap_traits@W4flann_centers_init_t@@P6AXHABV?$Matrix@M@flann@@PAHHPAPAMAAH@ZU?$less@W4flann_centers_init_t@@@std@@V?$allocator@U?$pair@$$CBW4flann_centers_init_t@@P6AXHABV?$Matrix@M@flann@@PAHHPAPAMAAH@Z@std@@@5@$0A@@std@@@std@@@2@V?$_Tree_const_iterator@V?$_Tree_val@V?$_Tmap_traits@W4flann_centers_init_t@@P6AXHABV?$Matrix@M@flann@@PAHHPAPAMAAH@ZU?$less@W4flann_centers_init_t@@@std@@V?$allocator@U?$pair@$$CBW4flann_centers_init_t@@P6AXHABV?$Matrix@M@flann@@PAHHPAPAMAAH@Z@std@@@5@$0A@@std@@@std@@@2@0@Z 00413260 f i flann:flann.obj
 0001:00012260       ?erase@?$_Tree@V?$_Tmap_traits@HP6A?AV?$shared_ptr@VImageSource@cinder@@@tr1@std@@V?$shared_ptr@VDataSource@cinder@@@23@VOptions@ImageSource@cinder@@@ZU?$less@H@3@V?$allocator@U?$pair@$$CBHP6A?AV?$shared_ptr@VImageSource@cinder@@@tr1@std@@V?$shared_ptr@VDataSource@cinder@@@23@VOptions@ImageSource@cinder@@@Z@std@@@3@$0A@@std@@@std@@QAE?AV?$_Tree_iterator@V?$_Tree_val@V?$_Tmap_traits@HP6A?AV?$shared_ptr@VImageSource@cinder@@@tr1@std@@V?$shared_ptr@VDataSource@cinder@@@23@VOptions@ImageSource@cinder@@@ZU?$less@H@3@V?$allocator@U?$pair@$$CBHP6A?AV?$shared_ptr@VImageSource@cinder@@@tr1@std@@V?$shared_ptr@VDataSource@cinder@@@23@VOptions@ImageSource@cinder@@@Z@std@@@3@$0A@@std@@@std@@@2@V?$_Tree_const_iterator@V?$_Tree_val@V?$_Tmap_traits@HP6A?AV?$shared_ptr@VImageSource@cinder@@@tr1@std@@V?$shared_ptr@VDataSource@cinder@@@23@VOptions@ImageSource@cinder@@@ZU?$less@H@3@V?$allocator@U?$pair@$$CBHP6A?AV?$shared_ptr@VImageSource@cinder@@@tr1@std@@V?$shared_ptr@VDataSource@cinder@@@23@VOptions@ImageSource@cinder@@@Z@std@@@3@$0A@@std@@@std@@@2@0@Z 00413260 f i cinder:ImageIo.obj
 0001:00012260       ?erase@?$_Tree@V?$_Tmap_traits@W4flann_algorithm_t@@P6APAUIndexParams@flann@@XZU?$less@W4flann_algorithm_t@@@std@@V?$allocator@U?$pair@$$CBW4flann_algorithm_t@@P6APAUIndexParams@flann@@XZ@std@@@5@$0A@@std@@@std@@QAE?AV?$_Tree_iterator@V?$_Tree_val@V?$_Tmap_traits@W4flann_algorithm_t@@P6APAUIndexParams@flann@@XZU?$less@W4flann_algorithm_t@@@std@@V?$allocator@U?$pair@$$CBW4flann_algorithm_t@@P6APAUIndexParams@flann@@XZ@std@@@5@$0A@@std@@@std@@@2@V?$_Tree_const_iterator@V?$_Tree_val@V?$_Tmap_traits@W4flann_algorithm_t@@P6APAUIndexParams@flann@@XZU?$less@W4flann_algorithm_t@@@std@@V?$allocator@U?$pair@$$CBW4flann_algorithm_t@@P6APAUIndexParams@flann@@XZ@std@@@5@$0A@@std@@@std@@@2@0@Z 00413260 f i flann:flann.obj
 0001:00012300       ??$setupRowFuncForTypes@EE@ImageSource@cinder@@IAEP801@AEXV?$shared_ptr@VImageTarget@cinder@@@tr1@std@@HPBX@Z0@Z 00413300 f i cinder:ImageIo.obj
 0001:00012400       ??$setupRowFuncForTypes@EG@ImageSource@cinder@@IAEP801@AEXV?$shared_ptr@VImageTarget@cinder@@@tr1@std@@HPBX@Z0@Z 00413400 f i cinder:ImageIo.obj
 0001:00012500       ??$setupRowFuncForTypes@EM@ImageSource@cinder@@IAEP801@AEXV?$shared_ptr@VImageTarget@cinder@@@tr1@std@@HPBX@Z0@Z 00413500 f i cinder:ImageIo.obj
 0001:00012600       ??$setupRowFuncForTypes@GE@ImageSource@cinder@@IAEP801@AEXV?$shared_ptr@VImageTarget@cinder@@@tr1@std@@HPBX@Z0@Z 00413600 f i cinder:ImageIo.obj
 0001:00012700       ??$setupRowFuncForTypes@GG@ImageSource@cinder@@IAEP801@AEXV?$shared_ptr@VImageTarget@cinder@@@tr1@std@@HPBX@Z0@Z 00413700 f i cinder:ImageIo.obj
 0001:00012800       ??$setupRowFuncForTypes@GM@ImageSource@cinder@@IAEP801@AEXV?$shared_ptr@VImageTarget@cinder@@@tr1@std@@HPBX@Z0@Z 00413800 f i cinder:ImageIo.obj
 0001:00012900       ??$setupRowFuncForTypes@ME@ImageSource@cinder@@IAEP801@AEXV?$shared_ptr@VImageTarget@cinder@@@tr1@std@@HPBX@Z0@Z 00413900 f i cinder:ImageIo.obj
 0001:00012a00       ??$setupRowFuncForTypes@MG@ImageSource@cinder@@IAEP801@AEXV?$shared_ptr@VImageTarget@cinder@@@tr1@std@@HPBX@Z0@Z 00413a00 f i cinder:ImageIo.obj
 0001:00012b00       ??$setupRowFuncForTypes@MM@ImageSource@cinder@@IAEP801@AEXV?$shared_ptr@VImageTarget@cinder@@@tr1@std@@HPBX@Z0@Z 00413b00 f i cinder:ImageIo.obj
 0001:00012c00       ?createSource@Inst@ImageIoRegistrar@cinder@@QAE?AV?$shared_ptr@VImageSource@cinder@@@tr1@std@@V?$shared_ptr@VDataSource@cinder@@@56@VOptions@ImageSource@3@V?$basic_string@DU?$char_traits@D@std@@V?$allocator@D@2@@6@@Z 00413c00 f   cinder:ImageIo.obj
 0001:00012ef0       ??0ImageIoExceptionFailedLoad@cinder@@QAE@ABV01@@Z 00413ef0 f i cinder:ImageIo.obj
 0001:00012f10       ??$setupRowFuncForSourceType@E@ImageSource@cinder@@IAEP801@AEXV?$shared_ptr@VImageTarget@cinder@@@tr1@std@@HPBX@Z0@Z 00413f10 f i cinder:ImageIo.obj
 0001:00013020       ??$setupRowFuncForSourceType@G@ImageSource@cinder@@IAEP801@AEXV?$shared_ptr@VImageTarget@cinder@@@tr1@std@@HPBX@Z0@Z 00414020 f i cinder:ImageIo.obj
 0001:00013130       ??$setupRowFuncForSourceType@M@ImageSource@cinder@@IAEP801@AEXV?$shared_ptr@VImageTarget@cinder@@@tr1@std@@HPBX@Z0@Z 00414130 f i cinder:ImageIo.obj
 0001:00013240       ?setupRowFunc@ImageSource@cinder@@IAEP812@AEXV?$shared_ptr@VImageTarget@cinder@@@tr1@std@@HPBX@Z0@Z 00414240 f   cinder:ImageIo.obj
 0001:00013350       ??$_Move@PAV?$basic_string@DU?$char_traits@D@std@@V?$allocator@D@2@@std@@PAV12@@std@@YAPAV?$basic_string@DU?$char_traits@D@std@@V?$allocator@D@2@@0@PAV10@00U_Nonscalar_ptr_iterator_tag@0@@Z 00414350 f i cinder:ImageIo.obj
 0001:000133e0       ??1?$map@HP6A?AV?$shared_ptr@VImageSource@cinder@@@tr1@std@@V?$shared_ptr@VDataSource@cinder@@@23@VOptions@ImageSource@cinder@@@ZU?$less@H@3@V?$allocator@U?$pair@$$CBHP6A?AV?$shared_ptr@VImageSource@cinder@@@tr1@std@@V?$shared_ptr@VDataSource@cinder@@@23@VOptions@ImageSource@cinder@@@Z@std@@@3@@std@@QAE@XZ 004143e0 f i cinder:ImageIo.obj
 0001:00013440       ??$make_pair@AAP6A?AV?$shared_ptr@VImageTarget@cinder@@@tr1@std@@V?$shared_ptr@VDataTarget@cinder@@@23@V?$shared_ptr@VImageSource@cinder@@@23@VOptions@ImageTarget@cinder@@ABV?$basic_string@DU?$char_traits@D@std@@V?$allocator@D@2@@3@@ZV93@@std@@YA?AU?$pair@P6A?AV?$shared_ptr@VImageTarget@cinder@@@tr1@std@@V?$shared_ptr@VDataTarget@cinder@@@23@V?$shared_ptr@VImageSource@cinder@@@23@VOptions@ImageTarget@cinder@@ABV?$basic_string@DU?$char_traits@D@std@@V?$allocator@D@2@@3@@ZV93@@0@AAP6A?AV?$shared_ptr@VImageTarget@cinder@@@tr1@0@V?$shared_ptr@VDataTarget@cinder@@@30@V?$shared_ptr@VImageSource@cinder@@@30@VOptions@ImageTarget@cinder@@ABV?$basic_string@DU?$char_traits@D@std@@V?$allocator@D@2@@0@@Z3@Z 00414440 f i cinder:ImageIo.obj
 0001:000134e0       ?_Insert@?$_Tree@V?$_Tmap_traits@HU?$pair@P6A?AV?$shared_ptr@VImageTarget@cinder@@@tr1@std@@V?$shared_ptr@VDataTarget@cinder@@@23@V?$shared_ptr@VImageSource@cinder@@@23@VOptions@ImageTarget@cinder@@ABV?$basic_string@DU?$char_traits@D@std@@V?$allocator@D@2@@3@@ZV93@@std@@U?$less@H@2@V?$allocator@U?$pair@$$CBHU?$pair@P6A?AV?$shared_ptr@VImageTarget@cinder@@@tr1@std@@V?$shared_ptr@VDataTarget@cinder@@@23@V?$shared_ptr@VImageSource@cinder@@@23@VOptions@ImageTarget@cinder@@ABV?$basic_string@DU?$char_traits@D@std@@V?$allocator@D@2@@3@@ZV93@@std@@@std@@@2@$00@std@@@std@@IAE?AV?$_Tree_iterator@V?$_Tree_val@V?$_Tmap_traits@HU?$pair@P6A?AV?$shared_ptr@VImageTarget@cinder@@@tr1@std@@V?$shared_ptr@VDataTarget@cinder@@@23@V?$shared_ptr@VImageSource@cinder@@@23@VOptions@ImageTarget@cinder@@ABV?$basic_string@DU?$char_traits@D@std@@V?$allocator@D@2@@3@@ZV93@@std@@U?$less@H@2@V?$allocator@U?$pair@$$CBHU?$pair@P6A?AV?$shared_ptr@VImageTarget@cinder@@@tr1@std@@V?$shared_ptr@VDataTarget@cinder@@@23@V?$shared_ptr@VImageSource@cinder@@@23@VOptions@ImageTarget@cinder@@ABV?$basic_string@DU?$char_traits@D@std@@V?$allocator@D@2@@3@@ZV93@@std@@@std@@@2@$00@std@@@std@@@2@_NPAU_Node@?$_Tree_nod@V?$_Tmap_traits@HU?$pair@P6A?AV?$shared_ptr@VImageTarget@cinder@@@tr1@std@@V?$shared_ptr@VDataTarget@cinder@@@23@V?$shared_ptr@VImageSource@cinder@@@23@VOptions@ImageTarget@cinder@@ABV?$basic_string@DU?$char_traits@D@std@@V?$allocator@D@2@@3@@ZV93@@std@@U?$less@H@2@V?$allocator@U?$pair@$$CBHU?$pair@P6A?AV?$shared_ptr@VImageTarget@cinder@@@tr1@std@@V?$shared_ptr@VDataTarget@cinder@@@23@V?$shared_ptr@VImageSource@cinder@@@23@VOptions@ImageTarget@cinder@@ABV?$basic_string@DU?$char_traits@D@std@@V?$allocator@D@2@@3@@ZV93@@std@@@std@@@2@$00@std@@@2@1@Z 004144e0 f i cinder:ImageIo.obj
 0001:00013730       ?erase@?$_Tree@V?$_Tmap_traits@HU?$pair@P6A?AV?$shared_ptr@VImageTarget@cinder@@@tr1@std@@V?$shared_ptr@VDataTarget@cinder@@@23@V?$shared_ptr@VImageSource@cinder@@@23@VOptions@ImageTarget@cinder@@ABV?$basic_string@DU?$char_traits@D@std@@V?$allocator@D@2@@3@@ZV93@@std@@U?$less@H@2@V?$allocator@U?$pair@$$CBHU?$pair@P6A?AV?$shared_ptr@VImageTarget@cinder@@@tr1@std@@V?$shared_ptr@VDataTarget@cinder@@@23@V?$shared_ptr@VImageSource@cinder@@@23@VOptions@ImageTarget@cinder@@ABV?$basic_string@DU?$char_traits@D@std@@V?$allocator@D@2@@3@@ZV93@@std@@@std@@@2@$00@std@@@std@@QAE?AV?$_Tree_iterator@V?$_Tree_val@V?$_Tmap_traits@HU?$pair@P6A?AV?$shared_ptr@VImageTarget@cinder@@@tr1@std@@V?$shared_ptr@VDataTarget@cinder@@@23@V?$shared_ptr@VImageSource@cinder@@@23@VOptions@ImageTarget@cinder@@ABV?$basic_string@DU?$char_traits@D@std@@V?$allocator@D@2@@3@@ZV93@@std@@U?$less@H@2@V?$allocator@U?$pair@$$CBHU?$pair@P6A?AV?$shared_ptr@VImageTarget@cinder@@@tr1@std@@V?$shared_ptr@VDataTarget@cinder@@@23@V?$shared_ptr@VImageSource@cinder@@@23@VOptions@ImageTarget@cinder@@ABV?$basic_string@DU?$char_traits@D@std@@V?$allocator@D@2@@3@@ZV93@@std@@@std@@@2@$00@std@@@std@@@2@V?$_Tree_const_iterator@V?$_Tree_val@V?$_Tmap_traits@HU?$pair@P6A?AV?$shared_ptr@VImageTarget@cinder@@@tr1@std@@V?$shared_ptr@VDataTarget@cinder@@@23@V?$shared_ptr@VImageSource@cinder@@@23@VOptions@ImageTarget@cinder@@ABV?$basic_string@DU?$char_traits@D@std@@V?$allocator@D@2@@3@@ZV93@@std@@U?$less@H@2@V?$allocator@U?$pair@$$CBHU?$pair@P6A?AV?$shared_ptr@VImageTarget@cinder@@@tr1@std@@V?$shared_ptr@VDataTarget@cinder@@@23@V?$shared_ptr@VImageSource@cinder@@@23@VOptions@ImageTarget@cinder@@ABV?$basic_string@DU?$char_traits@D@std@@V?$allocator@D@2@@3@@ZV93@@std@@@std@@@2@$00@std@@@std@@@2@@Z 00414730 f i cinder:ImageIo.obj
 0001:000139b0       ?_Erase@?$_Tree@V?$_Tmap_traits@HU?$pair@P6A?AV?$shared_ptr@VImageTarget@cinder@@@tr1@std@@V?$shared_ptr@VDataTarget@cinder@@@23@V?$shared_ptr@VImageSource@cinder@@@23@VOptions@ImageTarget@cinder@@ABV?$basic_string@DU?$char_traits@D@std@@V?$allocator@D@2@@3@@ZV93@@std@@U?$less@H@2@V?$allocator@U?$pair@$$CBHU?$pair@P6A?AV?$shared_ptr@VImageTarget@cinder@@@tr1@std@@V?$shared_ptr@VDataTarget@cinder@@@23@V?$shared_ptr@VImageSource@cinder@@@23@VOptions@ImageTarget@cinder@@ABV?$basic_string@DU?$char_traits@D@std@@V?$allocator@D@2@@3@@ZV93@@std@@@std@@@2@$00@std@@@std@@IAEXPAU_Node@?$_Tree_nod@V?$_Tmap_traits@HU?$pair@P6A?AV?$shared_ptr@VImageTarget@cinder@@@tr1@std@@V?$shared_ptr@VDataTarget@cinder@@@23@V?$shared_ptr@VImageSource@cinder@@@23@VOptions@ImageTarget@cinder@@ABV?$basic_string@DU?$char_traits@D@std@@V?$allocator@D@2@@3@@ZV93@@std@@U?$less@H@2@V?$allocator@U?$pair@$$CBHU?$pair@P6A?AV?$shared_ptr@VImageTarget@cinder@@@tr1@std@@V?$shared_ptr@VDataTarget@cinder@@@23@V?$shared_ptr@VImageSource@cinder@@@23@VOptions@ImageTarget@cinder@@ABV?$basic_string@DU?$char_traits@D@std@@V?$allocator@D@2@@3@@ZV93@@std@@@std@@@2@$00@std@@@2@@Z 004149b0 f i cinder:ImageIo.obj
 0001:00013a10       ??$make_pair@AAHU?$pair@P6A?AV?$shared_ptr@VImageTarget@cinder@@@tr1@std@@V?$shared_ptr@VDataTarget@cinder@@@23@V?$shared_ptr@VImageSource@cinder@@@23@VOptions@ImageTarget@cinder@@ABV?$basic_string@DU?$char_traits@D@std@@V?$allocator@D@2@@3@@ZV93@@std@@@std@@YA?AU?$pair@HU?$pair@P6A?AV?$shared_ptr@VImageTarget@cinder@@@tr1@std@@V?$shared_ptr@VDataTarget@cinder@@@23@V?$shared_ptr@VImageSource@cinder@@@23@VOptions@ImageTarget@cinder@@ABV?$basic_string@DU?$char_traits@D@std@@V?$allocator@D@2@@3@@ZV93@@std@@@0@AAH$$QAU?$pair@P6A?AV?$shared_ptr@VImageTarget@cinder@@@tr1@std@@V?$shared_ptr@VDataTarget@cinder@@@23@V?$shared_ptr@VImageSource@cinder@@@23@VOptions@ImageTarget@cinder@@ABV?$basic_string@DU?$char_traits@D@std@@V?$allocator@D@2@@3@@ZV93@@0@@Z 00414a10 f i cinder:ImageIo.obj
 0001:00013a50       ??$_Buynode@AAU?$pair@$$CBHU?$pair@P6A?AV?$shared_ptr@VImageTarget@cinder@@@tr1@std@@V?$shared_ptr@VDataTarget@cinder@@@23@V?$shared_ptr@VImageSource@cinder@@@23@VOptions@ImageTarget@cinder@@ABV?$basic_string@DU?$char_traits@D@std@@V?$allocator@D@2@@3@@ZV93@@std@@@std@@@?$_Tree_val@V?$_Tmap_traits@HU?$pair@P6A?AV?$shared_ptr@VImageTarget@cinder@@@tr1@std@@V?$shared_ptr@VDataTarget@cinder@@@23@V?$shared_ptr@VImageSource@cinder@@@23@VOptions@ImageTarget@cinder@@ABV?$basic_string@DU?$char_traits@D@std@@V?$allocator@D@2@@3@@ZV93@@std@@U?$less@H@2@V?$allocator@U?$pair@$$CBHU?$pair@P6A?AV?$shared_ptr@VImageTarget@cinder@@@tr1@std@@V?$shared_ptr@VDataTarget@cinder@@@23@V?$shared_ptr@VImageSource@cinder@@@23@VOptions@ImageTarget@cinder@@ABV?$basic_string@DU?$char_traits@D@std@@V?$allocator@D@2@@3@@ZV93@@std@@@std@@@2@$00@std@@@std@@QAEPAU_Node@?$_Tree_nod@V?$_Tmap_traits@HU?$pair@P6A?AV?$shared_ptr@VImageTarget@cinder@@@tr1@std@@V?$shared_ptr@VDataTarget@cinder@@@23@V?$shared_ptr@VImageSource@cinder@@@23@VOptions@ImageTarget@cinder@@ABV?$basic_string@DU?$char_traits@D@std@@V?$allocator@D@2@@3@@ZV93@@std@@U?$less@H@2@V?$allocator@U?$pair@$$CBHU?$pair@P6A?AV?$shared_ptr@VImageTarget@cinder@@@tr1@std@@V?$shared_ptr@VDataTarget@cinder@@@23@V?$shared_ptr@VImageSource@cinder@@@23@VOptions@ImageTarget@cinder@@ABV?$basic_string@DU?$char_traits@D@std@@V?$allocator@D@2@@3@@ZV93@@std@@@std@@@2@$00@std@@@1@AAU?$pair@$$CBHU?$pair@P6A?AV?$shared_ptr@VImageTarget@cinder@@@tr1@std@@V?$shared_ptr@VDataTarget@cinder@@@23@V?$shared_ptr@VImageSource@cinder@@@23@VOptions@ImageTarget@cinder@@ABV?$basic_string@DU?$char_traits@D@std@@V?$allocator@D@2@@3@@ZV93@@std@@@1@@Z 00414a50 f i cinder:ImageIo.obj
 0001:00013b40       ?push_back@?$vector@V?$basic_string@DU?$char_traits@D@std@@V?$allocator@D@2@@std@@V?$allocator@V?$basic_string@DU?$char_traits@D@std@@V?$allocator@D@2@@std@@@2@@std@@QAEX$$QAV?$basic_string@DU?$char_traits@D@std@@V?$allocator@D@2@@2@@Z 00414b40 f i cinder:ImageIo.obj
 0001:00013c10       ?erase@?$_Tree@V?$_Tmap_traits@HU?$pair@P6A?AV?$shared_ptr@VImageTarget@cinder@@@tr1@std@@V?$shared_ptr@VDataTarget@cinder@@@23@V?$shared_ptr@VImageSource@cinder@@@23@VOptions@ImageTarget@cinder@@ABV?$basic_string@DU?$char_traits@D@std@@V?$allocator@D@2@@3@@ZV93@@std@@U?$less@H@2@V?$allocator@U?$pair@$$CBHU?$pair@P6A?AV?$shared_ptr@VImageTarget@cinder@@@tr1@std@@V?$shared_ptr@VDataTarget@cinder@@@23@V?$shared_ptr@VImageSource@cinder@@@23@VOptions@ImageTarget@cinder@@ABV?$basic_string@DU?$char_traits@D@std@@V?$allocator@D@2@@3@@ZV93@@std@@@std@@@2@$00@std@@@std@@QAE?AV?$_Tree_iterator@V?$_Tree_val@V?$_Tmap_traits@HU?$pair@P6A?AV?$shared_ptr@VImageTarget@cinder@@@tr1@std@@V?$shared_ptr@VDataTarget@cinder@@@23@V?$shared_ptr@VImageSource@cinder@@@23@VOptions@ImageTarget@cinder@@ABV?$basic_string@DU?$char_traits@D@std@@V?$allocator@D@2@@3@@ZV93@@std@@U?$less@H@2@V?$allocator@U?$pair@$$CBHU?$pair@P6A?AV?$shared_ptr@VImageTarget@cinder@@@tr1@std@@V?$shared_ptr@VDataTarget@cinder@@@23@V?$shared_ptr@VImageSource@cinder@@@23@VOptions@ImageTarget@cinder@@ABV?$basic_string@DU?$char_traits@D@std@@V?$allocator@D@2@@3@@ZV93@@std@@@std@@@2@$00@std@@@std@@@2@V?$_Tree_const_iterator@V?$_Tree_val@V?$_Tmap_traits@HU?$pair@P6A?AV?$shared_ptr@VImageTarget@cinder@@@tr1@std@@V?$shared_ptr@VDataTarget@cinder@@@23@V?$shared_ptr@VImageSource@cinder@@@23@VOptions@ImageTarget@cinder@@ABV?$basic_string@DU?$char_traits@D@std@@V?$allocator@D@2@@3@@ZV93@@std@@U?$less@H@2@V?$allocator@U?$pair@$$CBHU?$pair@P6A?AV?$shared_ptr@VImageTarget@cinder@@@tr1@std@@V?$shared_ptr@VDataTarget@cinder@@@23@V?$shared_ptr@VImageSource@cinder@@@23@VOptions@ImageTarget@cinder@@ABV?$basic_string@DU?$char_traits@D@std@@V?$allocator@D@2@@3@@ZV93@@std@@@std@@@2@$00@std@@@std@@@2@0@Z 00414c10 f i cinder:ImageIo.obj
 0001:00013cd0       ??$_Buynode@U?$pair@HU?$pair@P6A?AV?$shared_ptr@VImageTarget@cinder@@@tr1@std@@V?$shared_ptr@VDataTarget@cinder@@@23@V?$shared_ptr@VImageSource@cinder@@@23@VOptions@ImageTarget@cinder@@ABV?$basic_string@DU?$char_traits@D@std@@V?$allocator@D@2@@3@@ZV93@@std@@@std@@@?$_Tree_val@V?$_Tmap_traits@HU?$pair@P6A?AV?$shared_ptr@VImageTarget@cinder@@@tr1@std@@V?$shared_ptr@VDataTarget@cinder@@@23@V?$shared_ptr@VImageSource@cinder@@@23@VOptions@ImageTarget@cinder@@ABV?$basic_string@DU?$char_traits@D@std@@V?$allocator@D@2@@3@@ZV93@@std@@U?$less@H@2@V?$allocator@U?$pair@$$CBHU?$pair@P6A?AV?$shared_ptr@VImageTarget@cinder@@@tr1@std@@V?$shared_ptr@VDataTarget@cinder@@@23@V?$shared_ptr@VImageSource@cinder@@@23@VOptions@ImageTarget@cinder@@ABV?$basic_string@DU?$char_traits@D@std@@V?$allocator@D@2@@3@@ZV93@@std@@@std@@@2@$00@std@@@std@@QAEPAU_Node@?$_Tree_nod@V?$_Tmap_traits@HU?$pair@P6A?AV?$shared_ptr@VImageTarget@cinder@@@tr1@std@@V?$shared_ptr@VDataTarget@cinder@@@23@V?$shared_ptr@VImageSource@cinder@@@23@VOptions@ImageTarget@cinder@@ABV?$basic_string@DU?$char_traits@D@std@@V?$allocator@D@2@@3@@ZV93@@std@@U?$less@H@2@V?$allocator@U?$pair@$$CBHU?$pair@P6A?AV?$shared_ptr@VImageTarget@cinder@@@tr1@std@@V?$shared_ptr@VDataTarget@cinder@@@23@V?$shared_ptr@VImageSource@cinder@@@23@VOptions@ImageTarget@cinder@@ABV?$basic_string@DU?$char_traits@D@std@@V?$allocator@D@2@@3@@ZV93@@std@@@std@@@2@$00@std@@@1@$$QAU?$pair@HU?$pair@P6A?AV?$shared_ptr@VImageTarget@cinder@@@tr1@std@@V?$shared_ptr@VDataTarget@cinder@@@23@V?$shared_ptr@VImageSource@cinder@@@23@VOptions@ImageTarget@cinder@@ABV?$basic_string@DU?$char_traits@D@std@@V?$allocator@D@2@@3@@ZV93@@std@@@1@@Z 00414cd0 f i cinder:ImageIo.obj
 0001:00013db0       ?_Copy@?$_Tree@V?$_Tmap_traits@HU?$pair@P6A?AV?$shared_ptr@VImageTarget@cinder@@@tr1@std@@V?$shared_ptr@VDataTarget@cinder@@@23@V?$shared_ptr@VImageSource@cinder@@@23@VOptions@ImageTarget@cinder@@ABV?$basic_string@DU?$char_traits@D@std@@V?$allocator@D@2@@3@@ZV93@@std@@U?$less@H@2@V?$allocator@U?$pair@$$CBHU?$pair@P6A?AV?$shared_ptr@VImageTarget@cinder@@@tr1@std@@V?$shared_ptr@VDataTarget@cinder@@@23@V?$shared_ptr@VImageSource@cinder@@@23@VOptions@ImageTarget@cinder@@ABV?$basic_string@DU?$char_traits@D@std@@V?$allocator@D@2@@3@@ZV93@@std@@@std@@@2@$00@std@@@std@@IAEPAU_Node@?$_Tree_nod@V?$_Tmap_traits@HU?$pair@P6A?AV?$shared_ptr@VImageTarget@cinder@@@tr1@std@@V?$shared_ptr@VDataTarget@cinder@@@23@V?$shared_ptr@VImageSource@cinder@@@23@VOptions@ImageTarget@cinder@@ABV?$basic_string@DU?$char_traits@D@std@@V?$allocator@D@2@@3@@ZV93@@std@@U?$less@H@2@V?$allocator@U?$pair@$$CBHU?$pair@P6A?AV?$shared_ptr@VImageTarget@cinder@@@tr1@std@@V?$shared_ptr@VDataTarget@cinder@@@23@V?$shared_ptr@VImageSource@cinder@@@23@VOptions@ImageTarget@cinder@@ABV?$basic_string@DU?$char_traits@D@std@@V?$allocator@D@2@@3@@ZV93@@std@@@std@@@2@$00@std@@@2@PAU342@0@Z 00414db0 f i cinder:ImageIo.obj
 0001:00013e70       ??0?$_Tree@V?$_Tmap_traits@HU?$pair@P6A?AV?$shared_ptr@VImageTarget@cinder@@@tr1@std@@V?$shared_ptr@VDataTarget@cinder@@@23@V?$shared_ptr@VImageSource@cinder@@@23@VOptions@ImageTarget@cinder@@ABV?$basic_string@DU?$char_traits@D@std@@V?$allocator@D@2@@3@@ZV93@@std@@U?$less@H@2@V?$allocator@U?$pair@$$CBHU?$pair@P6A?AV?$shared_ptr@VImageTarget@cinder@@@tr1@std@@V?$shared_ptr@VDataTarget@cinder@@@23@V?$shared_ptr@VImageSource@cinder@@@23@VOptions@ImageTarget@cinder@@ABV?$basic_string@DU?$char_traits@D@std@@V?$allocator@D@2@@3@@ZV93@@std@@@std@@@2@$00@std@@@std@@QAE@$$QAV01@@Z 00414e70 f i cinder:ImageIo.obj
 0001:00013f50       ??$insert@U?$pair@HU?$pair@P6A?AV?$shared_ptr@VImageTarget@cinder@@@tr1@std@@V?$shared_ptr@VDataTarget@cinder@@@23@V?$shared_ptr@VImageSource@cinder@@@23@VOptions@ImageTarget@cinder@@ABV?$basic_string@DU?$char_traits@D@std@@V?$allocator@D@2@@3@@ZV93@@std@@@std@@@?$_Tree@V?$_Tmap_traits@HU?$pair@P6A?AV?$shared_ptr@VImageTarget@cinder@@@tr1@std@@V?$shared_ptr@VDataTarget@cinder@@@23@V?$shared_ptr@VImageSource@cinder@@@23@VOptions@ImageTarget@cinder@@ABV?$basic_string@DU?$char_traits@D@std@@V?$allocator@D@2@@3@@ZV93@@std@@U?$less@H@2@V?$allocator@U?$pair@$$CBHU?$pair@P6A?AV?$shared_ptr@VImageTarget@cinder@@@tr1@std@@V?$shared_ptr@VDataTarget@cinder@@@23@V?$shared_ptr@VImageSource@cinder@@@23@VOptions@ImageTarget@cinder@@ABV?$basic_string@DU?$char_traits@D@std@@V?$allocator@D@2@@3@@ZV93@@std@@@std@@@2@$00@std@@@std@@QAE?AU?$pair@V?$_Tree_iterator@V?$_Tree_val@V?$_Tmap_traits@HU?$pair@P6A?AV?$shared_ptr@VImageTarget@cinder@@@tr1@std@@V?$shared_ptr@VDataTarget@cinder@@@23@V?$shared_ptr@VImageSource@cinder@@@23@VOptions@ImageTarget@cinder@@ABV?$basic_string@DU?$char_traits@D@std@@V?$allocator@D@2@@3@@ZV93@@std@@U?$less@H@2@V?$allocator@U?$pair@$$CBHU?$pair@P6A?AV?$shared_ptr@VImageTarget@cinder@@@tr1@std@@V?$shared_ptr@VDataTarget@cinder@@@23@V?$shared_ptr@VImageSource@cinder@@@23@VOptions@ImageTarget@cinder@@ABV?$basic_string@DU?$char_traits@D@std@@V?$allocator@D@2@@3@@ZV93@@std@@@std@@@2@$00@std@@@std@@@std@@_N@1@$$QAU?$pair@HU?$pair@P6A?AV?$shared_ptr@VImageTarget@cinder@@@tr1@std@@V?$shared_ptr@VDataTarget@cinder@@@23@V?$shared_ptr@VImageSource@cinder@@@23@VOptions@ImageTarget@cinder@@ABV?$basic_string@DU?$char_traits@D@std@@V?$allocator@D@2@@3@@ZV93@@std@@@1@@Z 00414f50 f i cinder:ImageIo.obj
 0001:00013fc0       ?_Copy@?$_Tree@V?$_Tmap_traits@HU?$pair@P6A?AV?$shared_ptr@VImageTarget@cinder@@@tr1@std@@V?$shared_ptr@VDataTarget@cinder@@@23@V?$shared_ptr@VImageSource@cinder@@@23@VOptions@ImageTarget@cinder@@ABV?$basic_string@DU?$char_traits@D@std@@V?$allocator@D@2@@3@@ZV93@@std@@U?$less@H@2@V?$allocator@U?$pair@$$CBHU?$pair@P6A?AV?$shared_ptr@VImageTarget@cinder@@@tr1@std@@V?$shared_ptr@VDataTarget@cinder@@@23@V?$shared_ptr@VImageSource@cinder@@@23@VOptions@ImageTarget@cinder@@ABV?$basic_string@DU?$char_traits@D@std@@V?$allocator@D@2@@3@@ZV93@@std@@@std@@@2@$00@std@@@std@@IAEXABV12@@Z 00414fc0 f i cinder:ImageIo.obj
 0001:00014040       ?erase@?$_Tree@V?$_Tmap_traits@V?$basic_string@DU?$char_traits@D@std@@V?$allocator@D@2@@std@@V?$multimap@HP6A?AV?$shared_ptr@VImageSource@cinder@@@tr1@std@@V?$shared_ptr@VDataSource@cinder@@@23@VOptions@ImageSource@cinder@@@ZU?$less@H@3@V?$allocator@U?$pair@$$CBHP6A?AV?$shared_ptr@VImageSource@cinder@@@tr1@std@@V?$shared_ptr@VDataSource@cinder@@@23@VOptions@ImageSource@cinder@@@Z@std@@@3@@2@U?$less@V?$basic_string@DU?$char_traits@D@std@@V?$allocator@D@2@@std@@@2@V?$allocator@U?$pair@$$CBV?$basic_string@DU?$char_traits@D@std@@V?$allocator@D@2@@std@@V?$multimap@HP6A?AV?$shared_ptr@VImageSource@cinder@@@tr1@std@@V?$shared_ptr@VDataSource@cinder@@@23@VOptions@ImageSource@cinder@@@ZU?$less@H@3@V?$allocator@U?$pair@$$CBHP6A?AV?$shared_ptr@VImageSource@cinder@@@tr1@std@@V?$shared_ptr@VDataSource@cinder@@@23@VOptions@ImageSource@cinder@@@Z@std@@@3@@2@@std@@@2@$0A@@std@@@std@@QAE?AV?$_Tree_iterator@V?$_Tree_val@V?$_Tmap_traits@V?$basic_string@DU?$char_traits@D@std@@V?$allocator@D@2@@std@@V?$multimap@HP6A?AV?$shared_ptr@VImageSource@cinder@@@tr1@std@@V?$shared_ptr@VDataSource@cinder@@@23@VOptions@ImageSource@cinder@@@ZU?$less@H@3@V?$allocator@U?$pair@$$CBHP6A?AV?$shared_ptr@VImageSource@cinder@@@tr1@std@@V?$shared_ptr@VDataSource@cinder@@@23@VOptions@ImageSource@cinder@@@Z@std@@@3@@2@U?$less@V?$basic_string@DU?$char_traits@D@std@@V?$allocator@D@2@@std@@@2@V?$allocator@U?$pair@$$CBV?$basic_string@DU?$char_traits@D@std@@V?$allocator@D@2@@std@@V?$multimap@HP6A?AV?$shared_ptr@VImageSource@cinder@@@tr1@std@@V?$shared_ptr@VDataSource@cinder@@@23@VOptions@ImageSource@cinder@@@ZU?$less@H@3@V?$allocator@U?$pair@$$CBHP6A?AV?$shared_ptr@VImageSource@cinder@@@tr1@std@@V?$shared_ptr@VDataSource@cinder@@@23@VOptions@ImageSource@cinder@@@Z@std@@@3@@2@@std@@@2@$0A@@std@@@std@@@2@V?$_Tree_const_iterator@V?$_Tree_val@V?$_Tmap_traits@V?$basic_string@DU?$char_traits@D@std@@V?$allocator@D@2@@std@@V?$multimap@HP6A?AV?$shared_ptr@VImageSource@cinder@@@tr1@std@@V?$shared_ptr@VDataSource@cinder@@@23@VOptions@ImageSource@cinder@@@ZU?$less@H@3@V?$allocator@U?$pair@$$CBHP6A?AV?$shared_ptr@VImageSource@cinder@@@tr1@std@@V?$shared_ptr@VDataSource@cinder@@@23@VOptions@ImageSource@cinder@@@Z@std@@@3@@2@U?$less@V?$basic_string@DU?$char_traits@D@std@@V?$allocator@D@2@@std@@@2@V?$allocator@U?$pair@$$CBV?$basic_string@DU?$char_traits@D@std@@V?$allocator@D@2@@std@@V?$multimap@HP6A?AV?$shared_ptr@VImageSource@cinder@@@tr1@std@@V?$shared_ptr@VDataSource@cinder@@@23@VOptions@ImageSource@cinder@@@ZU?$less@H@3@V?$allocator@U?$pair@$$CBHP6A?AV?$shared_ptr@VImageSource@cinder@@@tr1@std@@V?$shared_ptr@VDataSource@cinder@@@23@VOptions@ImageSource@cinder@@@Z@std@@@3@@2@@std@@@2@$0A@@std@@@std@@@2@@Z 00415040 f i cinder:ImageIo.obj
 0001:00014310       ?_Erase@?$_Tree@V?$_Tmap_traits@V?$basic_string@DU?$char_traits@D@std@@V?$allocator@D@2@@std@@V?$multimap@HP6A?AV?$shared_ptr@VImageSource@cinder@@@tr1@std@@V?$shared_ptr@VDataSource@cinder@@@23@VOptions@ImageSource@cinder@@@ZU?$less@H@3@V?$allocator@U?$pair@$$CBHP6A?AV?$shared_ptr@VImageSource@cinder@@@tr1@std@@V?$shared_ptr@VDataSource@cinder@@@23@VOptions@ImageSource@cinder@@@Z@std@@@3@@2@U?$less@V?$basic_string@DU?$char_traits@D@std@@V?$allocator@D@2@@std@@@2@V?$allocator@U?$pair@$$CBV?$basic_string@DU?$char_traits@D@std@@V?$allocator@D@2@@std@@V?$multimap@HP6A?AV?$shared_ptr@VImageSource@cinder@@@tr1@std@@V?$shared_ptr@VDataSource@cinder@@@23@VOptions@ImageSource@cinder@@@ZU?$less@H@3@V?$allocator@U?$pair@$$CBHP6A?AV?$shared_ptr@VImageSource@cinder@@@tr1@std@@V?$shared_ptr@VDataSource@cinder@@@23@VOptions@ImageSource@cinder@@@Z@std@@@3@@2@@std@@@2@$0A@@std@@@std@@IAEXPAU_Node@?$_Tree_nod@V?$_Tmap_traits@V?$basic_string@DU?$char_traits@D@std@@V?$allocator@D@2@@std@@V?$multimap@HP6A?AV?$shared_ptr@VImageSource@cinder@@@tr1@std@@V?$shared_ptr@VDataSource@cinder@@@23@VOptions@ImageSource@cinder@@@ZU?$less@H@3@V?$allocator@U?$pair@$$CBHP6A?AV?$shared_ptr@VImageSource@cinder@@@tr1@std@@V?$shared_ptr@VDataSource@cinder@@@23@VOptions@ImageSource@cinder@@@Z@std@@@3@@2@U?$less@V?$basic_string@DU?$char_traits@D@std@@V?$allocator@D@2@@std@@@2@V?$allocator@U?$pair@$$CBV?$basic_string@DU?$char_traits@D@std@@V?$allocator@D@2@@std@@V?$multimap@HP6A?AV?$shared_ptr@VImageSource@cinder@@@tr1@std@@V?$shared_ptr@VDataSource@cinder@@@23@VOptions@ImageSource@cinder@@@ZU?$less@H@3@V?$allocator@U?$pair@$$CBHP6A?AV?$shared_ptr@VImageSource@cinder@@@tr1@std@@V?$shared_ptr@VDataSource@cinder@@@23@VOptions@ImageSource@cinder@@@Z@std@@@3@@2@@std@@@2@$0A@@std@@@2@@Z 00415310 f i cinder:ImageIo.obj
 0001:000143f0       ??0?$_Tree@V?$_Tmap_traits@HU?$pair@P6A?AV?$shared_ptr@VImageTarget@cinder@@@tr1@std@@V?$shared_ptr@VDataTarget@cinder@@@23@V?$shared_ptr@VImageSource@cinder@@@23@VOptions@ImageTarget@cinder@@ABV?$basic_string@DU?$char_traits@D@std@@V?$allocator@D@2@@3@@ZV93@@std@@U?$less@H@2@V?$allocator@U?$pair@$$CBHU?$pair@P6A?AV?$shared_ptr@VImageTarget@cinder@@@tr1@std@@V?$shared_ptr@VDataTarget@cinder@@@23@V?$shared_ptr@VImageSource@cinder@@@23@VOptions@ImageTarget@cinder@@ABV?$basic_string@DU?$char_traits@D@std@@V?$allocator@D@2@@3@@ZV93@@std@@@std@@@2@$00@std@@@std@@QAE@ABV01@@Z 004153f0 f i cinder:ImageIo.obj
 0001:000144c0       ??1?$multimap@HU?$pair@P6A?AV?$shared_ptr@VImageTarget@cinder@@@tr1@std@@V?$shared_ptr@VDataTarget@cinder@@@23@V?$shared_ptr@VImageSource@cinder@@@23@VOptions@ImageTarget@cinder@@ABV?$basic_string@DU?$char_traits@D@std@@V?$allocator@D@2@@3@@ZV93@@std@@U?$less@H@2@V?$allocator@U?$pair@$$CBHU?$pair@P6A?AV?$shared_ptr@VImageTarget@cinder@@@tr1@std@@V?$shared_ptr@VDataTarget@cinder@@@23@V?$shared_ptr@VImageSource@cinder@@@23@VOptions@ImageTarget@cinder@@ABV?$basic_string@DU?$char_traits@D@std@@V?$allocator@D@2@@3@@ZV93@@std@@@std@@@2@@std@@QAE@XZ 004154c0 f i cinder:ImageIo.obj
 0001:00014520       ??1?$pair@V?$basic_string@DU?$char_traits@D@std@@V?$allocator@D@2@@std@@V?$multimap@HU?$pair@P6A?AV?$shared_ptr@VImageTarget@cinder@@@tr1@std@@V?$shared_ptr@VDataTarget@cinder@@@23@V?$shared_ptr@VImageSource@cinder@@@23@VOptions@ImageTarget@cinder@@ABV?$basic_string@DU?$char_traits@D@std@@V?$allocator@D@2@@3@@ZV93@@std@@U?$less@H@2@V?$allocator@U?$pair@$$CBHU?$pair@P6A?AV?$shared_ptr@VImageTarget@cinder@@@tr1@std@@V?$shared_ptr@VDataTarget@cinder@@@23@V?$shared_ptr@VImageSource@cinder@@@23@VOptions@ImageTarget@cinder@@ABV?$basic_string@DU?$char_traits@D@std@@V?$allocator@D@2@@3@@ZV93@@std@@@std@@@2@@2@@std@@QAE@XZ 00415520 f i cinder:ImageIo.obj
 0001:000145b0       ?erase@?$_Tree@V?$_Tmap_traits@V?$basic_string@DU?$char_traits@D@std@@V?$allocator@D@2@@std@@V?$multimap@HP6A?AV?$shared_ptr@VImageSource@cinder@@@tr1@std@@V?$shared_ptr@VDataSource@cinder@@@23@VOptions@ImageSource@cinder@@@ZU?$less@H@3@V?$allocator@U?$pair@$$CBHP6A?AV?$shared_ptr@VImageSource@cinder@@@tr1@std@@V?$shared_ptr@VDataSource@cinder@@@23@VOptions@ImageSource@cinder@@@Z@std@@@3@@2@U?$less@V?$basic_string@DU?$char_traits@D@std@@V?$allocator@D@2@@std@@@2@V?$allocator@U?$pair@$$CBV?$basic_string@DU?$char_traits@D@std@@V?$allocator@D@2@@std@@V?$multimap@HP6A?AV?$shared_ptr@VImageSource@cinder@@@tr1@std@@V?$shared_ptr@VDataSource@cinder@@@23@VOptions@ImageSource@cinder@@@ZU?$less@H@3@V?$allocator@U?$pair@$$CBHP6A?AV?$shared_ptr@VImageSource@cinder@@@tr1@std@@V?$shared_ptr@VDataSource@cinder@@@23@VOptions@ImageSource@cinder@@@Z@std@@@3@@2@@std@@@2@$0A@@std@@@std@@QAE?AV?$_Tree_iterator@V?$_Tree_val@V?$_Tmap_traits@V?$basic_string@DU?$char_traits@D@std@@V?$allocator@D@2@@std@@V?$multimap@HP6A?AV?$shared_ptr@VImageSource@cinder@@@tr1@std@@V?$shared_ptr@VDataSource@cinder@@@23@VOptions@ImageSource@cinder@@@ZU?$less@H@3@V?$allocator@U?$pair@$$CBHP6A?AV?$shared_ptr@VImageSource@cinder@@@tr1@std@@V?$shared_ptr@VDataSource@cinder@@@23@VOptions@ImageSource@cinder@@@Z@std@@@3@@2@U?$less@V?$basic_string@DU?$char_traits@D@std@@V?$allocator@D@2@@std@@@2@V?$allocator@U?$pair@$$CBV?$basic_string@DU?$char_traits@D@std@@V?$allocator@D@2@@std@@V?$multimap@HP6A?AV?$shared_ptr@VImageSource@cinder@@@tr1@std@@V?$shared_ptr@VDataSource@cinder@@@23@VOptions@ImageSource@cinder@@@ZU?$less@H@3@V?$allocator@U?$pair@$$CBHP6A?AV?$shared_ptr@VImageSource@cinder@@@tr1@std@@V?$shared_ptr@VDataSource@cinder@@@23@VOptions@ImageSource@cinder@@@Z@std@@@3@@2@@std@@@2@$0A@@std@@@std@@@2@V?$_Tree_const_iterator@V?$_Tree_val@V?$_Tmap_traits@V?$basic_string@DU?$char_traits@D@std@@V?$allocator@D@2@@std@@V?$multimap@HP6A?AV?$shared_ptr@VImageSource@cinder@@@tr1@std@@V?$shared_ptr@VDataSource@cinder@@@23@VOptions@ImageSource@cinder@@@ZU?$less@H@3@V?$allocator@U?$pair@$$CBHP6A?AV?$shared_ptr@VImageSource@cinder@@@tr1@std@@V?$shared_ptr@VDataSource@cinder@@@23@VOptions@ImageSource@cinder@@@Z@std@@@3@@2@U?$less@V?$basic_string@DU?$char_traits@D@std@@V?$allocator@D@2@@std@@@2@V?$allocator@U?$pair@$$CBV?$basic_string@DU?$char_traits@D@std@@V?$allocator@D@2@@std@@V?$multimap@HP6A?AV?$shared_ptr@VImageSource@cinder@@@tr1@std@@V?$shared_ptr@VDataSource@cinder@@@23@VOptions@ImageSource@cinder@@@ZU?$less@H@3@V?$allocator@U?$pair@$$CBHP6A?AV?$shared_ptr@VImageSource@cinder@@@tr1@std@@V?$shared_ptr@VDataSource@cinder@@@23@VOptions@ImageSource@cinder@@@Z@std@@@3@@2@@std@@@2@$0A@@std@@@std@@@2@0@Z 004155b0 f i cinder:ImageIo.obj
 0001:00014670       ??$make_pair@AAV?$basic_string@DU?$char_traits@D@std@@V?$allocator@D@2@@std@@AAV?$multimap@HU?$pair@P6A?AV?$shared_ptr@VImageTarget@cinder@@@tr1@std@@V?$shared_ptr@VDataTarget@cinder@@@23@V?$shared_ptr@VImageSource@cinder@@@23@VOptions@ImageTarget@cinder@@ABV?$basic_string@DU?$char_traits@D@std@@V?$allocator@D@2@@3@@ZV93@@std@@U?$less@H@2@V?$allocator@U?$pair@$$CBHU?$pair@P6A?AV?$shared_ptr@VImageTarget@cinder@@@tr1@std@@V?$shared_ptr@VDataTarget@cinder@@@23@V?$shared_ptr@VImageSource@cinder@@@23@VOptions@ImageTarget@cinder@@ABV?$basic_string@DU?$char_traits@D@std@@V?$allocator@D@2@@3@@ZV93@@std@@@std@@@2@@2@@std@@YA?AU?$pair@V?$basic_string@DU?$char_traits@D@std@@V?$allocator@D@2@@std@@V?$multimap@HU?$pair@P6A?AV?$shared_ptr@VImageTarget@cinder@@@tr1@std@@V?$shared_ptr@VDataTarget@cinder@@@23@V?$shared_ptr@VImageSource@cinder@@@23@VOptions@ImageTarget@cinder@@ABV?$basic_string@DU?$char_traits@D@std@@V?$allocator@D@2@@3@@ZV93@@std@@U?$less@H@2@V?$allocator@U?$pair@$$CBHU?$pair@P6A?AV?$shared_ptr@VImageTarget@cinder@@@tr1@std@@V?$shared_ptr@VDataTarget@cinder@@@23@V?$shared_ptr@VImageSource@cinder@@@23@VOptions@ImageTarget@cinder@@ABV?$basic_string@DU?$char_traits@D@std@@V?$allocator@D@2@@3@@ZV93@@std@@@std@@@2@@2@@0@AAV?$basic_string@DU?$char_traits@D@std@@V?$allocator@D@2@@0@AAV?$multimap@HU?$pair@P6A?AV?$shared_ptr@VImageTarget@cinder@@@tr1@std@@V?$shared_ptr@VDataTarget@cinder@@@23@V?$shared_ptr@VImageSource@cinder@@@23@VOptions@ImageTarget@cinder@@ABV?$basic_string@DU?$char_traits@D@std@@V?$allocator@D@2@@3@@ZV93@@std@@U?$less@H@2@V?$allocator@U?$pair@$$CBHU?$pair@P6A?AV?$shared_ptr@VImageTarget@cinder@@@tr1@std@@V?$shared_ptr@VDataTarget@cinder@@@23@V?$shared_ptr@VImageSource@cinder@@@23@VOptions@ImageTarget@cinder@@ABV?$basic_string@DU?$char_traits@D@std@@V?$allocator@D@2@@3@@ZV93@@std@@@std@@@2@@0@@Z 00415670 f i cinder:ImageIo.obj
 0001:000146f0       ??$_Destroy@U?$pair@$$CBV?$basic_string@DU?$char_traits@D@std@@V?$allocator@D@2@@std@@V?$multimap@HU?$pair@P6A?AV?$shared_ptr@VImageTarget@cinder@@@tr1@std@@V?$shared_ptr@VDataTarget@cinder@@@23@V?$shared_ptr@VImageSource@cinder@@@23@VOptions@ImageTarget@cinder@@ABV?$basic_string@DU?$char_traits@D@std@@V?$allocator@D@2@@3@@ZV93@@std@@U?$less@H@2@V?$allocator@U?$pair@$$CBHU?$pair@P6A?AV?$shared_ptr@VImageTarget@cinder@@@tr1@std@@V?$shared_ptr@VDataTarget@cinder@@@23@V?$shared_ptr@VImageSource@cinder@@@23@VOptions@ImageTarget@cinder@@ABV?$basic_string@DU?$char_traits@D@std@@V?$allocator@D@2@@3@@ZV93@@std@@@std@@@2@@2@@std@@@std@@YAXPAU?$pair@$$CBV?$basic_string@DU?$char_traits@D@std@@V?$allocator@D@2@@std@@V?$multimap@HU?$pair@P6A?AV?$shared_ptr@VImageTarget@cinder@@@tr1@std@@V?$shared_ptr@VDataTarget@cinder@@@23@V?$shared_ptr@VImageSource@cinder@@@23@VOptions@ImageTarget@cinder@@ABV?$basic_string@DU?$char_traits@D@std@@V?$allocator@D@2@@3@@ZV93@@std@@U?$less@H@2@V?$allocator@U?$pair@$$CBHU?$pair@P6A?AV?$shared_ptr@VImageTarget@cinder@@@tr1@std@@V?$shared_ptr@VDataTarget@cinder@@@23@V?$shared_ptr@VImageSource@cinder@@@23@VOptions@ImageTarget@cinder@@ABV?$basic_string@DU?$char_traits@D@std@@V?$allocator@D@2@@3@@ZV93@@std@@@std@@@2@@2@@0@@Z 004156f0 f i cinder:ImageIo.obj
 0001:00014780       ??1?$map@V?$basic_string@DU?$char_traits@D@std@@V?$allocator@D@2@@std@@V?$multimap@HP6A?AV?$shared_ptr@VImageSource@cinder@@@tr1@std@@V?$shared_ptr@VDataSource@cinder@@@23@VOptions@ImageSource@cinder@@@ZU?$less@H@3@V?$allocator@U?$pair@$$CBHP6A?AV?$shared_ptr@VImageSource@cinder@@@tr1@std@@V?$shared_ptr@VDataSource@cinder@@@23@VOptions@ImageSource@cinder@@@Z@std@@@3@@2@U?$less@V?$basic_string@DU?$char_traits@D@std@@V?$allocator@D@2@@std@@@2@V?$allocator@U?$pair@$$CBV?$basic_string@DU?$char_traits@D@std@@V?$allocator@D@2@@std@@V?$multimap@HP6A?AV?$shared_ptr@VImageSource@cinder@@@tr1@std@@V?$shared_ptr@VDataSource@cinder@@@23@VOptions@ImageSource@cinder@@@ZU?$less@H@3@V?$allocator@U?$pair@$$CBHP6A?AV?$shared_ptr@VImageSource@cinder@@@tr1@std@@V?$shared_ptr@VDataSource@cinder@@@23@VOptions@ImageSource@cinder@@@Z@std@@@3@@2@@std@@@2@@std@@QAE@XZ 00415780 f i cinder:ImageIo.obj
 0001:000147e0       ??$_Buynode@U?$pair@V?$basic_string@DU?$char_traits@D@std@@V?$allocator@D@2@@std@@V?$multimap@HU?$pair@P6A?AV?$shared_ptr@VImageTarget@cinder@@@tr1@std@@V?$shared_ptr@VDataTarget@cinder@@@23@V?$shared_ptr@VImageSource@cinder@@@23@VOptions@ImageTarget@cinder@@ABV?$basic_string@DU?$char_traits@D@std@@V?$allocator@D@2@@3@@ZV93@@std@@U?$less@H@2@V?$allocator@U?$pair@$$CBHU?$pair@P6A?AV?$shared_ptr@VImageTarget@cinder@@@tr1@std@@V?$shared_ptr@VDataTarget@cinder@@@23@V?$shared_ptr@VImageSource@cinder@@@23@VOptions@ImageTarget@cinder@@ABV?$basic_string@DU?$char_traits@D@std@@V?$allocator@D@2@@3@@ZV93@@std@@@std@@@2@@2@@std@@@?$_Tree_val@V?$_Tmap_traits@V?$basic_string@DU?$char_traits@D@std@@V?$allocator@D@2@@std@@V?$multimap@HU?$pair@P6A?AV?$shared_ptr@VImageTarget@cinder@@@tr1@std@@V?$shared_ptr@VDataTarget@cinder@@@23@V?$shared_ptr@VImageSource@cinder@@@23@VOptions@ImageTarget@cinder@@ABV?$basic_string@DU?$char_traits@D@std@@V?$allocator@D@2@@3@@ZV93@@std@@U?$less@H@2@V?$allocator@U?$pair@$$CBHU?$pair@P6A?AV?$shared_ptr@VImageTarget@cinder@@@tr1@std@@V?$shared_ptr@VDataTarget@cinder@@@23@V?$shared_ptr@VImageSource@cinder@@@23@VOptions@ImageTarget@cinder@@ABV?$basic_string@DU?$char_traits@D@std@@V?$allocator@D@2@@3@@ZV93@@std@@@std@@@2@@2@U?$less@V?$basic_string@DU?$char_traits@D@std@@V?$allocator@D@2@@std@@@2@V?$allocator@U?$pair@$$CBV?$basic_string@DU?$char_traits@D@std@@V?$allocator@D@2@@std@@V?$multimap@HU?$pair@P6A?AV?$shared_ptr@VImageTarget@cinder@@@tr1@std@@V?$shared_ptr@VDataTarget@cinder@@@23@V?$shared_ptr@VImageSource@cinder@@@23@VOptions@ImageTarget@cinder@@ABV?$basic_string@DU?$char_traits@D@std@@V?$allocator@D@2@@3@@ZV93@@std@@U?$less@H@2@V?$allocator@U?$pair@$$CBHU?$pair@P6A?AV?$shared_ptr@VImageTarget@cinder@@@tr1@std@@V?$shared_ptr@VDataTarget@cinder@@@23@V?$shared_ptr@VImageSource@cinder@@@23@VOptions@ImageTarget@cinder@@ABV?$basic_string@DU?$char_traits@D@std@@V?$allocator@D@2@@3@@ZV93@@std@@@std@@@2@@2@@std@@@2@$0A@@std@@@std@@QAEPAU_Node@?$_Tree_nod@V?$_Tmap_traits@V?$basic_string@DU?$char_traits@D@std@@V?$allocator@D@2@@std@@V?$multimap@HU?$pair@P6A?AV?$shared_ptr@VImageTarget@cinder@@@tr1@std@@V?$shared_ptr@VDataTarget@cinder@@@23@V?$shared_ptr@VImageSource@cinder@@@23@VOptions@ImageTarget@cinder@@ABV?$basic_string@DU?$char_traits@D@std@@V?$allocator@D@2@@3@@ZV93@@std@@U?$less@H@2@V?$allocator@U?$pair@$$CBHU?$pair@P6A?AV?$shared_ptr@VImageTarget@cinder@@@tr1@std@@V?$shared_ptr@VDataTarget@cinder@@@23@V?$shared_ptr@VImageSource@cinder@@@23@VOptions@ImageTarget@cinder@@ABV?$basic_string@DU?$char_traits@D@std@@V?$allocator@D@2@@3@@ZV93@@std@@@std@@@2@@2@U?$less@V?$basic_string@DU?$char_traits@D@std@@V?$allocator@D@2@@std@@@2@V?$allocator@U?$pair@$$CBV?$basic_string@DU?$char_traits@D@std@@V?$allocator@D@2@@std@@V?$multimap@HU?$pair@P6A?AV?$shared_ptr@VImageTarget@cinder@@@tr1@std@@V?$shared_ptr@VDataTarget@cinder@@@23@V?$shared_ptr@VImageSource@cinder@@@23@VOptions@ImageTarget@cinder@@ABV?$basic_string@DU?$char_traits@D@std@@V?$allocator@D@2@@3@@ZV93@@std@@U?$less@H@2@V?$allocator@U?$pair@$$CBHU?$pair@P6A?AV?$shared_ptr@VImageTarget@cinder@@@tr1@std@@V?$shared_ptr@VDataTarget@cinder@@@23@V?$shared_ptr@VImageSource@cinder@@@23@VOptions@ImageTarget@cinder@@ABV?$basic_string@DU?$char_traits@D@std@@V?$allocator@D@2@@3@@ZV93@@std@@@std@@@2@@2@@std@@@2@$0A@@std@@@1@$$QAU?$pair@V?$basic_string@DU?$char_traits@D@std@@V?$allocator@D@2@@std@@V?$multimap@HU?$pair@P6A?AV?$shared_ptr@VImageTarget@cinder@@@tr1@std@@V?$shared_ptr@VDataTarget@cinder@@@23@V?$shared_ptr@VImageSource@cinder@@@23@VOptions@ImageTarget@cinder@@ABV?$basic_string@DU?$char_traits@D@std@@V?$allocator@D@2@@3@@ZV93@@std@@U?$less@H@2@V?$allocator@U?$pair@$$CBHU?$pair@P6A?AV?$shared_ptr@VImageTarget@cinder@@@tr1@std@@V?$shared_ptr@VDataTarget@cinder@@@23@V?$shared_ptr@VImageSource@cinder@@@23@VOptions@ImageTarget@cinder@@ABV?$basic_string@DU?$char_traits@D@std@@V?$allocator@D@2@@3@@ZV93@@std@@@std@@@2@@2@@1@@Z 004157e0 f i cinder:ImageIo.obj
 0001:000148d0       ?_Insert@?$_Tree@V?$_Tmap_traits@V?$basic_string@DU?$char_traits@D@std@@V?$allocator@D@2@@std@@V?$multimap@HU?$pair@P6A?AV?$shared_ptr@VImageTarget@cinder@@@tr1@std@@V?$shared_ptr@VDataTarget@cinder@@@23@V?$shared_ptr@VImageSource@cinder@@@23@VOptions@ImageTarget@cinder@@ABV?$basic_string@DU?$char_traits@D@std@@V?$allocator@D@2@@3@@ZV93@@std@@U?$less@H@2@V?$allocator@U?$pair@$$CBHU?$pair@P6A?AV?$shared_ptr@VImageTarget@cinder@@@tr1@std@@V?$shared_ptr@VDataTarget@cinder@@@23@V?$shared_ptr@VImageSource@cinder@@@23@VOptions@ImageTarget@cinder@@ABV?$basic_string@DU?$char_traits@D@std@@V?$allocator@D@2@@3@@ZV93@@std@@@std@@@2@@2@U?$less@V?$basic_string@DU?$char_traits@D@std@@V?$allocator@D@2@@std@@@2@V?$allocator@U?$pair@$$CBV?$basic_string@DU?$char_traits@D@std@@V?$allocator@D@2@@std@@V?$multimap@HU?$pair@P6A?AV?$shared_ptr@VImageTarget@cinder@@@tr1@std@@V?$shared_ptr@VDataTarget@cinder@@@23@V?$shared_ptr@VImageSource@cinder@@@23@VOptions@ImageTarget@cinder@@ABV?$basic_string@DU?$char_traits@D@std@@V?$allocator@D@2@@3@@ZV93@@std@@U?$less@H@2@V?$allocator@U?$pair@$$CBHU?$pair@P6A?AV?$shared_ptr@VImageTarget@cinder@@@tr1@std@@V?$shared_ptr@VDataTarget@cinder@@@23@V?$shared_ptr@VImageSource@cinder@@@23@VOptions@ImageTarget@cinder@@ABV?$basic_string@DU?$char_traits@D@std@@V?$allocator@D@2@@3@@ZV93@@std@@@std@@@2@@2@@std@@@2@$0A@@std@@@std@@IAE?AV?$_Tree_iterator@V?$_Tree_val@V?$_Tmap_traits@V?$basic_string@DU?$char_traits@D@std@@V?$allocator@D@2@@std@@V?$multimap@HU?$pair@P6A?AV?$shared_ptr@VImageTarget@cinder@@@tr1@std@@V?$shared_ptr@VDataTarget@cinder@@@23@V?$shared_ptr@VImageSource@cinder@@@23@VOptions@ImageTarget@cinder@@ABV?$basic_string@DU?$char_traits@D@std@@V?$allocator@D@2@@3@@ZV93@@std@@U?$less@H@2@V?$allocator@U?$pair@$$CBHU?$pair@P6A?AV?$shared_ptr@VImageTarget@cinder@@@tr1@std@@V?$shared_ptr@VDataTarget@cinder@@@23@V?$shared_ptr@VImageSource@cinder@@@23@VOptions@ImageTarget@cinder@@ABV?$basic_string@DU?$char_traits@D@std@@V?$allocator@D@2@@3@@ZV93@@std@@@std@@@2@@2@U?$less@V?$basic_string@DU?$char_traits@D@std@@V?$allocator@D@2@@std@@@2@V?$allocator@U?$pair@$$CBV?$basic_string@DU?$char_traits@D@std@@V?$allocator@D@2@@std@@V?$multimap@HU?$pair@P6A?AV?$shared_ptr@VImageTarget@cinder@@@tr1@std@@V?$shared_ptr@VDataTarget@cinder@@@23@V?$shared_ptr@VImageSource@cinder@@@23@VOptions@ImageTarget@cinder@@ABV?$basic_string@DU?$char_traits@D@std@@V?$allocator@D@2@@3@@ZV93@@std@@U?$less@H@2@V?$allocator@U?$pair@$$CBHU?$pair@P6A?AV?$shared_ptr@VImageTarget@cinder@@@tr1@std@@V?$shared_ptr@VDataTarget@cinder@@@23@V?$shared_ptr@VImageSource@cinder@@@23@VOptions@ImageTarget@cinder@@ABV?$basic_string@DU?$char_traits@D@std@@V?$allocator@D@2@@3@@ZV93@@std@@@std@@@2@@2@@std@@@2@$0A@@std@@@std@@@2@_NPAU_Node@?$_Tree_nod@V?$_Tmap_traits@V?$basic_string@DU?$char_traits@D@std@@V?$allocator@D@2@@std@@V?$multimap@HU?$pair@P6A?AV?$shared_ptr@VImageTarget@cinder@@@tr1@std@@V?$shared_ptr@VDataTarget@cinder@@@23@V?$shared_ptr@VImageSource@cinder@@@23@VOptions@ImageTarget@cinder@@ABV?$basic_string@DU?$char_traits@D@std@@V?$allocator@D@2@@3@@ZV93@@std@@U?$less@H@2@V?$allocator@U?$pair@$$CBHU?$pair@P6A?AV?$shared_ptr@VImageTarget@cinder@@@tr1@std@@V?$shared_ptr@VDataTarget@cinder@@@23@V?$shared_ptr@VImageSource@cinder@@@23@VOptions@ImageTarget@cinder@@ABV?$basic_string@DU?$char_traits@D@std@@V?$allocator@D@2@@3@@ZV93@@std@@@std@@@2@@2@U?$less@V?$basic_string@DU?$char_traits@D@std@@V?$allocator@D@2@@std@@@2@V?$allocator@U?$pair@$$CBV?$basic_string@DU?$char_traits@D@std@@V?$allocator@D@2@@std@@V?$multimap@HU?$pair@P6A?AV?$shared_ptr@VImageTarget@cinder@@@tr1@std@@V?$shared_ptr@VDataTarget@cinder@@@23@V?$shared_ptr@VImageSource@cinder@@@23@VOptions@ImageTarget@cinder@@ABV?$basic_string@DU?$char_traits@D@std@@V?$allocator@D@2@@3@@ZV93@@std@@U?$less@H@2@V?$allocator@U?$pair@$$CBHU?$pair@P6A?AV?$shared_ptr@VImageTarget@cinder@@@tr1@std@@V?$shared_ptr@VDataTarget@cinder@@@23@V?$shared_ptr@VImageSource@cinder@@@23@VOptions@ImageTarget@cinder@@ABV?$basic_string@DU?$char_traits@D@std@@V?$allocator@D@2@@3@@ZV93@@std@@@std@@@2@@2@@std@@@2@$0A@@std@@@2@1@Z 004158d0 f i cinder:ImageIo.obj
 0001:00014b00       ?erase@?$_Tree@V?$_Tmap_traits@V?$basic_string@DU?$char_traits@D@std@@V?$allocator@D@2@@std@@V?$multimap@HU?$pair@P6A?AV?$shared_ptr@VImageTarget@cinder@@@tr1@std@@V?$shared_ptr@VDataTarget@cinder@@@23@V?$shared_ptr@VImageS8de6e224d2e6bfd61b9b6814a738cec7 00415b00 f i cinder:ImageIo.obj
 0001:00014dd0       ?_Erase@?$_Tree@V?$_Tmap_traits@V?$basic_string@DU?$char_traits@D@std@@V?$allocator@D@2@@std@@V?$multimap@HU?$pair@P6A?AV?$shared_ptr@VImageTarget@cinder@@@tr1@std@@V?$shared_ptr@VDataTarget@cinder@@@23@V?$shared_ptr@VImageSource@cinder@@@23@VOptions@ImageTarget@cinder@@ABV?$basic_string@DU?$char_traits@D@std@@V?$allocator@D@2@@3@@ZV93@@std@@U?$less@H@2@V?$allocator@U?$pair@$$CBHU?$pair@P6A?AV?$shared_ptr@VImageTarget@cinder@@@tr1@std@@V?$shared_ptr@VDataTarget@cinder@@@23@V?$shared_ptr@VImageSource@cinder@@@23@VOptions@ImageTarget@cinder@@ABV?$basic_string@DU?$char_traits@D@std@@V?$allocator@D@2@@3@@ZV93@@std@@@std@@@2@@2@U?$less@V?$basic_string@DU?$char_traits@D@std@@V?$allocator@D@2@@std@@@2@V?$allocator@U?$pair@$$CBV?$basic_string@DU?$char_traits@D@std@@V?$allocator@D@2@@std@@V?$multimap@HU?$pair@P6A?AV?$shared_ptr@VImageTarget@cinder@@@tr1@std@@V?$shared_ptr@VDataTarget@cinder@@@23@V?$shared_ptr@VImageSource@cinder@@@23@VOptions@ImageTarget@cinder@@ABV?$basic_string@DU?$char_traits@D@std@@V?$allocator@D@2@@3@@ZV93@@std@@U?$less@H@2@V?$allocator@U?$pair@$$CBHU?$pair@P6A?AV?$shared_ptr@VImageTarget@cinder@@@tr1@std@@V?$shared_ptr@VDataTarget@cinder@@@23@V?$shared_ptr@VImageSource@cinder@@@23@VOptions@ImageTarget@cinder@@ABV?$basic_string@DU?$char_traits@D@std@@V?$allocator@D@2@@3@@ZV93@@std@@@std@@@2@@2@@std@@@2@$0A@@std@@@std@@IAEXPAU_Node@?$_Tree_nod@V?$_Tmap_traits@V?$basic_string@DU?$char_traits@D@std@@V?$allocator@D@2@@std@@V?$multimap@HU?$pair@P6A?AV?$shared_ptr@VImageTarget@cinder@@@tr1@std@@V?$shared_ptr@VDataTarget@cinder@@@23@V?$shared_ptr@VImageSource@cinder@@@23@VOptions@ImageTarget@cinder@@ABV?$basic_string@DU?$char_traits@D@std@@V?$allocator@D@2@@3@@ZV93@@std@@U?$less@H@2@V?$allocator@U?$pair@$$CBHU?$pair@P6A?AV?$shared_ptr@VImageTarget@cinder@@@tr1@std@@V?$shared_ptr@VDataTarget@cinder@@@23@V?$shared_ptr@VImageSource@cinder@@@23@VOptions@ImageTarget@cinder@@ABV?$basic_string@DU?$char_traits@D@std@@V?$allocator@D@2@@3@@ZV93@@std@@@std@@@2@@2@U?$less@V?$basic_string@DU?$char_traits@D@std@@V?$allocator@D@2@@std@@@2@V?$allocator@U?$pair@$$CBV?$basic_string@DU?$char_traits@D@std@@V?$allocator@D@2@@std@@V?$multimap@HU?$pair@P6A?AV?$shared_ptr@VImageTarget@cinder@@@tr1@std@@V?$shared_ptr@VDataTarget@cinder@@@23@V?$shared_ptr@VImageSource@cinder@@@23@VOptions@ImageTarget@cinder@@ABV?$basic_string@DU?$char_traits@D@std@@V?$allocator@D@2@@3@@ZV93@@std@@U?$less@H@2@V?$allocator@U?$pair@$$CBHU?$pair@P6A?AV?$shared_ptr@VImageTarget@cinder@@@tr1@std@@V?$shared_ptr@VDataTarget@cinder@@@23@V?$shared_ptr@VImageSource@cinder@@@23@VOptions@ImageTarget@cinder@@ABV?$basic_string@DU?$char_traits@D@std@@V?$allocator@D@2@@3@@ZV93@@std@@@std@@@2@@2@@std@@@2@$0A@@std@@@2@@Z 00415dd0 f i cinder:ImageIo.obj
 0001:00014eb0       ?_Linsert@?$_Tree@V?$_Tmap_traits@V?$basic_string@DU?$char_traits@D@std@@V?$allocator@D@2@@std@@V?$multimap@HU?$pair@P6A?AV?$shared_ptr@VImageTarget@cinder@@@tr1@std@@V?$shared_ptr@VDataTarget@cinder@@@23@V?$shared_ptr@VIma35db66e00551a5ac0eb0b1d003874bcc 00415eb0 f i cinder:ImageIo.obj
 0001:00015060       ?registerTargetType@Inst@ImageIoRegistrar@cinder@@QAEXV?$basic_string@DU?$char_traits@D@std@@V?$allocator@D@2@@std@@P6A?AV?$shared_ptr@VImageTarget@cinder@@@tr1@5@V?$shared_ptr@VDataTarget@cinder@@@75@V?$shared_ptr@VImageSource@cinder@@@75@VOptions@ImageTarget@3@ABV45@@ZH4@Z 00416060 f   cinder:ImageIo.obj
 0001:00015380       ?erase@?$_Tree@V?$_Tmap_traits@V?$basic_string@DU?$char_traits@D@std@@V?$allocator@D@2@@std@@V?$multimap@HU?$pair@P6A?AV?$shared_ptr@VImageTarget@cinder@@@tr1@std@@V?$shared_ptr@VDataTarget@cinder@@@23@V?$shared_ptr@VImageSda3424650875b2c85800043577b5cf4c 00416380 f i cinder:ImageIo.obj
 0001:00015440       ??1Inst@ImageIoRegistrar@cinder@@QAE@XZ 00416440 f i cinder:ImageIo.obj
 0001:00015500       ??0Inst@ImageIoRegistrar@cinder@@QAE@XZ 00416500 f i cinder:ImageIo.obj
 0001:00015650       ?_Destroy@?$_Ref_count@UInst@ImageIoRegistrar@cinder@@@tr1@std@@EAEXXZ 00416650 f i cinder:ImageIo.obj
 0001:00015670       ??$_Resetp@UInst@ImageIoRegistrar@cinder@@@?$shared_ptr@UInst@ImageIoRegistrar@cinder@@@tr1@std@@AAEXPAUInst@ImageIoRegistrar@cinder@@@Z 00416670 f i cinder:ImageIo.obj
 0001:00015710       ?instance@ImageIoRegistrar@cinder@@CAPAUInst@12@XZ 00416710 f   cinder:ImageIo.obj
 0001:00015800       ?createSource@ImageIoRegistrar@cinder@@SA?AV?$shared_ptr@VImageSource@cinder@@@tr1@std@@V?$shared_ptr@VDataSource@cinder@@@45@VOptions@ImageSource@2@V?$basic_string@DU?$char_traits@D@std@@V?$allocator@D@2@@5@@Z 00416800 f   cinder:ImageIo.obj
 0001:00015900       ?registerTargetType@ImageIoRegistrar@cinder@@SAXV?$basic_string@DU?$char_traits@D@std@@V?$allocator@D@2@@std@@P6A?AV?$shared_ptr@VImageTarget@cinder@@@tr1@4@V?$shared_ptr@VDataTarget@cinder@@@64@V?$shared_ptr@VImageSource@cinder@@@64@VOptions@ImageTarget@2@ABV34@@ZH4@Z 00416900 f   cinder:ImageIo.obj
 0001:000159a0       ?registerSourceGeneric@ImageIoRegistrar@cinder@@SAXP6A?AV?$shared_ptr@VImageSource@cinder@@@tr1@std@@V?$shared_ptr@VDataSource@cinder@@@45@VOptions@ImageSource@2@@ZH@Z 004169a0 f   cinder:ImageIo.obj
 0001:000159e0       ?loadImage@cinder@@YA?AV?$shared_ptr@VImageSource@cinder@@@tr1@std@@V?$shared_ptr@VDataSource@cinder@@@34@VOptions@ImageSource@1@V?$basic_string@DU?$char_traits@D@std@@V?$allocator@D@2@@4@@Z 004169e0 f   cinder:ImageIo.obj
 0001:00015b30       ??1Camera@cinder@@UAE@XZ   00416b30 f i cinder:gl.obj
 0001:00015b30       ??1CameraPersp@cinder@@UAE@XZ 00416b30 f i cinder:gl.obj
 0001:00015b40       ??_GCameraPersp@cinder@@UAEPAXI@Z 00416b40 f i cinder:Camera.obj
 0001:00015b40       ??_ECameraPersp@cinder@@UAEPAXI@Z 00416b40 f i cinder:Camera.obj
 0001:00015b40       ??_GCamera@cinder@@UAEPAXI@Z 00416b40 f i cinder:gl.obj
 0001:00015b40       ??_ECamera@cinder@@UAEPAXI@Z 00416b40 f i cinder:gl.obj
 0001:00015b70       ?pushMatrices@gl@cinder@@YAXXZ 00416b70 f   cinder:gl.obj
 0001:00015ba0       ?popMatrices@gl@cinder@@YAXXZ 00416ba0 f   cinder:gl.obj
 0001:00015bd0       ?translate@gl@cinder@@YAXABV?$Vec2@M@2@@Z 00416bd0 f   cinder:gl.obj
 0001:00015c00       ?scale@gl@cinder@@YAXABV?$Vec3@M@2@@Z 00416c00 f   cinder:gl.obj
 0001:00015c30       ?rotate@gl@cinder@@YAXABV?$Vec3@M@2@@Z 00416c30 f   cinder:gl.obj
 0001:00015ca0       ?enableAlphaBlending@gl@cinder@@YAX_N@Z 00416ca0 f   cinder:gl.obj
 0001:00015cd0       ?disableAlphaBlending@gl@cinder@@YAXXZ 00416cd0 f   cinder:gl.obj
 0001:00015ce0       ??0SaveTextureBindState@gl@cinder@@QAE@H@Z 00416ce0 f   cinder:gl.obj
 0001:00015d80       ??1SaveTextureBindState@gl@cinder@@QAE@XZ 00416d80 f   cinder:gl.obj
 0001:00015d90       ??1BoolState@gl@cinder@@QAE@XZ 00416d90 f   cinder:gl.obj
 0001:00015db0       ??1ClientBoolState@gl@cinder@@QAE@XZ 00416db0 f   cinder:gl.obj
 0001:00015dd0       ?drawSolidCircle@gl@cinder@@YAXABV?$Vec2@M@2@MH@Z 00416dd0 f   cinder:gl.obj
 0001:00015ef0       ?draw@gl@cinder@@YAXABVTexture@12@ABV?$AreaT@H@2@ABV?$RectT@M@2@@Z 00416ef0 f   cinder:gl.obj
 0001:000160a0       ?draw@gl@cinder@@YAXABVTexture@12@@Z 004170a0 f   cinder:gl.obj
 0001:00016110       ??1ImageSource@cinder@@UAE@XZ 00417110 f i cinder:Texture.obj
 0001:00016120       ??_EImageSource@cinder@@UAEPAXI@Z 00417120 f i cinder:Texture.obj
 0001:00016120       ??_GImageSource@cinder@@UAEPAXI@Z 00417120 f i cinder:Texture.obj
 0001:00016150       ??0Format@Texture@gl@cinder@@QAE@XZ 00417150 f   cinder:Texture.obj
 0001:00016180       ??$checked_array_delete@E@boost@@YAXPAE@Z 00417180 f i cinder:Texture.obj
 0001:00016190       ??_GObj@Texture@gl@cinder@@QAEPAXI@Z 00417190 f i cinder:Texture.obj
 0001:000161e0       ?_Destroy@?$_Ref_count@UObj@Texture@gl@cinder@@@tr1@std@@EAEXXZ 004171e0 f i cinder:Texture.obj
 0001:00016220       ?_Get_deleter@?$_Ref_count_del@EU?$checked_array_deleter@E@boost@@@tr1@std@@UBEPAXABVtype_info@@@Z 00417220 f i cinder:Texture.obj
 0001:00016250       ?_Destroy@?$_Ref_count_del@UtagTOUCHINPUT@@U?$checked_array_deleter@UtagTOUCHINPUT@@@boost@@@tr1@std@@EAEXXZ 00417250 f i cinder:AppImplMswBasic.obj
 0001:00016250       ?_Destroy@?$_Ref_count_del@EU?$checked_array_deleter@E@boost@@@tr1@std@@EAEXXZ 00417250 f i cinder:Texture.obj
 0001:00016260       ?_Get_deleter@?$_Ref_count_del@EP6AXPAE@Z@tr1@std@@UBEPAXABVtype_info@@@Z 00417260 f i cinder:Texture.obj
 0001:00016290       ?_Destroy@?$_Ref_count@VImageSourceFileWic@cinder@@@tr1@std@@EAEXXZ 00417290 f i cinder:ImageSourceFileWic.obj
 0001:00016290       ?_Destroy@?$_Ref_count@VImageTargetFileWic@cinder@@@tr1@std@@EAEXXZ 00417290 f i cinder:ImageTargetFileWic.obj
 0001:00016290       ?_Destroy@?$_Ref_count@V?$ImageTargetGLTexture@E@gl@cinder@@@tr1@std@@EAEXXZ 00417290 f i cinder:Texture.obj
 0001:00016290       ?_Destroy@?$_Ref_count@V?$ImageTargetGLTexture@G@gl@cinder@@@tr1@std@@EAEXXZ 00417290 f i cinder:Texture.obj
 0001:00016290       ?_Destroy@?$_Ref_count@VImageTargetCvMat@cinder@@@tr1@std@@EAEXXZ 00417290 f i HaarHandDetector.obj
 0001:00016290       ?_Destroy@?$_Ref_count@V?$ImageTargetGLTexture@M@gl@cinder@@@tr1@std@@EAEXXZ 00417290 f i cinder:Texture.obj
 0001:00016290       ?_Destroy@?$_Ref_count@VImageSourceSurface@cinder@@@tr1@std@@EAEXXZ 00417290 f i cinder:Surface.obj
 0001:000162b0       ?init@Texture@gl@cinder@@IAEXPBEHIIABUFormat@123@@Z 004172b0 f   cinder:Texture.obj
 0001:000163c0       ?enableAndBind@Texture@gl@cinder@@QBEXXZ 004173c0 f   cinder:Texture.obj
 0001:000163f0       ?disable@Texture@gl@cinder@@QBEXXZ 004173f0 f   cinder:Texture.obj
 0001:00016400       ??$_Resetp@UObj@Texture@gl@cinder@@@?$shared_ptr@UObj@Texture@gl@cinder@@@tr1@std@@AAEXPAUObj@Texture@gl@cinder@@@Z 00417400 f i cinder:Texture.obj
 0001:000164a0       ?getWidth@Texture@gl@cinder@@QBEHXZ 004174a0 f   cinder:Texture.obj
 0001:00016520       ?getHeight@Texture@gl@cinder@@QBEHXZ 00417520 f   cinder:Texture.obj
 0001:000165a0       ?getCleanWidth@Texture@gl@cinder@@QBEHXZ 004175a0 f   cinder:Texture.obj
 0001:00016620       ?getCleanHeight@Texture@gl@cinder@@QBEHXZ 00417620 f   cinder:Texture.obj
 0001:000166a0       ?getAreaTexCoords@Texture@gl@cinder@@QBE?AV?$RectT@M@3@ABV?$AreaT@H@3@@Z 004176a0 f   cinder:Texture.obj
 0001:00016770       ??$_Resetp@EU?$checked_array_deleter@E@boost@@@?$shared_ptr@E@tr1@std@@AAEXPAEU?$checked_array_deleter@E@boost@@@Z 00417770 f i cinder:Texture.obj
 0001:00016810       ??0?$ImageTargetGLTexture@E@gl@cinder@@AAE@PBVTexture@12@AAW4ChannelOrder@ImageIo@2@_N2@Z 00417810 f i cinder:Texture.obj
 0001:000168d0       ?hasAlpha@?$ImageTargetGLTexture@M@gl@cinder@@UBE_NXZ 004178d0 f i cinder:Texture.obj
 0001:000168d0       ?hasAlpha@?$ImageTargetGLTexture@E@gl@cinder@@UBE_NXZ 004178d0 f i cinder:Texture.obj
 0001:000168d0       ?hasAlpha@?$ImageTargetGLTexture@G@gl@cinder@@UBE_NXZ 004178d0 f i cinder:Texture.obj
 0001:000168e0       ?getRowPointer@?$ImageTargetGLTexture@E@gl@cinder@@UAEPAXH@Z 004178e0 f i cinder:Texture.obj
 0001:00016900       ??_E?$ImageTargetGLTexture@E@gl@cinder@@UAEPAXI@Z 00417900 f i cinder:Texture.obj
 0001:00016900       ??_G?$ImageTargetGLTexture@E@gl@cinder@@UAEPAXI@Z 00417900 f i cinder:Texture.obj
 0001:00016940       ??0?$ImageTargetGLTexture@G@gl@cinder@@AAE@PBVTexture@12@AAW4ChannelOrder@ImageIo@2@_N2@Z 00417940 f i cinder:Texture.obj
 0001:00016a10       ?getRowPointer@?$ImageTargetGLTexture@G@gl@cinder@@UAEPAXH@Z 00417a10 f i cinder:Texture.obj
 0001:00016a30       ??_E?$ImageTargetGLTexture@G@gl@cinder@@UAEPAXI@Z 00417a30 f i cinder:Texture.obj
 0001:00016a30       ??_G?$ImageTargetGLTexture@G@gl@cinder@@UAEPAXI@Z 00417a30 f i cinder:Texture.obj
 0001:00016a70       ??0?$ImageTargetGLTexture@M@gl@cinder@@AAE@PBVTexture@12@AAW4ChannelOrder@ImageIo@2@_N2@Z 00417a70 f i cinder:Texture.obj
 0001:00016b40       ?getRowPointer@?$ImageTargetGLTexture@M@gl@cinder@@UAEPAXH@Z 00417b40 f i cinder:Texture.obj
 0001:00016b60       ??_E?$ImageTargetGLTexture@M@gl@cinder@@UAEPAXI@Z 00417b60 f i cinder:Texture.obj
 0001:00016b60       ??_G?$ImageTargetGLTexture@M@gl@cinder@@UAEPAXI@Z 00417b60 f i cinder:Texture.obj
 0001:00016ba0       ??$_Resetp@EP6AXPAE@Z@?$shared_ptr@E@tr1@std@@AAEXPAEP6AX0@Z@Z 00417ba0 f i cinder:Texture.obj
 0001:00016c40       ??$_Resetp@V?$ImageTargetGLTexture@E@gl@cinder@@@?$shared_ptr@V?$ImageTargetGLTexture@E@gl@cinder@@@tr1@std@@AAEXPAV?$ImageTargetGLTexture@E@gl@cinder@@@Z 00417c40 f i cinder:Texture.obj
 0001:00016ce0       ??$_Resetp@V?$ImageTargetGLTexture@G@gl@cinder@@@?$shared_ptr@V?$ImageTargetGLTexture@G@gl@cinder@@@tr1@std@@AAEXPAV?$ImageTargetGLTexture@G@gl@cinder@@@Z 00417ce0 f i cinder:Texture.obj
 0001:00016d80       ??$_Resetp@V?$ImageTargetGLTexture@M@gl@cinder@@@?$shared_ptr@V?$ImageTargetGLTexture@M@gl@cinder@@@tr1@std@@AAEXPAV?$ImageTargetGLTexture@M@gl@cinder@@@Z 00417d80 f i cinder:Texture.obj
 0001:00016e20       ??$?0EP6AXPAE@Z@?$shared_ptr@E@tr1@std@@QAE@PAEP6AX0@Z@Z 00417e20 f i cinder:Texture.obj
 0001:00016e50       ?createRef@?$ImageTargetGLTexture@E@gl@cinder@@SA?AV?$shared_ptr@V?$ImageTargetGLTexture@E@gl@cinder@@@tr1@std@@PBVTexture@23@AAW4ChannelOrder@ImageIo@3@_N2@Z 00417e50 f i cinder:Texture.obj
 0001:00016ee0       ?createRef@?$ImageTargetGLTexture@G@gl@cinder@@SA?AV?$shared_ptr@V?$ImageTargetGLTexture@G@gl@cinder@@@tr1@std@@PBVTexture@23@AAW4ChannelOrder@ImageIo@3@_N2@Z 00417ee0 f i cinder:Texture.obj
 0001:00016f70       ?createRef@?$ImageTargetGLTexture@M@gl@cinder@@SA?AV?$shared_ptr@V?$ImageTargetGLTexture@M@gl@cinder@@@tr1@std@@PBVTexture@23@AAW4ChannelOrder@ImageIo@3@_N2@Z 00417f70 f i cinder:Texture.obj
 0001:00017000       ?init@Texture@gl@cinder@@IAEXV?$shared_ptr@VImageSource@cinder@@@tr1@std@@ABUFormat@123@@Z 00418000 f   cinder:Texture.obj
 0001:00017480       ??0Texture@gl@cinder@@QAE@V?$shared_ptr@VImageSource@cinder@@@tr1@std@@UFormat@012@@Z 00418480 f   cinder:Texture.obj
 0001:00017560       ?SurfaceChannelOrderToDataFormatAndType@Texture@gl@cinder@@SAXABVSurfaceChannelOrder@3@PAHPAI@Z 00418560 f   cinder:Texture.obj
 0001:00017690       ??0TextureDataExc@gl@cinder@@QAE@ABV012@@Z 00418690 f i cinder:Texture.obj
 0001:000176d0       ??0Texture@gl@cinder@@QAE@ABV?$SurfaceT@E@2@UFormat@012@@Z 004186d0 f   cinder:Texture.obj
 0001:000177c0       ?fBm@Perlin@cinder@@QBEMABV?$Vec3@M@2@@Z 004187c0 f   cinder:Perlin.obj
 0001:00017d20       ?initPermutationTable@Perlin@cinder@@AAEXXZ 00418d20 f   cinder:Perlin.obj
 0001:00017e20       ??0Perlin@cinder@@QAE@E@Z  00418e20 f   cinder:Perlin.obj
 0001:00017e40       ?set@?$AreaT@H@cinder@@QAEXHHHH@Z 00418e40 f i cinder:Area.obj
 0001:00017e80       ??0logic_error@std@@QAE@ABV01@@Z 00418e80 f i cinder:Area.obj
 0001:00017ea0       ??0Exception@cinder@@QAE@XZ 00418ea0 f   cinder:Exception.obj
 0001:00017ec0       ?scale@?$RectT@M@cinder@@QAEXM@Z 00418ec0 f i cinder:Rect.obj
 0001:00017ef0       ??0?$RectT@M@cinder@@QAE@ABV?$AreaT@H@1@@Z 00418ef0 f i cinder:Rect.obj
 0001:00017f30       ??0SurfaceChannelOrder@cinder@@QAE@ABV01@@Z 00418f30 f   cinder:Surface.obj
 0001:00017f70       ??0SurfaceChannelOrder@cinder@@QAE@H@Z 00418f70 f   cinder:Surface.obj
 0001:00018070       ?setDeallocator@?$SurfaceT@E@cinder@@QAEXP6AXPAX@Z0@Z 00419070 f i cinder:Surface.obj
 0001:00018090       ??_G?$_Ref_count@VDataSourceBuffer@cinder@@@tr1@std@@UAEPAXI@Z 00419090 f i cinder:DataSource.obj
 0001:00018090       ??_E?$_Ref_count_del@UIWICBitmapEncoder@@P6AXPAX@Z@tr1@std@@UAEPAXI@Z 00419090 f i cinder:ImageTargetFileWic.obj
 0001:00018090       ??_E?$_Ref_count_del@UIWICBitmapDecoder@@P6AXPAX@Z@tr1@std@@UAEPAXI@Z 00419090 f i cinder:ImageSourceFileWic.obj
 0001:00018090       ??_E?$_Ref_count@VAntMgr@?A0x041a4b4a@params@cinder@@@tr1@std@@UAEPAXI@Z 00419090 f i cinder:Params.obj
 0001:00018090       ??_G?$_Ref_count@VDisplay@cinder@@@tr1@std@@UAEPAXI@Z 00419090 f i cinder:Display.obj
 0001:00018090       ??_E?$_Ref_count@UObj@Capture@cinder@@@tr1@std@@UAEPAXI@Z 00419090 f i cinder:Capture.obj
 0001:00018090       ??_E_Ref_count_base@tr1@std@@UAEPAXI@Z 00419090 f i  CIL library: CIL module
 0001:00018090       ??_E?$_Ref_count_del@EU?$checked_array_deleter@E@boost@@@tr1@std@@UAEPAXI@Z 00419090 f i cinder:Texture.obj
 0001:00018090       ??_E?$_Ref_count@UInst@ImageIoRegistrar@cinder@@@tr1@std@@UAEPAXI@Z 00419090 f i cinder:ImageIo.obj
 0001:00018090       ??_G?$_Ref_count_del@UIWICBitmapFrameDecode@@P6AXPAX@Z@tr1@std@@UAEPAXI@Z 00419090 f i cinder:ImageSourceFileWic.obj
 0001:00018090       ??_E?$_Ref_count@VDataSourceBuffer@cinder@@@tr1@std@@UAEPAXI@Z 00419090 f i cinder:DataSource.obj
 0001:00018090       ??_G?$_Ref_count@VImageTargetFileWic@cinder@@@tr1@std@@UAEPAXI@Z 00419090 f i cinder:ImageTargetFileWic.obj
 0001:00018090       ??_G?$_Ref_count@VImageTargetCvMat@cinder@@@tr1@std@@UAEPAXI@Z 00419090 f i HaarHandDetector.obj
 0001:00018090       ??_G?$_Ref_count_del@UIWICBitmapDecoder@@P6AXPAX@Z@tr1@std@@UAEPAXI@Z 00419090 f i cinder:ImageSourceFileWic.obj
 0001:00018090       ??_E?$_Ref_count_del@UIWICFormatConverter@@P6AXPAX@Z@tr1@std@@UAEPAXI@Z 00419090 f i cinder:ImageSourceFileWic.obj
 0001:00018090       ??_E?$_Ref_count@VImageTargetFileWic@cinder@@@tr1@std@@UAEPAXI@Z 00419090 f i cinder:ImageTargetFileWic.obj
 0001:00018090       ??_E?$_Ref_count@VImageSourceFileWic@cinder@@@tr1@std@@UAEPAXI@Z 00419090 f i cinder:ImageSourceFileWic.obj
 0001:00018090       ??_E?$_Ref_count_del@UtagTOUCHINPUT@@U?$checked_array_deleter@UtagTOUCHINPUT@@@boost@@@tr1@std@@UAEPAXI@Z 00419090 f i cinder:AppImplMswBasic.obj
 0001:00018090       ??_G?$_Ref_count@VCaptureMgr@cinder@@@tr1@std@@UAEPAXI@Z 00419090 f i cinder:CaptureImplDirectShow.obj
 0001:00018090       ??_G?$_Ref_count@VSurfaceCache@cinder@@@tr1@std@@UAEPAXI@Z 00419090 f i cinder:CaptureImplDirectShow.obj
 0001:00018090       ??_G?$_Ref_count@V?$ImageTargetGLTexture@E@gl@cinder@@@tr1@std@@UAEPAXI@Z 00419090 f i cinder:Texture.obj
 0001:00018090       ??_E?$_Ref_count@VSurfaceCache@cinder@@@tr1@std@@UAEPAXI@Z 00419090 f i cinder:CaptureImplDirectShow.obj
 0001:00018090       ??_G?$_Ref_count@VRenderer@app@cinder@@@tr1@std@@UAEPAXI@Z 00419090 f i cinder:App.obj
 0001:00018090       ??_E?$_Ref_count_del@EP6AXPAE@Z@tr1@std@@UAEPAXI@Z 00419090 f i cinder:Texture.obj
 0001:00018090       ??_E?$_Ref_count@VImageTargetCvMat@cinder@@@tr1@std@@UAEPAXI@Z 00419090 f i  CIL library: CIL module
 0001:00018090       ??_G?$_Ref_count_del@EP6AXPAE@Z@tr1@std@@UAEPAXI@Z 00419090 f i cinder:Texture.obj
 0001:00018090       ??_G?$_Ref_count@UObj@Capture@cinder@@@tr1@std@@UAEPAXI@Z 00419090 f i cinder:Capture.obj
 0001:00018090       ??_E?$_Ref_count_del@UIWICImagingFactory@@P6AXPAX@Z@tr1@std@@UAEPAXI@Z 00419090 f i cinder:ImageSourceFileWic.obj
 0001:00018090       ??_G?$_Ref_count@V?$ImageTargetGLTexture@M@gl@cinder@@@tr1@std@@UAEPAXI@Z 00419090 f i cinder:Texture.obj
 0001:00018090       ??_G?$_Ref_count@VImageSourceSurface@cinder@@@tr1@std@@UAEPAXI@Z 00419090 f i cinder:Surface.obj
 0001:00018090       ??_G?$_Ref_count_del@EU?$checked_array_deleter@E@boost@@@tr1@std@@UAEPAXI@Z 00419090 f i cinder:Texture.obj
 0001:00018090       ??_G?$_Ref_count@VAntMgr@?A0x041a4b4a@params@cinder@@@tr1@std@@UAEPAXI@Z 00419090 f i cinder:Params.obj
 0001:00018090       ??_E?$_Ref_count@V?$ImageTargetGLTexture@G@gl@cinder@@@tr1@std@@UAEPAXI@Z 00419090 f i cinder:Texture.obj
 0001:00018090       ??_G?$_Ref_count@UObj@?$SurfaceT@E@cinder@@@tr1@std@@UAEPAXI@Z 00419090 f i cinder:Surface.obj
 0001:00018090       ??_G?$_Ref_count_del@VComOStream@msw@cinder@@P6AXPAX@Z@tr1@std@@UAEPAXI@Z 00419090 f i cinder:ImageTargetFileWic.obj
 0001:00018090       ??_E?$_Ref_count@UObj@?$ChannelT@E@cinder@@@tr1@std@@UAEPAXI@Z 00419090 f i cinder:Channel.obj
 0001:00018090       ??_E?$_Ref_count@V?$ImageTargetGLTexture@E@gl@cinder@@@tr1@std@@UAEPAXI@Z 00419090 f i cinder:Texture.obj
 0001:00018090       ??_E?$_Ref_count_del@UIWICStream@@P6AXPAX@Z@tr1@std@@UAEPAXI@Z 00419090 f i cinder:ImageSourceFileWic.obj
 0001:00018090       ??_E?$_Ref_count@V?$map@V?$basic_string@DU?$char_traits@D@std@@V?$allocator@D@2@@std@@PBU_GUID@@U?$less@V?$basic_string@DU?$char_traits@D@std@@V?$allocator@D@2@@std@@@2@V?$allocator@U?$pair@$$CBV?$basic_string@DU?$char_traits@D@std@@V?$allocator@D@2@@std@@PBU_GUID@@@std@@@2@@std@@@tr1@std@@UAEPAXI@Z 00419090 f i cinder:ImageTargetFileWic.obj
 0001:00018090       ??_E?$_Ref_count_del@UIWICBitmapFrameDecode@@P6AXPAX@Z@tr1@std@@UAEPAXI@Z 00419090 f i cinder:ImageSourceFileWic.obj
 0001:00018090       ??_G?$_Ref_count_del@UIWICBitmapFrameEncode@@P6AXPAX@Z@tr1@std@@UAEPAXI@Z 00419090 f i cinder:ImageTargetFileWic.obj
 0001:00018090       ??_E?$_Ref_count@V?$ImageTargetGLTexture@M@gl@cinder@@@tr1@std@@UAEPAXI@Z 00419090 f i cinder:Texture.obj
 0001:00018090       ??_G?$_Ref_count@VIStreamMem@cinder@@@tr1@std@@UAEPAXI@Z 00419090 f i cinder:Stream.obj
 0001:00018090       ??_E?$_Ref_count@VDisplay@cinder@@@tr1@std@@UAEPAXI@Z 00419090 f i cinder:Display.obj
 0001:00018090       ??_E?$_Ref_count_del@UCTwBar@@P6GHPAU1@@Z@tr1@std@@UAEPAXI@Z 00419090 f i cinder:Params.obj
 0001:00018090       ??_G?$_Ref_count_del@UCTwBar@@P6GHPAU1@@Z@tr1@std@@UAEPAXI@Z 00419090 f i cinder:Params.obj
 0001:00018090       ??_G?$_Ref_count@UObj@?$ChannelT@E@cinder@@@tr1@std@@UAEPAXI@Z 00419090 f i cinder:Channel.obj
 0001:00018090       ??_E?$_Ref_count_del@VComOStream@msw@cinder@@P6AXPAX@Z@tr1@std@@UAEPAXI@Z 00419090 f i cinder:ImageTargetFileWic.obj
 0001:00018090       ??_G?$_Ref_count@UInst@ImageIoRegistrar@cinder@@@tr1@std@@UAEPAXI@Z 00419090 f i cinder:ImageIo.obj
 0001:00018090       ??_G?$_Ref_count@UObj@Buffer@cinder@@@tr1@std@@UAEPAXI@Z 00419090 f i cinder:Buffer.obj
 0001:00018090       ??_G?$_Ref_count_del@UIWICStream@@P6AXPAX@Z@tr1@std@@UAEPAXI@Z 00419090 f i cinder:ImageSourceFileWic.obj
 0001:00018090       ??_E?$_Ref_count@VRenderer@app@cinder@@@tr1@std@@UAEPAXI@Z 00419090 f i cinder:App.obj
 0001:00018090       ??_E?$_Ref_count@UObj@Buffer@cinder@@@tr1@std@@UAEPAXI@Z 00419090 f i cinder:Buffer.obj
 0001:00018090       ??_E?$_Ref_count@UObj@Texture@gl@cinder@@@tr1@std@@UAEPAXI@Z 00419090 f i cinder:Texture.obj
 0001:00018090       ??_G?$_Ref_count_del@UIWICBitmapEncoder@@P6AXPAX@Z@tr1@std@@UAEPAXI@Z 00419090 f i cinder:ImageTargetFileWic.obj
 0001:00018090       ??_E?$_Ref_count@VCaptureMgr@cinder@@@tr1@std@@UAEPAXI@Z 00419090 f i cinder:CaptureImplDirectShow.obj
 0001:00018090       ??_G?$_Ref_count_del@UIWICImagingFactory@@P6AXPAX@Z@tr1@std@@UAEPAXI@Z 00419090 f i cinder:ImageSourceFileWic.obj
 0001:00018090       ??_E?$_Ref_count@UObj@?$SurfaceT@E@cinder@@@tr1@std@@UAEPAXI@Z 00419090 f i cinder:Surface.obj
 0001:00018090       ??_G?$_Ref_count@V?$ImageTargetGLTexture@G@gl@cinder@@@tr1@std@@UAEPAXI@Z 00419090 f i cinder:Texture.obj
 0001:00018090       ??_G_Ref_count_base@tr1@std@@UAEPAXI@Z 00419090 f i HaarHandDetector.obj
 0001:00018090       ??_G?$_Ref_count@V?$map@V?$basic_string@DU?$char_traits@D@std@@V?$allocator@D@2@@std@@PBU_GUID@@U?$less@V?$basic_string@DU?$char_traits@D@std@@V?$allocator@D@2@@std@@@2@V?$allocator@U?$pair@$$CBV?$basic_string@DU?$char_traits@D@std@@V?$allocator@D@2@@std@@PBU_GUID@@@std@@@2@@std@@@tr1@std@@UAEPAXI@Z 00419090 f i cinder:ImageTargetFileWic.obj
 0001:00018090       ??_G?$_Ref_count@UObj@Texture@gl@cinder@@@tr1@std@@UAEPAXI@Z 00419090 f i cinder:Texture.obj
 0001:00018090       ??_G?$_Ref_count_del@UIWICFormatConverter@@P6AXPAX@Z@tr1@std@@UAEPAXI@Z 00419090 f i cinder:ImageSourceFileWic.obj
 0001:00018090       ??_E?$_Ref_count@VImageSourceSurface@cinder@@@tr1@std@@UAEPAXI@Z 00419090 f i cinder:Surface.obj
 0001:00018090       ??_E?$_Ref_count_del@UIWICBitmapFrameEncode@@P6AXPAX@Z@tr1@std@@UAEPAXI@Z 00419090 f i cinder:ImageTargetFileWic.obj
 0001:00018090       ??_G?$_Ref_count_del@UtagTOUCHINPUT@@U?$checked_array_deleter@UtagTOUCHINPUT@@@boost@@@tr1@std@@UAEPAXI@Z 00419090 f i cinder:AppImplMswBasic.obj
 0001:00018090       ??_E?$_Ref_count@VIStreamMem@cinder@@@tr1@std@@UAEPAXI@Z 00419090 f i cinder:Stream.obj
 0001:00018090       ??_G?$_Ref_count@VImageSourceFileWic@cinder@@@tr1@std@@UAEPAXI@Z 00419090 f i cinder:ImageSourceFileWic.obj
 0001:000180c0       ??$_Resetp@VImageSourceSurface@cinder@@@?$shared_ptr@VImageSource@cinder@@@tr1@std@@AAEXPAVImageSourceSurface@cinder@@@Z 004190c0 f i cinder:Surface.obj
 0001:00018160       ??_GObj@?$SurfaceT@E@cinder@@QAEPAXI@Z 00419160 f i cinder:Surface.obj
 0001:000181f0       ?_Destroy@?$_Ref_count@UObj@?$SurfaceT@E@cinder@@@tr1@std@@EAEXXZ 004191f0 f i cinder:Surface.obj
 0001:00018280       ??4?$shared_ptr@UObj@?$ChannelT@E@cinder@@@tr1@std@@QAEAAV012@ABV012@@Z 00419280 f i cinder:Surface.obj
 0001:00018280       ??4?$shared_ptr@UObj@?$SurfaceT@E@cinder@@@tr1@std@@QAEAAV012@ABV012@@Z 00419280 f i cinder:Surface.obj
 0001:000182f0       ??$_Resetp@UObj@?$SurfaceT@E@cinder@@@?$shared_ptr@UObj@?$SurfaceT@E@cinder@@@tr1@std@@AAEXPAUObj@?$SurfaceT@E@cinder@@@Z 004192f0 f i cinder:Surface.obj
 0001:00018390       ??$?0E@ImageSourceSurface@cinder@@QAE@ABV?$SurfaceT@E@1@@Z 00419390 f i cinder:Surface.obj
 0001:000184c0       ??1ImageSourceSurface@cinder@@UAE@XZ 004194c0 f i cinder:Surface.obj
 0001:000185a0       ??_GImageSourceSurface@cinder@@UAEPAXI@Z 004195a0 f i cinder:Surface.obj
 0001:000185a0       ??_EImageSourceSurface@cinder@@UAEPAXI@Z 004195a0 f i cinder:Surface.obj
 0001:000185d0       ?load@ImageSourceSurface@cinder@@UAEXV?$shared_ptr@VImageTarget@cinder@@@tr1@std@@@Z 004195d0 f i cinder:Surface.obj
 0001:000186f0       ??B?$SurfaceT@E@cinder@@QBE?AV?$shared_ptr@VImageSource@cinder@@@tr1@std@@XZ 004196f0 f i cinder:Surface.obj
 0001:00018780       ?initChannels@Obj@?$SurfaceT@E@cinder@@QAEXXZ 00419780 f i cinder:Surface.obj
 0001:00018970       ??0Obj@?$SurfaceT@E@cinder@@QAE@HHVSurfaceChannelOrder@2@PAE_NH@Z 00419970 f i cinder:Surface.obj
 0001:00018a30       ??0?$SurfaceT@E@cinder@@QAE@PAEHHHVSurfaceChannelOrder@1@@Z 00419a30 f i cinder:Surface.obj
 0001:00018b40       ??0?$SurfaceT@E@cinder@@QAE@HH_NVSurfaceChannelOrder@1@@Z 00419b40 f i cinder:Surface.obj
 0001:00018cb0       ??_GRenderer@app@cinder@@UAEPAXI@Z 00419cb0 f i cinder:Renderer.obj
 0001:00018cb0       ??_ERenderer@app@cinder@@UAEPAXI@Z 00419cb0 f i cinder:Renderer.obj
 0001:00018ce0       ?size@CompositeIndex@flann@@UBEHXZ 00419ce0 f i flann:flann.obj
 0001:00018ce0       ?getHwnd@RendererGl@app@cinder@@UAEPAUHWND__@@XZ 00419ce0 f i cinder:Renderer.obj
 0001:00018ce0       ?getNeighbors@KNNResultSet@flann@@UAEPAHXZ 00419ce0 f i flann:index_testing.obj
 0001:00018cf0       ?setAntiAliasing@RendererGl@app@cinder@@QAEXH@Z 00419cf0 f   cinder:Renderer.obj
 0001:00018d00       ?setup@RendererGl@app@cinder@@UAEXPAVApp@23@PAUHWND__@@PAUHDC__@@@Z 00419d00 f   cinder:Renderer.obj
 0001:00018d90       ?kill@RendererGl@app@cinder@@UAEXXZ 00419d90 f   cinder:Renderer.obj
 0001:00018da0       ?prepareToggleFullScreen@RendererGl@app@cinder@@UAEXXZ 00419da0 f   cinder:Renderer.obj
 0001:00018db0       ?finishToggleFullScreen@RendererGl@app@cinder@@UAEXXZ 00419db0 f   cinder:Renderer.obj
 0001:00018dc0       ?startDraw@RendererGl@app@cinder@@UAEXXZ 00419dc0 f   cinder:Renderer.obj
 0001:00018dd0       ?finishDraw@RendererGl@app@cinder@@UAEXXZ 00419dd0 f   cinder:Renderer.obj
 0001:00018de0       ?defaultResize@RendererGl@app@cinder@@UAEXXZ 00419de0 f   cinder:Renderer.obj
 0001:00018df0       ??0RendererGl@app@cinder@@QAE@XZ 00419df0 f   cinder:Renderer.obj
 0001:00018e10       ??_ERendererGl@app@cinder@@UAEPAXI@Z 00419e10 f i cinder:Renderer.obj
 0001:00018e10       ??_GRendererGl@app@cinder@@UAEPAXI@Z 00419e10 f i cinder:Renderer.obj
 0001:00018e50       ?copyWindowSurface@RendererGl@app@cinder@@UAE?AV?$SurfaceT@E@3@ABV?$AreaT@H@3@@Z 00419e50 f   cinder:Renderer.obj
 0001:00018f50       ?getWindowWidth@AppBasic@app@cinder@@UBEHXZ 00419f50 f   cinder:AppBasic.obj
 0001:00018f60       ?getWindowHeight@AppBasic@app@cinder@@UBEHXZ 00419f60 f   cinder:AppBasic.obj
 0001:00018f70       ?setWindowWidth@AppBasic@app@cinder@@UAEXH@Z 00419f70 f   cinder:AppBasic.obj
 0001:00018f90       ?setWindowHeight@AppBasic@app@cinder@@UAEXH@Z 00419f90 f   cinder:AppBasic.obj
 0001:00018fb0       ?setWindowSize@AppBasic@app@cinder@@UAEXHH@Z 00419fb0 f   cinder:AppBasic.obj
 0001:00018fd0       ?getFrameRate@AppBasic@app@cinder@@UBEMXZ 00419fd0 f   cinder:AppBasic.obj
 0001:00018fe0       ?setFrameRate@AppBasic@app@cinder@@UAEXM@Z 00419fe0 f   cinder:AppBasic.obj
 0001:00019000       ?isFullScreen@AppBasic@app@cinder@@UBE_NXZ 0041a000 f   cinder:AppBasic.obj
 0001:00019010       ?setFullScreen@AppBasic@app@cinder@@UAEX_N@Z 0041a010 f   cinder:AppBasic.obj
 0001:00019040       ?quit@AppBasic@app@cinder@@UAEXXZ 0041a040 f   cinder:AppBasic.obj
 0001:00019050       ?privateResize__@AppBasic@app@cinder@@UAEXABVResizeEvent@23@@Z 0041a050 f   cinder:AppBasic.obj
 0001:00019060       ?_Tidy@?$basic_string@_WU?$char_traits@_W@std@@V?$allocator@_W@2@@std@@QAEX_NI@Z 0041a060 f i cinder:AppBasic.obj
 0001:000190b0       ?erase@?$basic_string@_WU?$char_traits@_W@std@@V?$allocator@_W@2@@std@@QAEAAV12@II@Z 0041a0b0 f i cinder:AppBasic.obj
 0001:00019140       ?_Copy@?$basic_string@_WU?$char_traits@_W@std@@V?$allocator@_W@2@@std@@QAEXII@Z 0041a140 f i cinder:AppBasic.obj
 0001:000192c0       ??1?$basic_string@_WU?$char_traits@_W@std@@V?$allocator@_W@2@@std@@QAE@XZ 0041a2c0 f i cinder:AppBasic.obj
 0001:000192f0       ??1?$shared_ptr@UIWICBitmapEncoder@@@tr1@std@@QAE@XZ 0041a2f0 f i cinder:ImageTargetFileWic.obj
 0001:000192f0       ??1?$shared_ptr@UObj@Capture@cinder@@@tr1@std@@QAE@XZ 0041a2f0 f i SoixanteCircuits_TestApp.obj
 0001:000192f0       ??1?$shared_ptr@VDataSourceBuffer@cinder@@@tr1@std@@QAE@XZ 0041a2f0 f i FireParticle.obj
 0001:000192f0       ??1?$shared_ptr@V?$map@V?$basic_string@DU?$char_traits@D@std@@V?$allocator@D@2@@std@@PBU_GUID@@U?$less@V?$basic_string@DU?$char_traits@D@std@@V?$allocator@D@2@@std@@@2@V?$allocator@U?$pair@$$CBV?$basic_string@DU?$char_traits@D@std@@V?$allocator@D@2@@std@@PBU_GUID@@@std@@@2@@std@@@tr1@std@@QAE@XZ 0041a2f0 f i cinder:ImageTargetFileWic.obj
 0001:000192f0       ??1?$shared_ptr@VIStreamMem@cinder@@@tr1@std@@QAE@XZ 0041a2f0 f i cinder:DataSource.obj
 0001:000192f0       ??1?$shared_ptr@VDataSource@cinder@@@tr1@std@@QAE@XZ 0041a2f0 f i FireParticle.obj
 0001:000192f0       ??1?$shared_ptr@UIWICBitmapFrameEncode@@@tr1@std@@QAE@XZ 0041a2f0 f i cinder:ImageTargetFileWic.obj
 0001:000192f0       ??1?$SurfaceT@G@cinder@@QAE@XZ 0041a2f0 f i cinder:Surface.obj
 0001:000192f0       ??1?$shared_ptr@VImageTarget@cinder@@@tr1@std@@QAE@XZ 0041a2f0 f i HaarHandDetector.obj
 0001:000192f0       ??1?$shared_ptr@VRenderer@app@cinder@@@tr1@std@@QAE@XZ 0041a2f0 f i cinder:App.obj
 0001:000192f0       ??1?$SurfaceT@M@cinder@@QAE@XZ 0041a2f0 f i cinder:Surface.obj
 0001:000192f0       ??1?$SurfaceT@E@cinder@@QAE@XZ 0041a2f0 f i HaarHandDetector.obj
 0001:000192f0       ??1?$shared_ptr@E@tr1@std@@QAE@XZ 0041a2f0 f i cinder:Texture.obj
 0001:000192f0       ??1?$shared_ptr@VComOStream@msw@cinder@@@tr1@std@@QAE@XZ 0041a2f0 f i cinder:ImageTargetFileWic.obj
 0001:000192f0       ??1?$shared_ptr@UObj@Texture@gl@cinder@@@tr1@std@@QAE@XZ 0041a2f0 f i FireParticle.obj
 0001:000192f0       ??1?$shared_ptr@VOStream@cinder@@@tr1@std@@QAE@XZ 0041a2f0 f i cinder:ImageTargetFileWic.obj
 0001:000192f0       ??1?$shared_ptr@VIStream@cinder@@@tr1@std@@QAE@XZ 0041a2f0 f i cinder:Texture.obj
 0001:000192f0       ??1?$shared_ptr@VAntMgr@?A0x041a4b4a@params@cinder@@@tr1@std@@QAE@XZ 0041a2f0 f i cinder:Params.obj
 0001:000192f0       ??1?$shared_ptr@V?$ImageTargetGLTexture@G@gl@cinder@@@tr1@std@@QAE@XZ 0041a2f0 f i cinder:Texture.obj
 0001:000192f0       ??1?$shared_ptr@UCTwBar@@@tr1@std@@QAE@XZ 0041a2f0 f i SoixanteCircuits_TestApp.obj
 0001:000192f0       ??1?$shared_ptr@VDataTarget@cinder@@@tr1@std@@QAE@XZ 0041a2f0 f i cinder:ImageIo.obj
 0001:000192f0       ??1?$shared_ptr@VSurfaceCache@cinder@@@tr1@std@@QAE@XZ 0041a2f0 f i cinder:CaptureImplDirectShow.obj
 0001:000192f0       ??1?$shared_ptr@V?$ImageTargetGLTexture@E@gl@cinder@@@tr1@std@@QAE@XZ 0041a2f0 f i cinder:Texture.obj
 0001:000192f0       ??1?$shared_ptr@VDevice@Capture@cinder@@@tr1@std@@QAE@XZ 0041a2f0 f i SoixanteCircuits_TestApp.obj
 0001:000192f0       ??1?$shared_ptr@UIWICBitmapDecoder@@@tr1@std@@QAE@XZ 0041a2f0 f i cinder:ImageSourceFileWic.obj
 0001:000192f0       ??1?$shared_ptr@VCaptureMgr@cinder@@@tr1@std@@QAE@XZ 0041a2f0 f i cinder:CaptureImplDirectShow.obj
 0001:000192f0       ??1?$shared_ptr@V?$basic_dostream@DU?$char_traits@D@std@@@msw@cinder@@@tr1@std@@QAE@XZ 0041a2f0 f i cinder:App.obj
 0001:000192f0       ??1?$shared_ptr@VImageSource@cinder@@@tr1@std@@QAE@XZ 0041a2f0 f i FireParticle.obj
 0001:000192f0       ??1Texture@gl@cinder@@QAE@XZ 0041a2f0 f i FireParticle.obj
 0001:000192f0       ??1?$shared_ptr@UObj@?$SurfaceT@E@cinder@@@tr1@std@@QAE@XZ 0041a2f0 f i HaarHandDetector.obj
 0001:000192f0       ??1?$shared_ptr@UIWICBitmapFrameDecode@@@tr1@std@@QAE@XZ 0041a2f0 f i cinder:ImageSourceFileWic.obj
 0001:000192f0       ??1?$shared_ptr@VImageSourceFileWic@cinder@@@tr1@std@@QAE@XZ 0041a2f0 f i cinder:ImageSourceFileWic.obj
 0001:000192f0       ??1?$shared_ptr@UIWICStream@@@tr1@std@@QAE@XZ 0041a2f0 f i cinder:ImageSourceFileWic.obj
 0001:000192f0       ??1?$shared_ptr@V?$ImageTargetGLTexture@M@gl@cinder@@@tr1@std@@QAE@XZ 0041a2f0 f i cinder:Texture.obj
 0001:000192f0       ??1?$shared_ptr@UInst@ImageIoRegistrar@cinder@@@tr1@std@@QAE@XZ 0041a2f0 f i cinder:ImageIo.obj
 0001:000192f0       ??1?$ChannelT@E@cinder@@QAE@XZ 0041a2f0 f i cinder:Surface.obj
 0001:000192f0       ??1?$shared_ptr@VDisplay@cinder@@@tr1@std@@QAE@XZ 0041a2f0 f i cinder:AppBasic.obj
 0001:000192f0       ??1Buffer@cinder@@QAE@XZ   0041a2f0 f i cinder:App.obj
 0001:000192f0       ??1?$shared_ptr@UIWICImagingFactory@@@tr1@std@@QAE@XZ 0041a2f0 f i cinder:ImageSourceFileWic.obj
 0001:000192f0       ??1?$shared_ptr@UIWICFormatConverter@@@tr1@std@@QAE@XZ 0041a2f0 f i cinder:ImageSourceFileWic.obj
 0001:000192f0       ??1?$shared_ptr@UtagTOUCHINPUT@@@tr1@std@@QAE@XZ 0041a2f0 f i cinder:AppImplMswBasic.obj
 0001:00019330       ?_Buy@?$vector@VTouch@TouchEvent@app@cinder@@V?$allocator@VTouch@TouchEvent@app@cinder@@@std@@@std@@IAE_NI@Z 0041a330 f i cinder:AppBasic.obj
 0001:00019390       ?_Grow@?$basic_string@_WU?$char_traits@_W@std@@V?$allocator@_W@2@@std@@QAE_NI_N@Z 0041a390 f i cinder:AppBasic.obj
 0001:00019450       ?assign@?$basic_string@_WU?$char_traits@_W@std@@V?$allocator@_W@2@@std@@QAEAAV12@ABV12@II@Z 0041a450 f i cinder:AppBasic.obj
 0001:00019550       ?assign@?$basic_string@_WU?$char_traits@_W@std@@V?$allocator@_W@2@@std@@QAEAAV12@PB_WI@Z 0041a550 f i cinder:AppBasic.obj
 0001:00019640       ??1Settings@App@app@cinder@@MAE@XZ 0041a640 f i cinder:App.obj
 0001:00019640       ??1Settings@AppBasic@app@cinder@@UAE@XZ 0041a640 f i cinder:AppBasic.obj
 0001:00019670       ?getAppPath@AppBasic@app@cinder@@UAE?AV?$basic_string@DU?$char_traits@D@std@@V?$allocator@D@2@@std@@XZ 0041a670 f   cinder:AppBasic.obj
 0001:000196a0       ??0Settings@AppBasic@app@cinder@@QAE@XZ 0041a6a0 f   cinder:AppBasic.obj
 0001:00019740       ??$_Uninit_copy@V?$_Vector_const_iterator@V?$_Vector_val@VTouch@TouchEvent@app@cinder@@V?$allocator@VTouch@TouchEvent@app@cinder@@@std@@@std@@@std@@PAVTouch@TouchEvent@app@cinder@@V?$allocator@VTouch@TouchEvent@app@cinder@@@2@@std@@YAPAVTouch@TouchEvent@app@cinder@@V?$_Vector_const_iterator@V?$_Vector_val@VTouch@TouchEvent@app@cinder@@V?$allocator@VTouch@TouchEvent@app@cinder@@@std@@@std@@@0@0PAV1234@AAV?$allocator@VTouch@TouchEvent@app@cinder@@@0@U_Nonscalar_ptr_iterator_tag@0@@Z 0041a740 f i cinder:AppBasic.obj
 0001:00019790       ??0?$basic_string@_WU?$char_traits@_W@std@@V?$allocator@_W@2@@std@@QAE@PB_W@Z 0041a790 f i cinder:AppBasic.obj
 0001:000197e0       ??0?$vector@VTouch@TouchEvent@app@cinder@@V?$allocator@VTouch@TouchEvent@app@cinder@@@std@@@std@@QAE@ABV01@@Z 0041a7e0 f i cinder:AppBasic.obj
 0001:000198c0       ??_GTouchEvent@app@cinder@@UAEPAXI@Z 0041a8c0 f i cinder:AppBasic.obj
 0001:000198c0       ??_ETouchEvent@app@cinder@@UAEPAXI@Z 0041a8c0 f i cinder:AppBasic.obj
 0001:00019910       ?privateTouchesBegan__@AppBasic@app@cinder@@QAEXABVTouchEvent@23@@Z 0041a910 f   cinder:AppBasic.obj
 0001:00019a70       ?privateTouchesMoved__@AppBasic@app@cinder@@QAEXABVTouchEvent@23@@Z 0041aa70 f   cinder:AppBasic.obj
 0001:00019bd0       ?privateTouchesEnded__@AppBasic@app@cinder@@QAEXABVTouchEvent@23@@Z 0041abd0 f   cinder:AppBasic.obj
 0001:00019d30       ??1?$CallbackMgr@$$A6A_NVMouseEvent@app@cinder@@@Z@cinder@@QAE@XZ 0041ad30 f i cinder:App.obj
 0001:00019d30       ??1?$CallbackMgr@$$A6A_NVResizeEvent@app@cinder@@@Z@cinder@@QAE@XZ 0041ad30 f i cinder:App.obj
 0001:00019d30       ??1?$CallbackMgr@$$A6A_NVTouchEvent@app@cinder@@@Z@cinder@@QAE@XZ 0041ad30 f i cinder:AppBasic.obj
 0001:00019d30       ??1?$CallbackMgr@$$A6A_NVKeyEvent@app@cinder@@@Z@cinder@@QAE@XZ 0041ad30 f i cinder:App.obj
 0001:00019d80       ??1AppBasic@app@cinder@@UAE@XZ 0041ad80 f   cinder:AppBasic.obj
 0001:00019f60       ??0AppBasic@app@cinder@@QAE@XZ 0041af60 f   cinder:AppBasic.obj
 0001:0001a020       ??_EAppBasic@app@cinder@@UAEPAXI@Z 0041b020 f i cinder:AppBasic.obj
 0001:0001a020       ??_GAppBasic@app@cinder@@UAEPAXI@Z 0041b020 f i cinder:AppBasic.obj
 0001:0001a050       ?executeLaunch@AppBasic@app@cinder@@SAXPAV123@PAVRenderer@23@PBD@Z 0041b050 f   cinder:AppBasic.obj
 0001:0001a260       ?launch@AppBasic@app@cinder@@UAEXPBDHQBQAD@Z 0041b260 f   cinder:AppBasic.obj
 0001:0001a3e0       ??_EObj@Capture@cinder@@UAEPAXI@Z 0041b3e0 f i cinder:Capture.obj
 0001:0001a3e0       ??_GObj@Capture@cinder@@UAEPAXI@Z 0041b3e0 f i cinder:Capture.obj
 0001:0001a420       ?start@Capture@cinder@@QAEXXZ 0041b420 f   cinder:Capture.obj
 0001:0001a430       ?checkNewFrame@Capture@cinder@@QBE_NXZ 0041b430 f   cinder:Capture.obj
 0001:0001a440       ??$_Reset@VDisplay@cinder@@@?$_Ptr_base@VDisplay@cinder@@@tr1@std@@QAEXABV012@@Z 0041b440 f i cinder:Display.obj
 0001:0001a440       ??$_Reset@VDataTarget@cinder@@@?$_Ptr_base@VDataTarget@cinder@@@tr1@std@@QAEXABV012@@Z 0041b440 f i cinder:ImageIo.obj
 0001:0001a440       ??$_Reset@UObj@?$SurfaceT@E@cinder@@@?$_Ptr_base@UObj@?$SurfaceT@E@cinder@@@tr1@std@@QAEXABV012@@Z 0041b440 f i HandDetector.obj
 0001:0001a440       ??$_Reset@V?$ImageTargetGLTexture@M@gl@cinder@@@?$_Ptr_base@VImageTarget@cinder@@@tr1@std@@QAEXABV?$_Ptr_base@V?$ImageTargetGLTexture@M@gl@cinder@@@12@@Z 0041b440 f i cinder:Texture.obj
 0001:0001a440       ??$_Reset@VImageSource@cinder@@@?$_Ptr_base@VImageSource@cinder@@@tr1@std@@QAEXABV012@@Z 0041b440 f i cinder:ImageIo.obj
 0001:0001a440       ??$_Reset@VCaptureMgr@cinder@@@?$_Ptr_base@VCaptureMgr@cinder@@@tr1@std@@QAEXABV012@@Z 0041b440 f i cinder:CaptureImplDirectShow.obj
 0001:0001a440       ??$_Reset@VDevice@Capture@cinder@@@?$_Ptr_base@VDevice@Capture@cinder@@@tr1@std@@QAEXABV012@@Z 0041b440 f i cinder:Capture.obj
 0001:0001a440       ??$_Reset@VDataSource@cinder@@@?$_Ptr_base@VDataSource@cinder@@@tr1@std@@QAEXABV012@@Z 0041b440 f i cinder:ImageIo.obj
 0001:0001a440       ??$_Reset@UObj@?$ChannelT@E@cinder@@@?$_Ptr_base@UObj@?$ChannelT@E@cinder@@@tr1@std@@QAEXABV012@@Z 0041b440 f i cinder:Surface.obj
 0001:0001a440       ??$_Reset@UObj@Buffer@cinder@@@?$_Ptr_base@UObj@Buffer@cinder@@@tr1@std@@QAEXABV012@@Z 0041b440 f i cinder:DataSource.obj
 0001:0001a440       ??$_Reset@V?$ImageTargetGLTexture@E@gl@cinder@@@?$_Ptr_base@VImageTarget@cinder@@@tr1@std@@QAEXABV?$_Ptr_base@V?$ImageTargetGLTexture@E@gl@cinder@@@12@@Z 0041b440 f i cinder:Texture.obj
 0001:0001a440       ??$_Reset@V?$ImageTargetGLTexture@G@gl@cinder@@@?$_Ptr_base@VImageTarget@cinder@@@tr1@std@@QAEXABV?$_Ptr_base@V?$ImageTargetGLTexture@G@gl@cinder@@@12@@Z 0041b440 f i cinder:Texture.obj
 0001:0001a440       ??$_Reset@VImageTarget@cinder@@@?$_Ptr_base@VImageTarget@cinder@@@tr1@std@@QAEXABV012@@Z 0041b440 f i HaarHandDetector.obj
 0001:0001a440       ??$_Reset@VOStream@cinder@@@?$_Ptr_base@VOStream@cinder@@@tr1@std@@QAEXABV012@@Z 0041b440 f i cinder:ImageTargetFileWic.obj
 0001:0001a4a0       ??$_Resetp@UObj@Capture@cinder@@@?$shared_ptr@UObj@Capture@cinder@@@tr1@std@@AAEXPAUObj@Capture@cinder@@@Z 0041b4a0 f i cinder:Capture.obj
 0001:0001a540       ?getSurface@Capture@cinder@@QBE?AV?$SurfaceT@E@2@XZ 0041b540 f   cinder:Capture.obj
 0001:0001a570       ??0Obj@Capture@cinder@@QAE@HHV?$shared_ptr@VDevice@Capture@cinder@@@tr1@std@@@Z 0041b570 f   cinder:Capture.obj
 0001:0001a640       ??0Capture@cinder@@QAE@HHV?$shared_ptr@VDevice@Capture@cinder@@@tr1@std@@@Z 0041b640 f   cinder:Capture.obj
 0001:0001a760       ?mouseDown@?A0x041a4b4a@params@cinder@@YA_NVMouseEvent@app@3@@Z 0041b760 f   cinder:Params.obj
 0001:0001a7a0       ?mouseUp@?A0x041a4b4a@params@cinder@@YA_NVMouseEvent@app@3@@Z 0041b7a0 f   cinder:Params.obj
 0001:0001a7e0       ?mouseWheel@?A0x041a4b4a@params@cinder@@YA_NVMouseEvent@app@3@@Z 0041b7e0 f   cinder:Params.obj
 0001:0001a810       ?mouseMove@?A0x041a4b4a@params@cinder@@YA_NVMouseEvent@app@3@@Z 0041b810 f   cinder:Params.obj
 0001:0001a830       ?keyDown@?A0x041a4b4a@params@cinder@@YA_NVKeyEvent@app@3@@Z 0041b830 f   cinder:Params.obj
 0001:0001a880       ?resize@?A0x041a4b4a@params@cinder@@YA_NVResizeEvent@app@3@@Z 0041b880 f   cinder:Params.obj
 0001:0001a8a0       ?draw@InterfaceGl@params@cinder@@SAXXZ 0041b8a0 f   cinder:Params.obj
 0001:0001a8b0       ??_G?$_Impl_base1@_NVMouseEvent@app@cinder@@@tr1@std@@UAEPAXI@Z 0041b8b0 f i cinder:Params.obj
 0001:0001a8b0       ??_G?$_Impl_no_alloc1@U?$_Callable_fun@Q6A_NVMouseEvent@app@cinder@@@Z$0A@@tr1@std@@_NVMouseEvent@app@cinder@@@tr1@std@@UAEPAXI@Z 0041b8b0 f i cinder:Params.obj
 0001:0001a8b0       ??_E?$_Impl_no_alloc1@U?$_Callable_fun@Q6A_NVMouseEvent@app@cinder@@@Z$0A@@tr1@std@@_NVMouseEvent@app@cinder@@@tr1@std@@UAEPAXI@Z 0041b8b0 f i cinder:Params.obj
 0001:0001a8b0       ??_E?$_Impl_base1@_NVMouseEvent@app@cinder@@@tr1@std@@UAEPAXI@Z 0041b8b0 f i cinder:Params.obj
 0001:0001a8e0       ?_Destroy@?$_Ref_count@VAntMgr@?A0x041a4b4a@params@cinder@@@tr1@std@@EAEXXZ 0041b8e0 f i cinder:Params.obj
 0001:0001a900       ?_Get_deleter@?$_Ref_count_del@UCTwBar@@P6GHPAU1@@Z@tr1@std@@UBEPAXABVtype_info@@@Z 0041b900 f i cinder:Params.obj
 0001:0001a930       ?_Destroy@?$_Ref_count_del@UCTwBar@@P6GHPAU1@@Z@tr1@std@@EAEXXZ 0041b930 f i cinder:Params.obj
 0001:0001a940       ?allocate@?$allocator@VMat@cv@@@std@@QAEPAVMat@cv@@I@Z 0041b940 f i cv210:cvhistogram.obj
 0001:0001a940       ?allocate@?$allocator@U?$pair@IV?$function@$$A6A_NVMouseEvent@app@cinder@@@Z@tr1@std@@@std@@@std@@QAEPAU?$pair@IV?$function@$$A6A_NVMouseEvent@app@cinder@@@Z@tr1@std@@@2@I@Z 0041b940 f i cinder:Params.obj
 0001:0001a940       ?allocate@?$allocator@U?$pair@IV?$function@$$A6A_NVKeyEvent@app@cinder@@@Z@tr1@std@@@std@@@std@@QAEPAU?$pair@IV?$function@$$A6A_NVKeyEvent@app@cinder@@@Z@tr1@std@@@2@I@Z 0041b940 f i cinder:Params.obj
 0001:0001a940       ?allocate@?$allocator@U?$pair@IV?$function@$$A6A_NVResizeEvent@app@cinder@@@Z@tr1@std@@@std@@@std@@QAEPAU?$pair@IV?$function@$$A6A_NVResizeEvent@app@cinder@@@Z@tr1@std@@@2@I@Z 0041b940 f i cinder:Params.obj
 0001:0001a9a0       ?_Target_type@?$_Impl_no_alloc1@U?$_Callable_fun@Q6A_NVMouseEvent@app@cinder@@@Z$0A@@tr1@std@@_NVMouseEvent@app@cinder@@@tr1@std@@UBEABVtype_info@@XZ 0041b9a0 f i cinder:Params.obj
 0001:0001a9b0       ?_Copy@?$_Impl_no_alloc1@U?$_Callable_fun@Q6A_NVMouseEvent@app@cinder@@@Z$0A@@tr1@std@@_NVMouseEvent@app@cinder@@@tr1@std@@UAEPAV?$_Impl_base1@_NVMouseEvent@app@cinder@@@23@PAX@Z 0041b9b0 f i cinder:Params.obj
 0001:0001aa10       ?_Target_type@?$_Impl_no_alloc1@U?$_Callable_fun@Q6A_NVKeyEvent@app@cinder@@@Z$0A@@tr1@std@@_NVKeyEvent@app@cinder@@@tr1@std@@UBEABVtype_info@@XZ 0041ba10 f i cinder:Params.obj
 0001:0001aa20       ??_G?$_Impl_base1@_NVKeyEvent@app@cinder@@@tr1@std@@UAEPAXI@Z 0041ba20 f i cinder:Params.obj
 0001:0001aa20       ??_E?$_Impl_no_alloc1@U?$_Callable_fun@Q6A_NVKeyEvent@app@cinder@@@Z$0A@@tr1@std@@_NVKeyEvent@app@cinder@@@tr1@std@@UAEPAXI@Z 0041ba20 f i cinder:Params.obj
 0001:0001aa20       ??_E?$_Impl_base1@_NVKeyEvent@app@cinder@@@tr1@std@@UAEPAXI@Z 0041ba20 f i cinder:Params.obj
 0001:0001aa20       ??_G?$_Impl_no_alloc1@U?$_Callable_fun@Q6A_NVKeyEvent@app@cinder@@@Z$0A@@tr1@std@@_NVKeyEvent@app@cinder@@@tr1@std@@UAEPAXI@Z 0041ba20 f i cinder:Params.obj
 0001:0001aa50       ?_Copy@?$_Impl_no_alloc1@U?$_Callable_fun@Q6A_NVKeyEvent@app@cinder@@@Z$0A@@tr1@std@@_NVKeyEvent@app@cinder@@@tr1@std@@UAEPAV?$_Impl_base1@_NVKeyEvent@app@cinder@@@23@PAX@Z 0041ba50 f i cinder:Params.obj
 0001:0001aab0       ?_Target_type@?$_Impl_no_alloc1@U?$_Callable_fun@Q6A_NVResizeEvent@app@cinder@@@Z$0A@@tr1@std@@_NVResizeEvent@app@cinder@@@tr1@std@@UBEABVtype_info@@XZ 0041bab0 f i cinder:Params.obj
 0001:0001aac0       ??_E?$_Impl_base1@_NVResizeEvent@app@cinder@@@tr1@std@@UAEPAXI@Z 0041bac0 f i cinder:Params.obj
 0001:0001aac0       ??_E?$_Impl_no_alloc1@U?$_Callable_fun@Q6A_NVResizeEvent@app@cinder@@@Z$0A@@tr1@std@@_NVResizeEvent@app@cinder@@@tr1@std@@UAEPAXI@Z 0041bac0 f i cinder:Params.obj
 0001:0001aac0       ??_G?$_Impl_base1@_NVResizeEvent@app@cinder@@@tr1@std@@UAEPAXI@Z 0041bac0 f i cinder:Params.obj
 0001:0001aac0       ??_G?$_Impl_no_alloc1@U?$_Callable_fun@Q6A_NVResizeEvent@app@cinder@@@Z$0A@@tr1@std@@_NVResizeEvent@app@cinder@@@tr1@std@@UAEPAXI@Z 0041bac0 f i cinder:Params.obj
 0001:0001aaf0       ?_Get@?$_Impl_no_alloc1@U?$_Callable_fun@Q6A_NVResizeEvent@app@cinder@@@Z$0A@@tr1@std@@_NVResizeEvent@app@cinder@@@tr1@std@@EBEPBXXZ 0041baf0 f i cinder:Params.obj
 0001:0001aaf0       ?_Get@?$_Impl_no_alloc1@U?$_Callable_fun@Q6A_NVKeyEvent@app@cinder@@@Z$0A@@tr1@std@@_NVKeyEvent@app@cinder@@@tr1@std@@EBEPBXXZ 0041baf0 f i cinder:Params.obj
 0001:0001aaf0       ?_Get@?$_Impl_no_alloc1@U?$_Callable_fun@Q6A_NVMouseEvent@app@cinder@@@Z$0A@@tr1@std@@_NVMouseEvent@app@cinder@@@tr1@std@@EBEPBXXZ 0041baf0 f i cinder:Params.obj
 0001:0001ab00       ?_Copy@?$_Impl_no_alloc1@U?$_Callable_fun@Q6A_NVResizeEvent@app@cinder@@@Z$0A@@tr1@std@@_NVResizeEvent@app@cinder@@@tr1@std@@UAEPAV?$_Impl_base1@_NVResizeEvent@app@cinder@@@23@PAX@Z 0041bb00 f i cinder:Params.obj
 0001:0001ab60       ?reserve@?$basic_string@DU?$char_traits@D@std@@V?$allocator@D@2@@std@@QAEXI@Z 0041bb60 f i cinder:Params.obj
 0001:0001aba0       ?insert@?$basic_string@DU?$char_traits@D@std@@V?$allocator@D@2@@std@@QAEAAV12@IABV12@II@Z 0041bba0 f i cinder:Params.obj
 0001:0001ad20       ??$_Resetp@VAntMgr@?A0x041a4b4a@params@cinder@@@?$shared_ptr@VAntMgr@?A0x041a4b4a@params@cinder@@@tr1@std@@AAEXPAVAntMgr@?A0x041a4b4a@params@cinder@@@Z 0041bd20 f i cinder:Params.obj
 0001:0001adc0       ??$_Resetp@UCTwBar@@P6GHPAU1@@Z@?$shared_ptr@UCTwBar@@@tr1@std@@AAEXPAUCTwBar@@P6GH0@Z@Z 0041bdc0 f i cinder:Params.obj
 0001:0001ae60       ?_Do_call@?$_Impl_no_alloc1@U?$_Callable_fun@Q6A_NVMouseEvent@app@cinder@@@Z$0A@@tr1@std@@_NVMouseEvent@app@cinder@@@tr1@std@@UAE_NVMouseEvent@app@cinder@@@Z 0041be60 f i cinder:Params.obj
 0001:0001aee0       ?_Delete_this@?$_Impl_no_alloc1@U?$_Callable_fun@Q6A_NVResizeEvent@app@cinder@@@Z$0A@@tr1@std@@_NVResizeEvent@app@cinder@@@tr1@std@@EAEX_N@Z 0041bee0 f i cinder:Params.obj
 0001:0001aee0       ?_Delete_this@?$_Impl_no_alloc1@U?$_Callable_fun@Q6A_NVMouseEvent@app@cinder@@@Z$0A@@tr1@std@@_NVMouseEvent@app@cinder@@@tr1@std@@EAEX_N@Z 0041bee0 f i cinder:Params.obj
 0001:0001aee0       ?_Delete_this@?$_Impl_no_alloc1@U?$_Callable_fun@Q6A_NVKeyEvent@app@cinder@@@Z$0A@@tr1@std@@_NVKeyEvent@app@cinder@@@tr1@std@@EAEX_N@Z 0041bee0 f i cinder:Params.obj
 0001:0001af10       ?_Do_call@?$_Impl_no_alloc1@U?$_Callable_fun@Q6A_NVKeyEvent@app@cinder@@@Z$0A@@tr1@std@@_NVKeyEvent@app@cinder@@@tr1@std@@UAE_NVKeyEvent@app@cinder@@@Z 0041bf10 f i cinder:Params.obj
 0001:0001af80       ?_Do_call@?$_Impl_no_alloc1@U?$_Callable_fun@Q6A_NVResizeEvent@app@cinder@@@Z$0A@@tr1@std@@_NVResizeEvent@app@cinder@@@tr1@std@@UAE_NVResizeEvent@app@cinder@@@Z 0041bf80 f i cinder:Params.obj
 0001:0001aff0       ??$make_pair@AAIAAV?$function@$$A6A_NVResizeEvent@app@cinder@@@Z@tr1@std@@@std@@YA?AU?$pair@IV?$function@$$A6A_NVResizeEvent@app@cinder@@@Z@tr1@std@@@0@AAIAAV?$function@$$A6A_NVResizeEvent@app@cinder@@@Z@tr1@0@@Z 0041bff0 f i cinder:Params.obj
 0001:0001aff0       ??$make_pair@AAIAAV?$function@$$A6A_NVKeyEvent@app@cinder@@@Z@tr1@std@@@std@@YA?AU?$pair@IV?$function@$$A6A_NVKeyEvent@app@cinder@@@Z@tr1@std@@@0@AAIAAV?$function@$$A6A_NVKeyEvent@app@cinder@@@Z@tr1@0@@Z 0041bff0 f i cinder:Params.obj
 0001:0001aff0       ??$make_pair@AAIAAV?$function@$$A6A_NVMouseEvent@app@cinder@@@Z@tr1@std@@@std@@YA?AU?$pair@IV?$function@$$A6A_NVMouseEvent@app@cinder@@@Z@tr1@std@@@0@AAIAAV?$function@$$A6A_NVMouseEvent@app@cinder@@@Z@tr1@0@@Z 0041bff0 f i cinder:Params.obj
 0001:0001b050       ?construct@?$allocator@U?$pair@IV?$function@$$A6A_NVMouseEvent@app@cinder@@@Z@tr1@std@@@std@@@std@@QAEXPAU?$pair@IV?$function@$$A6A_NVMouseEvent@app@cinder@@@Z@tr1@std@@@2@$$QAU32@@Z 0041c050 f i cinder:Params.obj
 0001:0001b050       ?construct@?$allocator@U?$pair@IV?$function@$$A6A_NVResizeEvent@app@cinder@@@Z@tr1@std@@@std@@@std@@QAEXPAU?$pair@IV?$function@$$A6A_NVResizeEvent@app@cinder@@@Z@tr1@std@@@2@$$QAU32@@Z 0041c050 f i cinder:Params.obj
 0001:0001b050       ?construct@?$allocator@U?$pair@IV?$function@$$A6A_NVKeyEvent@app@cinder@@@Z@tr1@std@@@std@@@std@@QAEXPAU?$pair@IV?$function@$$A6A_NVKeyEvent@app@cinder@@@Z@tr1@std@@@2@$$QAU32@@Z 0041c050 f i cinder:Params.obj
 0001:0001b0f0       ??Y?$basic_string@DU?$char_traits@D@std@@V?$allocator@D@2@@std@@QAEAAV01@PBD@Z 0041c0f0 f i cinder:Params.obj
 0001:0001b120       ??$_Uninit_move@PAU?$pair@IV?$function@$$A6A_NVMouseEvent@app@cinder@@@Z@tr1@std@@@std@@PAU12@V?$allocator@U?$pair@IV?$function@$$A6A_NVMouseEvent@app@cinder@@@Z@tr1@std@@@std@@@2@U12@@std@@YAPAU?$pair@IV?$function@$$A6A_NVMouseEvent@app@cinder@@@Z@tr1@std@@@0@PAU10@00AAV?$allocator@U?$pair@IV?$function@$$A6A_NVMouseEvent@app@cinder@@@Z@tr1@std@@@std@@@0@0U_Nonscalar_ptr_iterator_tag@0@@Z 0041c120 f i cinder:Params.obj
 0001:0001b120       ??$_Uninit_move@PAU?$pair@IV?$function@$$A6A_NVResizeEvent@app@cinder@@@Z@tr1@std@@@std@@PAU12@V?$allocator@U?$pair@IV?$function@$$A6A_NVResizeEvent@app@cinder@@@Z@tr1@std@@@std@@@2@U12@@std@@YAPAU?$pair@IV?$function@$$A6A_NVResizeEvent@app@cinder@@@Z@tr1@std@@@0@PAU10@00AAV?$allocator@U?$pair@IV?$function@$$A6A_NVResizeEvent@app@cinder@@@Z@tr1@std@@@std@@@0@0U_Nonscalar_ptr_iterator_tag@0@@Z 0041c120 f i cinder:Params.obj
 0001:0001b120       ??$_Uninit_move@PAU?$pair@IV?$function@$$A6A_NVKeyEvent@app@cinder@@@Z@tr1@std@@@std@@PAU12@V?$allocator@U?$pair@IV?$function@$$A6A_NVKeyEvent@app@cinder@@@Z@tr1@std@@@std@@@2@U12@@std@@YAPAU?$pair@IV?$function@$$A6A_NVKeyEvent@app@cinder@@@Z@tr1@std@@@0@PAU10@00AAV?$allocator@U?$pair@IV?$function@$$A6A_NVKeyEvent@app@cinder@@@Z@tr1@std@@@std@@@0@0U_Nonscalar_ptr_iterator_tag@0@@Z 0041c120 f i cinder:Params.obj
 0001:0001b210       ?implStdStringToClient@?A0x041a4b4a@params@cinder@@YGXAAV?$basic_string@DU?$char_traits@D@std@@V?$allocator@D@2@@std@@ABV45@@Z 0041c210 f   cinder:Params.obj
 0001:0001b230       ??$?HDU?$char_traits@D@std@@V?$allocator@D@1@@std@@YA?AV?$basic_string@DU?$char_traits@D@std@@V?$allocator@D@2@@0@ABV10@PBD@Z 0041c230 f i cinder:Params.obj
 0001:0001b310       ??$?HDU?$char_traits@D@std@@V?$allocator@D@1@@std@@YA?AV?$basic_string@DU?$char_traits@D@std@@V?$allocator@D@2@@0@PBDABV10@@Z 0041c310 f i cinder:Params.obj
 0001:0001b3e0       ??$?HDU?$char_traits@D@std@@V?$allocator@D@1@@std@@YA?AV?$basic_string@DU?$char_traits@D@std@@V?$allocator@D@2@@0@$$QAV10@ABV10@@Z 0041c3e0 f i cinder:Params.obj
 0001:0001b420       ?addParam@InterfaceGl@params@cinder@@QAEXABV?$basic_string@DU?$char_traits@D@std@@V?$allocator@D@2@@std@@ABV?$vector@V?$basic_string@DU?$char_traits@D@std@@V?$allocator@D@2@@std@@V?$allocator@V?$basic_string@DU?$char_traits@D@std@@V?$allocator@D@2@@std@@@2@@5@PAH0_N@Z 0041c420 f   cinder:Params.obj
 0001:0001b5a0       ?reserve@?$vector@U?$pair@IV?$function@$$A6A_NVResizeEvent@app@cinder@@@Z@tr1@std@@@std@@V?$allocator@U?$pair@IV?$function@$$A6A_NVResizeEvent@app@cinder@@@Z@tr1@std@@@std@@@2@@std@@QAEXI@Z 0041c5a0 f i cinder:Params.obj
 0001:0001b5a0       ?reserve@?$vector@U?$pair@IV?$function@$$A6A_NVKeyEvent@app@cinder@@@Z@tr1@std@@@std@@V?$allocator@U?$pair@IV?$function@$$A6A_NVKeyEvent@app@cinder@@@Z@tr1@std@@@std@@@2@@std@@QAEXI@Z 0041c5a0 f i cinder:Params.obj
 0001:0001b5a0       ?reserve@?$vector@U?$pair@IV?$function@$$A6A_NVMouseEvent@app@cinder@@@Z@tr1@std@@@std@@V?$allocator@U?$pair@IV?$function@$$A6A_NVMouseEvent@app@cinder@@@Z@tr1@std@@@std@@@2@@std@@QAEXI@Z 0041c5a0 f i cinder:Params.obj
 0001:0001b690       ?_Reserve@?$vector@U?$pair@IV?$function@$$A6A_NVKeyEvent@app@cinder@@@Z@tr1@std@@@std@@V?$allocator@U?$pair@IV?$function@$$A6A_NVKeyEvent@app@cinder@@@Z@tr1@std@@@std@@@2@@std@@IAEXI@Z 0041c690 f i cinder:Params.obj
 0001:0001b690       ?_Reserve@?$vector@U?$pair@IV?$function@$$A6A_NVMouseEvent@app@cinder@@@Z@tr1@std@@@std@@V?$allocator@U?$pair@IV?$function@$$A6A_NVMouseEvent@app@cinder@@@Z@tr1@std@@@std@@@2@@std@@IAEXI@Z 0041c690 f i cinder:Params.obj
 0001:0001b690       ?_Reserve@?$vector@U?$pair@IV?$function@$$A6A_NVResizeEvent@app@cinder@@@Z@tr1@std@@@std@@V?$allocator@U?$pair@IV?$function@$$A6A_NVResizeEvent@app@cinder@@@Z@tr1@std@@@std@@@2@@std@@IAEXI@Z 0041c690 f i cinder:Params.obj
 0001:0001b6f0       ?push_back@?$vector@U?$pair@IV?$function@$$A6A_NVMouseEvent@app@cinder@@@Z@tr1@std@@@std@@V?$allocator@U?$pair@IV?$function@$$A6A_NVMouseEvent@app@cinder@@@Z@tr1@std@@@std@@@2@@std@@QAEX$$QAU?$pair@IV?$function@$$A6A_NVMouseEvent@app@cinder@@@Z@tr1@std@@@2@@Z 0041c6f0 f i cinder:Params.obj
 0001:0001b6f0       ?push_back@?$vector@U?$pair@IV?$function@$$A6A_NVKeyEvent@app@cinder@@@Z@tr1@std@@@std@@V?$allocator@U?$pair@IV?$function@$$A6A_NVKeyEvent@app@cinder@@@Z@tr1@std@@@std@@@2@@std@@QAEX$$QAU?$pair@IV?$function@$$A6A_NVKeyEvent@app@cinder@@@Z@tr1@std@@@2@@Z 0041c6f0 f i cinder:Params.obj
 0001:0001b6f0       ?push_back@?$vector@U?$pair@IV?$function@$$A6A_NVResizeEvent@app@cinder@@@Z@tr1@std@@@std@@V?$allocator@U?$pair@IV?$function@$$A6A_NVResizeEvent@app@cinder@@@Z@tr1@std@@@std@@@2@@std@@QAEX$$QAU?$pair@IV?$function@$$A6A_NVResizeEvent@app@cinder@@@Z@tr1@std@@@2@@Z 0041c6f0 f i cinder:Params.obj
 0001:0001b760       ?registerCb@?$CallbackMgr@$$A6A_NVMouseEvent@app@cinder@@@Z@cinder@@QAEIV?$function@$$A6A_NVMouseEvent@app@cinder@@@Z@tr1@std@@@Z 0041c760 f i cinder:Params.obj
 0001:0001b760       ?registerCb@?$CallbackMgr@$$A6A_NVResizeEvent@app@cinder@@@Z@cinder@@QAEIV?$function@$$A6A_NVResizeEvent@app@cinder@@@Z@tr1@std@@@Z 0041c760 f i cinder:Params.obj
 0001:0001b760       ?registerCb@?$CallbackMgr@$$A6A_NVKeyEvent@app@cinder@@@Z@cinder@@QAEIV?$function@$$A6A_NVKeyEvent@app@cinder@@@Z@tr1@std@@@Z 0041c760 f i cinder:Params.obj
 0001:0001b830       ?registerMouseDown@App@app@cinder@@QAEIV?$function@$$A6A_NVMouseEvent@app@cinder@@@Z@tr1@std@@@Z 0041c830 f i cinder:Params.obj
 0001:0001b8d0       ?registerMouseUp@App@app@cinder@@QAEIV?$function@$$A6A_NVMouseEvent@app@cinder@@@Z@tr1@std@@@Z 0041c8d0 f i cinder:Params.obj
 0001:0001b970       ?registerMouseWheel@App@app@cinder@@QAEIV?$function@$$A6A_NVMouseEvent@app@cinder@@@Z@tr1@std@@@Z 0041c970 f i cinder:Params.obj
 0001:0001ba10       ?registerMouseMove@App@app@cinder@@QAEIV?$function@$$A6A_NVMouseEvent@app@cinder@@@Z@tr1@std@@@Z 0041ca10 f i cinder:Params.obj
 0001:0001bab0       ?registerMouseDrag@App@app@cinder@@QAEIV?$function@$$A6A_NVMouseEvent@app@cinder@@@Z@tr1@std@@@Z 0041cab0 f i cinder:Params.obj
 0001:0001bb50       ?registerKeyDown@App@app@cinder@@QAEIV?$function@$$A6A_NVKeyEvent@app@cinder@@@Z@tr1@std@@@Z 0041cb50 f i cinder:Params.obj
 0001:0001bbf0       ?registerResize@App@app@cinder@@QAEIV?$function@$$A6A_NVResizeEvent@app@cinder@@@Z@tr1@std@@@Z 0041cbf0 f i cinder:Params.obj
 0001:0001bc90       ??0AntMgr@?A0x041a4b4a@params@cinder@@QAE@XZ 0041cc90 f i cinder:Params.obj
 0001:0001be80       ?initAntGl@params@cinder@@YAXXZ 0041ce80 f   cinder:Params.obj
 0001:0001bf70       ??0InterfaceGl@params@cinder@@QAE@ABV?$basic_string@DU?$char_traits@D@std@@V?$allocator@D@2@@std@@ABV?$Vec2@H@2@V?$ColorAT@M@2@@Z 0041cf70 f   cinder:Params.obj
 0001:0001c0f0       ?getFilePathHint@DataSource@cinder@@QAEABV?$basic_string@DU?$char_traits@D@std@@V?$allocator@D@2@@std@@XZ 0041d0f0 f   cinder:DataSource.obj
 0001:0001c100       ?_Destroy@?$_Ref_count@VDataSourceBuffer@cinder@@@tr1@std@@EAEXXZ 0041d100 f i cinder:DataSource.obj
 0001:0001c120       ?getBuffer@DataSource@cinder@@QAEAAVBuffer@2@XZ 0041d120 f   cinder:DataSource.obj
 0001:0001c140       ?createStream@DataSourceBuffer@cinder@@UAE?AV?$shared_ptr@VIStream@cinder@@@tr1@std@@XZ 0041d140 f   cinder:DataSource.obj
 0001:0001c1f0       ??$_Resetp@VDataSourceBuffer@cinder@@@?$shared_ptr@VDataSourceBuffer@cinder@@@tr1@std@@AAEXPAVDataSourceBuffer@cinder@@@Z 0041d1f0 f i cinder:DataSource.obj
 0001:0001c290       ??1?$basic_string@DU?$char_traits@D@std@@V?$allocator@D@2@@std@@QAE@XZ 0041d290 f i FireParticle.obj
 0001:0001c290       ??1Url@cinder@@QAE@XZ      0041d290 f i cinder:DataSource.obj
 0001:0001c290       ??1?$pair@$$CBV?$basic_string@DU?$char_traits@D@std@@V?$allocator@D@2@@std@@PBU_GUID@@@std@@QAE@XZ 0041d290 f i cinder:ImageTargetFileWic.obj
 0001:0001c2c0       ??1DataSource@cinder@@MAE@XZ 0041d2c0 f i cinder:DataSource.obj
 0001:0001c360       ??_EDataSource@cinder@@MAEPAXI@Z 0041d360 f i cinder:DataSource.obj
 0001:0001c360       ??_GDataSource@cinder@@MAEPAXI@Z 0041d360 f i cinder:DataSource.obj
 0001:0001c390       ??0StreamExc@cinder@@QAE@ABV01@@Z 0041d390 f i cinder:DataSource.obj
 0001:0001c3b0       ??0DataSource@cinder@@IAE@ABV?$basic_string@DU?$char_traits@D@std@@V?$allocator@D@2@@std@@ABVUrl@1@@Z 0041d3b0 f i cinder:DataSource.obj
 0001:0001c450       ??0DataSourceBuffer@cinder@@IAE@VBuffer@1@@Z 0041d450 f   cinder:DataSource.obj
 0001:0001c5a0       ??_GDataSourceBuffer@cinder@@UAEPAXI@Z 0041d5a0 f i cinder:DataSource.obj
 0001:0001c5a0       ??_EDataSourceBuffer@cinder@@UAEPAXI@Z 0041d5a0 f i cinder:DataSource.obj
 0001:0001c640       ?createRef@DataSourceBuffer@cinder@@SA?AV?$shared_ptr@VDataSourceBuffer@cinder@@@tr1@std@@VBuffer@2@ABV?$basic_string@DU?$char_traits@D@std@@V?$allocator@D@2@@5@@Z 0041d640 f   cinder:DataSource.obj
 0001:0001c720       ??1AppImplMsw@app@cinder@@UAE@XZ 0041d720 f   cinder:AppImplMsw.obj
 0001:0001c730       ?setWindowSize@AppImplMsw@app@cinder@@UAEXHH@Z 0041d730 f i cinder:AppImplMsw.obj
 0001:0001c740       ?setFrameRate@AppImplMsw@app@cinder@@UAEMM@Z 0041d740 f i cinder:AppImplMsw.obj
 0001:0001c750       ?privateSetWindowOffset__@AppImplMsw@app@cinder@@UAEXABV?$Vec2@H@3@@Z 0041d750 f i cinder:AppImplMsw.obj
 0001:0001c770       ??0AppImplMsw@app@cinder@@QAE@PAVApp@12@@Z 0041d770 f   cinder:AppImplMsw.obj
 0001:0001c7c0       ??_EAppImplMsw@app@cinder@@UAEPAXI@Z 0041d7c0 f i cinder:AppImplMsw.obj
 0001:0001c7c0       ??_GAppImplMsw@app@cinder@@UAEPAXI@Z 0041d7c0 f i cinder:AppImplMsw.obj
 0001:0001c7f0       ?mouseLocation@AppImplMsw@app@cinder@@UAE?AV?$Vec2@H@3@XZ 0041d7f0 f   cinder:AppImplMsw.obj
 0001:0001c820       ?loadResource@AppImplMsw@app@cinder@@SA?AVBuffer@3@HABV?$basic_string@DU?$char_traits@D@std@@V?$allocator@D@2@@std@@@Z 0041d820 f   cinder:AppImplMsw.obj
 0001:0001c920       ??0ResourceLoadExc@app@cinder@@QAE@ABV012@@Z 0041d920 f i cinder:AppImplMsw.obj
 0001:0001c960       ?getAppPath@AppImplMsw@app@cinder@@SA?AV?$basic_string@DU?$char_traits@D@std@@V?$allocator@D@2@@std@@XZ 0041d960 f   cinder:AppImplMsw.obj
 0001:0001ca10       _IsEqualGUID               0041da10 f i cinder:ImageSourceFileWic.obj
 0001:0001ca80       ?processFormat@ImageSourceFileWic@cinder@@IAE_NABU_GUID@@PAU3@@Z 0041da80 f   cinder:ImageSourceFileWic.obj
 0001:0001cd60       ?_Delete_this@?$_Ref_count@VImageTargetFileWic@cinder@@@tr1@std@@EAEXXZ 0041dd60 f i cinder:ImageTargetFileWic.obj
 0001:0001cd60       ?_Delete_this@?$_Ref_count@VImageTargetCvMat@cinder@@@tr1@std@@EAEXXZ 0041dd60 f i HaarHandDetector.obj
 0001:0001cd60       ?_Delete_this@?$_Ref_count_del@UIWICBitmapFrameEncode@@P6AXPAX@Z@tr1@std@@EAEXXZ 0041dd60 f i cinder:ImageTargetFileWic.obj
 0001:0001cd60       ?_Delete_this@?$_Ref_count_del@VComOStream@msw@cinder@@P6AXPAX@Z@tr1@std@@EAEXXZ 0041dd60 f i cinder:ImageTargetFileWic.obj
 0001:0001cd60       ?_Delete_this@?$_Ref_count@UObj@?$SurfaceT@E@cinder@@@tr1@std@@EAEXXZ 0041dd60 f i cinder:Surface.obj
 0001:0001cd60       ?_Delete_this@?$_Ref_count@V?$map@V?$basic_string@DU?$char_traits@D@std@@V?$allocator@D@2@@std@@PBU_GUID@@U?$less@V?$basic_string@DU?$char_traits@D@std@@V?$allocator@D@2@@std@@@2@V?$allocator@U?$pair@$$CBV?$basic_string@DU?$char_traits@D@std@@V?$allocator@D@2@@std@@PBU_GUID@@@std@@@2@@std@@@tr1@std@@EAEXXZ 0041dd60 f i cinder:ImageTargetFileWic.obj
 0001:0001cd60       ?_Delete_this@?$_Ref_count_del@UIWICBitmapEncoder@@P6AXPAX@Z@tr1@std@@EAEXXZ 0041dd60 f i cinder:ImageTargetFileWic.obj
 0001:0001cd60       ?_Delete_this@?$_Ref_count_del@EP6AXPAE@Z@tr1@std@@EAEXXZ 0041dd60 f i cinder:Texture.obj
 0001:0001cd60       ?_Delete_this@?$_Ref_count@VAntMgr@?A0x041a4b4a@params@cinder@@@tr1@std@@EAEXXZ 0041dd60 f i cinder:Params.obj
 0001:0001cd60       ?_Delete_this@?$_Ref_count@V?$ImageTargetGLTexture@E@gl@cinder@@@tr1@std@@EAEXXZ 0041dd60 f i cinder:Texture.obj
 0001:0001cd60       ?_Delete_this@?$_Ref_count_del@UtagTOUCHINPUT@@U?$checked_array_deleter@UtagTOUCHINPUT@@@boost@@@tr1@std@@EAEXXZ 0041dd60 f i cinder:AppImplMswBasic.obj
 0001:0001cd60       ?_Delete_this@?$_Ref_count@UInst@ImageIoRegistrar@cinder@@@tr1@std@@EAEXXZ 0041dd60 f i cinder:ImageIo.obj
 0001:0001cd60       ?_Delete_this@?$_Ref_count_del@UIWICStream@@P6AXPAX@Z@tr1@std@@EAEXXZ 0041dd60 f i cinder:ImageSourceFileWic.obj
 0001:0001cd60       ?_Delete_this@?$_Ref_count_del@UIWICBitmapDecoder@@P6AXPAX@Z@tr1@std@@EAEXXZ 0041dd60 f i cinder:ImageSourceFileWic.obj
 0001:0001cd60       ?_Delete_this@?$_Ref_count@VCaptureMgr@cinder@@@tr1@std@@EAEXXZ 0041dd60 f i cinder:CaptureImplDirectShow.obj
 0001:0001cd60       ?_Delete_this@?$_Ref_count@VDataSourceBuffer@cinder@@@tr1@std@@EAEXXZ 0041dd60 f i cinder:DataSource.obj
 0001:0001cd60       ?_Delete_this@?$_Ref_count_del@UIWICFormatConverter@@P6AXPAX@Z@tr1@std@@EAEXXZ 0041dd60 f i cinder:ImageSourceFileWic.obj
 0001:0001cd60       ?_Delete_this@?$_Ref_count@V?$ImageTargetGLTexture@G@gl@cinder@@@tr1@std@@EAEXXZ 0041dd60 f i cinder:Texture.obj
 0001:0001cd60       ?_Delete_this@?$_Ref_count_del@UIWICBitmapFrameDecode@@P6AXPAX@Z@tr1@std@@EAEXXZ 0041dd60 f i cinder:ImageSourceFileWic.obj
 0001:0001cd60       ?_Delete_this@?$_Ref_count@VSurfaceCache@cinder@@@tr1@std@@EAEXXZ 0041dd60 f i cinder:CaptureImplDirectShow.obj
 0001:0001cd60       ?_Delete_this@?$_Ref_count_del@EU?$checked_array_deleter@E@boost@@@tr1@std@@EAEXXZ 0041dd60 f i cinder:Texture.obj
 0001:0001cd60       ?_Delete_this@?$_Ref_count@VDisplay@cinder@@@tr1@std@@EAEXXZ 0041dd60 f i cinder:Display.obj
 0001:0001cd60       ?_Delete_this@?$_Ref_count@VImageSourceFileWic@cinder@@@tr1@std@@EAEXXZ 0041dd60 f i cinder:ImageSourceFileWic.obj
 0001:0001cd60       ?_Delete_this@?$_Ref_count_del@UIWICImagingFactory@@P6AXPAX@Z@tr1@std@@EAEXXZ 0041dd60 f i cinder:ImageSourceFileWic.obj
 0001:0001cd60       ?_Delete_this@?$_Ref_count_del@UCTwBar@@P6GHPAU1@@Z@tr1@std@@EAEXXZ 0041dd60 f i cinder:Params.obj
 0001:0001cd60       ?_Delete_this@?$_Ref_count@UObj@Capture@cinder@@@tr1@std@@EAEXXZ 0041dd60 f i cinder:Capture.obj
 0001:0001cd60       ?_Delete_this@?$_Ref_count@UObj@Texture@gl@cinder@@@tr1@std@@EAEXXZ 0041dd60 f i cinder:Texture.obj
 0001:0001cd60       ?_Delete_this@?$_Ref_count@VRenderer@app@cinder@@@tr1@std@@EAEXXZ 0041dd60 f i cinder:App.obj
 0001:0001cd60       ?_Delete_this@?$_Ref_count@UObj@Buffer@cinder@@@tr1@std@@EAEXXZ 0041dd60 f i cinder:Buffer.obj
 0001:0001cd60       ?_Delete_this@?$_Ref_count@VImageSourceSurface@cinder@@@tr1@std@@EAEXXZ 0041dd60 f i cinder:Surface.obj
 0001:0001cd60       ?_Delete_this@?$_Ref_count@V?$ImageTargetGLTexture@M@gl@cinder@@@tr1@std@@EAEXXZ 0041dd60 f i cinder:Texture.obj
 0001:0001cd60       ?_Delete_this@?$_Ref_count@VIStreamMem@cinder@@@tr1@std@@EAEXXZ 0041dd60 f i cinder:Stream.obj
 0001:0001cd60       ?_Delete_this@?$_Ref_count@UObj@?$ChannelT@E@cinder@@@tr1@std@@EAEXXZ 0041dd60 f i cinder:Channel.obj
 0001:0001cd70       ?_Destroy@?$_Ref_count_del@UIWICImagingFactory@@P6AXPAX@Z@tr1@std@@EAEXXZ 0041dd70 f i cinder:ImageSourceFileWic.obj
 0001:0001cd70       ?_Destroy@?$_Ref_count_del@UIWICBitmapFrameEncode@@P6AXPAX@Z@tr1@std@@EAEXXZ 0041dd70 f i cinder:ImageTargetFileWic.obj
 0001:0001cd70       ?_Destroy@?$_Ref_count_del@VComOStream@msw@cinder@@P6AXPAX@Z@tr1@std@@EAEXXZ 0041dd70 f i cinder:ImageTargetFileWic.obj
 0001:0001cd70       ?_Destroy@?$_Ref_count_del@UIWICBitmapFrameDecode@@P6AXPAX@Z@tr1@std@@EAEXXZ 0041dd70 f i cinder:ImageSourceFileWic.obj
 0001:0001cd70       ?_Destroy@?$_Ref_count_del@EP6AXPAE@Z@tr1@std@@EAEXXZ 0041dd70 f i cinder:Texture.obj
 0001:0001cd70       ?_Destroy@?$_Ref_count_del@UIWICFormatConverter@@P6AXPAX@Z@tr1@std@@EAEXXZ 0041dd70 f i cinder:ImageSourceFileWic.obj
 0001:0001cd70       ?_Destroy@?$_Ref_count_del@UIWICStream@@P6AXPAX@Z@tr1@std@@EAEXXZ 0041dd70 f i cinder:ImageSourceFileWic.obj
 0001:0001cd70       ?_Destroy@?$_Ref_count_del@UIWICBitmapDecoder@@P6AXPAX@Z@tr1@std@@EAEXXZ 0041dd70 f i cinder:ImageSourceFileWic.obj
 0001:0001cd70       ?_Destroy@?$_Ref_count_del@UIWICBitmapEncoder@@P6AXPAX@Z@tr1@std@@EAEXXZ 0041dd70 f i cinder:ImageTargetFileWic.obj
 0001:0001cd80       ??$_Resetp@VImageSourceFileWic@cinder@@@?$shared_ptr@VImageSourceFileWic@cinder@@@tr1@std@@AAEXPAVImageSourceFileWic@cinder@@@Z 0041dd80 f i cinder:ImageSourceFileWic.obj
 0001:0001ce20       ??$_Resetp@UIWICImagingFactory@@P6AXPAX@Z@?$shared_ptr@UIWICImagingFactory@@@tr1@std@@AAEXPAUIWICImagingFactory@@P6AXPAX@Z@Z 0041de20 f i cinder:ImageSourceFileWic.obj
 0001:0001cec0       ??$_Resetp@UIWICStream@@P6AXPAX@Z@?$shared_ptr@UIWICStream@@@tr1@std@@AAEXPAUIWICStream@@P6AXPAX@Z@Z 0041dec0 f i cinder:ImageSourceFileWic.obj
 0001:0001cf60       ??$_Resetp@UIWICBitmapDecoder@@P6AXPAX@Z@?$shared_ptr@UIWICBitmapDecoder@@@tr1@std@@AAEXPAUIWICBitmapDecoder@@P6AXPAX@Z@Z 0041df60 f i cinder:ImageSourceFileWic.obj
 0001:0001d000       ??$_Resetp@UIWICBitmapFrameDecode@@P6AXPAX@Z@?$shared_ptr@UIWICBitmapFrameDecode@@@tr1@std@@AAEXPAUIWICBitmapFrameDecode@@P6AXPAX@Z@Z 0041e000 f i cinder:ImageSourceFileWic.obj
 0001:0001d0a0       ??$_Resetp@UIWICFormatConverter@@P6AXPAX@Z@?$shared_ptr@UIWICFormatConverter@@@tr1@std@@AAEXPAUIWICFormatConverter@@P6AXPAX@Z@Z 0041e0a0 f i cinder:ImageSourceFileWic.obj
 0001:0001d140       ?load@ImageSourceFileWic@cinder@@UAEXV?$shared_ptr@VImageTarget@cinder@@@tr1@std@@@Z 0041e140 f   cinder:ImageSourceFileWic.obj
 0001:0001d260       ??$makeComShared@UIWICImagingFactory@@@msw@cinder@@YA?AV?$shared_ptr@UIWICImagingFactory@@@tr1@std@@PAUIWICImagingFactory@@@Z 0041e260 f i cinder:ImageSourceFileWic.obj
 0001:0001d290       ??$makeComShared@UIWICStream@@@msw@cinder@@YA?AV?$shared_ptr@UIWICStream@@@tr1@std@@PAUIWICStream@@@Z 0041e290 f i cinder:ImageSourceFileWic.obj
 0001:0001d2c0       ??$makeComShared@UIWICBitmapDecoder@@@msw@cinder@@YA?AV?$shared_ptr@UIWICBitmapDecoder@@@tr1@std@@PAUIWICBitmapDecoder@@@Z 0041e2c0 f i cinder:ImageSourceFileWic.obj
 0001:0001d2f0       ??$makeComShared@UIWICBitmapFrameDecode@@@msw@cinder@@YA?AV?$shared_ptr@UIWICBitmapFrameDecode@@@tr1@std@@PAUIWICBitmapFrameDecode@@@Z 0041e2f0 f i cinder:ImageSourceFileWic.obj
 0001:0001d320       ??$makeComShared@UIWICFormatConverter@@@msw@cinder@@YA?AV?$shared_ptr@UIWICFormatConverter@@@tr1@std@@PAUIWICFormatConverter@@@Z 0041e320 f i cinder:ImageSourceFileWic.obj
 0001:0001d350       ??0ImageSourceFileWic@cinder@@IAE@V?$shared_ptr@VDataSource@cinder@@@tr1@std@@VOptions@ImageSource@1@@Z 0041e350 f   cinder:ImageSourceFileWic.obj
 0001:0001d7e0       ??_GImageSourceFileWic@cinder@@UAEPAXI@Z 0041e7e0 f i cinder:ImageSourceFileWic.obj
 0001:0001d7e0       ??_EImageSourceFileWic@cinder@@UAEPAXI@Z 0041e7e0 f i cinder:ImageSourceFileWic.obj
 0001:0001d870       ?createFileWicRef@ImageSourceFileWic@cinder@@SA?AV?$shared_ptr@VImageSourceFileWic@cinder@@@tr1@std@@V?$shared_ptr@VDataSource@cinder@@@45@VOptions@ImageSource@2@@Z 0041e870 f   cinder:ImageSourceFileWic.obj
 0001:0001d940       ?createRef@ImageSourceFileWic@cinder@@SA?AV?$shared_ptr@VImageSource@cinder@@@tr1@std@@V?$shared_ptr@VDataSource@cinder@@@45@VOptions@ImageSource@2@@Z 0041e940 f i cinder:ImageSourceFileWic.obj
 0001:0001da30       ?registerSelf@ImageSourceFileWic@cinder@@SAXXZ 0041ea30 f   cinder:ImageSourceFileWic.obj
 0001:0001da40       ?_Max@?$_Tree_val@V?$_Tmap_traits@V?$basic_string@DU?$char_traits@D@std@@V?$allocator@D@2@@std@@PBU_GUID@@U?$less@V?$basic_string@DU?$char_traits@D@std@@V?$allocator@D@2@@std@@@2@V?$allocator@U?$pair@$$CBV?$basic_string@DU?$char_traits@D@std@@V?$allocator@D@2@@std@@PBU_GUID@@@std@@@2@$0A@@std@@@std@@SAPAU_Node@?$_Tree_nod@V?$_Tmap_traits@V?$basic_string@DU?$char_traits@D@std@@V?$allocator@D@2@@std@@PBU_GUID@@U?$less@V?$basic_string@DU?$char_traits@D@std@@V?$allocator@D@2@@std@@@2@V?$allocator@U?$pair@$$CBV?$basic_string@DU?$char_traits@D@std@@V?$allocator@D@2@@std@@PBU_GUID@@@std@@@2@$0A@@std@@@2@PAU342@@Z 0041ea40 f i cinder:ImageTargetFileWic.obj
 0001:0001da40       ?_Max@?$_Tree_val@V?$_Tmap_traits@IV?$basic_string@DU?$char_traits@D@std@@V?$allocator@D@2@@std@@U?$less@I@2@V?$allocator@U?$pair@$$CBIV?$basic_string@DU?$char_traits@D@std@@V?$allocator@D@2@@std@@@std@@@2@$0A@@std@@@std@@SAPAU_Node@?$_Tree_nod@V?$_Tmap_traits@IV?$basic_string@DU?$char_traits@D@std@@V?$allocator@D@2@@std@@U?$less@I@2@V?$allocator@U?$pair@$$CBIV?$basic_string@DU?$char_traits@D@std@@V?$allocator@D@2@@std@@@std@@@2@$0A@@std@@@2@PAU342@@Z 0041ea40 f i cinder:TwMgr.obj
 0001:0001da60       ?_Min@?$_Tree_val@V?$_Tmap_traits@V?$basic_string@DU?$char_traits@D@std@@V?$allocator@D@2@@std@@PBU_GUID@@U?$less@V?$basic_string@DU?$char_traits@D@std@@V?$allocator@D@2@@std@@@2@V?$allocator@U?$pair@$$CBV?$basic_string@DU?$char_traits@D@std@@V?$allocator@D@2@@std@@PBU_GUID@@@std@@@2@$0A@@std@@@std@@SAPAU_Node@?$_Tree_nod@V?$_Tmap_traits@V?$basic_string@DU?$char_traits@D@std@@V?$allocator@D@2@@std@@PBU_GUID@@U?$less@V?$basic_string@DU?$char_traits@D@std@@V?$allocator@D@2@@std@@@2@V?$allocator@U?$pair@$$CBV?$basic_string@DU?$char_traits@D@std@@V?$allocator@D@2@@std@@PBU_GUID@@@std@@@2@$0A@@std@@@2@PAU342@@Z 0041ea60 f i cinder:ImageTargetFileWic.obj
 0001:0001da60       ?_Min@?$_Tree_val@V?$_Tmap_traits@IV?$basic_string@DU?$char_traits@D@std@@V?$allocator@D@2@@std@@U?$less@I@2@V?$allocator@U?$pair@$$CBIV?$basic_string@DU?$char_traits@D@std@@V?$allocator@D@2@@std@@@std@@@2@$0A@@std@@@std@@SAPAU_Node@?$_Tree_nod@V?$_Tmap_traits@IV?$basic_string@DU?$char_traits@D@std@@V?$allocator@D@2@@std@@U?$less@I@2@V?$allocator@U?$pair@$$CBIV?$basic_string@DU?$char_traits@D@std@@V?$allocator@D@2@@std@@@std@@@2@$0A@@std@@@2@PAU342@@Z 0041ea60 f i cinder:TwMgr.obj
 0001:0001da80       ??E?$_Tree_unchecked_const_iterator@V?$_Tree_val@V?$_Tmap_traits@V?$basic_string@DU?$char_traits@D@std@@V?$allocator@D@2@@std@@PBU_GUID@@U?$less@V?$basic_string@DU?$char_traits@D@std@@V?$allocator@D@2@@std@@@2@V?$allocator@U?$pair@$$CBV?$basic_string@DU?$char_traits@D@std@@V?$allocator@D@2@@std@@PBU_GUID@@@std@@@2@$0A@@std@@@std@@U_Iterator_base0@2@@std@@QAEAAV01@XZ 0041ea80 f i cinder:ImageTargetFileWic.obj
 0001:0001da80       ??E?$_Tree_unchecked_const_iterator@V?$_Tree_val@V?$_Tmap_traits@IV?$basic_string@DU?$char_traits@D@std@@V?$allocator@D@2@@std@@U?$less@I@2@V?$allocator@U?$pair@$$CBIV?$basic_string@DU?$char_traits@D@std@@V?$allocator@D@2@@std@@@std@@@2@$0A@@std@@@std@@U_Iterator_base0@2@@std@@QAEAAV01@XZ 0041ea80 f i cinder:TwMgr.obj
 0001:0001dad0       ??F?$_Tree_unchecked_const_iterator@V?$_Tree_val@V?$_Tmap_traits@IV?$basic_string@DU?$char_traits@D@std@@V?$allocator@D@2@@std@@U?$less@I@2@V?$allocator@U?$pair@$$CBIV?$basic_string@DU?$char_traits@D@std@@V?$allocator@D@2@@std@@@std@@@2@$0A@@std@@@std@@U_Iterator_base0@2@@std@@QAEAAV01@XZ 0041ead0 f i cinder:TwMgr.obj
 0001:0001dad0       ??F?$_Tree_unchecked_const_iterator@V?$_Tree_val@V?$_Tmap_traits@V?$basic_string@DU?$char_traits@D@std@@V?$allocator@D@2@@std@@PBU_GUID@@U?$less@V?$basic_string@DU?$char_traits@D@std@@V?$allocator@D@2@@std@@@2@V?$allocator@U?$pair@$$CBV?$basic_string@DU?$char_traits@D@std@@V?$allocator@D@2@@std@@PBU_GUID@@@std@@@2@$0A@@std@@@std@@U_Iterator_base0@2@@std@@QAEAAV01@XZ 0041ead0 f i cinder:ImageTargetFileWic.obj
 0001:0001db30       ?_Get_deleter@?$_Ref_count_del@UIWICFormatConverter@@P6AXPAX@Z@tr1@std@@UBEPAXABVtype_info@@@Z 0041eb30 f i cinder:ImageSourceFileWic.obj
 0001:0001db30       ?_Get_deleter@?$_Ref_count_del@UIWICBitmapFrameDecode@@P6AXPAX@Z@tr1@std@@UBEPAXABVtype_info@@@Z 0041eb30 f i cinder:ImageSourceFileWic.obj
 0001:0001db30       ?_Get_deleter@?$_Ref_count_del@UIWICStream@@P6AXPAX@Z@tr1@std@@UBEPAXABVtype_info@@@Z 0041eb30 f i cinder:ImageSourceFileWic.obj
 0001:0001db30       ?_Get_deleter@?$_Ref_count_del@UIWICBitmapEncoder@@P6AXPAX@Z@tr1@std@@UBEPAXABVtype_info@@@Z 0041eb30 f i cinder:ImageTargetFileWic.obj
 0001:0001db30       ?_Get_deleter@?$_Ref_count_del@UIWICImagingFactory@@P6AXPAX@Z@tr1@std@@UBEPAXABVtype_info@@@Z 0041eb30 f i cinder:ImageSourceFileWic.obj
 0001:0001db30       ?_Get_deleter@?$_Ref_count_del@UIWICBitmapFrameEncode@@P6AXPAX@Z@tr1@std@@UBEPAXABVtype_info@@@Z 0041eb30 f i cinder:ImageTargetFileWic.obj
 0001:0001db30       ?_Get_deleter@?$_Ref_count_del@UIWICBitmapDecoder@@P6AXPAX@Z@tr1@std@@UBEPAXABVtype_info@@@Z 0041eb30 f i cinder:ImageSourceFileWic.obj
 0001:0001db30       ?_Get_deleter@?$_Ref_count_del@VComOStream@msw@cinder@@P6AXPAX@Z@tr1@std@@UBEPAXABVtype_info@@@Z 0041eb30 f i cinder:ImageTargetFileWic.obj
 0001:0001db60       ?setupPixelFormat@ImageTargetFileWic@cinder@@IAEXABU_GUID@@@Z 0041eb60 f   cinder:ImageTargetFileWic.obj
 0001:0001ddb0       ?_Rrotate@?$_Tree@V?$_Tmap_traits@V?$basic_string@DU?$char_traits@D@std@@V?$allocator@D@2@@std@@PBU_GUID@@U?$less@V?$basic_string@DU?$char_traits@D@std@@V?$allocator@D@2@@std@@@2@V?$allocator@U?$pair@$$CBV?$basic_string@DU?$char_traits@D@std@@V?$allocator@D@2@@std@@PBU_GUID@@@std@@@2@$0A@@std@@@std@@IAEXPAU_Node@?$_Tree_nod@V?$_Tmap_traits@V?$basic_string@DU?$char_traits@D@std@@V?$allocator@D@2@@std@@PBU_GUID@@U?$less@V?$basic_string@DU?$char_traits@D@std@@V?$allocator@D@2@@std@@@2@V?$allocator@U?$pair@$$CBV?$basic_string@DU?$char_traits@D@std@@V?$allocator@D@2@@std@@PBU_GUID@@@std@@@2@$0A@@std@@@2@@Z 0041edb0 f i cinder:ImageTargetFileWic.obj
 0001:0001ddb0       ?_Rrotate@?$_Tree@V?$_Tmap_traits@IV?$basic_string@DU?$char_traits@D@std@@V?$allocator@D@2@@std@@U?$less@I@2@V?$allocator@U?$pair@$$CBIV?$basic_string@DU?$char_traits@D@std@@V?$allocator@D@2@@std@@@std@@@2@$0A@@std@@@std@@IAEXPAU_Node@?$_Tree_nod@V?$_Tmap_traits@IV?$basic_string@DU?$char_traits@D@std@@V?$allocator@D@2@@std@@U?$less@I@2@V?$allocator@U?$pair@$$CBIV?$basic_string@DU?$char_traits@D@std@@V?$allocator@D@2@@std@@@std@@@2@$0A@@std@@@2@@Z 0041edb0 f i cinder:TwMgr.obj
 0001:0001de10       ?getRowPointer@ImageTargetFileWic@cinder@@UAEPAXH@Z 0041ee10 f   cinder:ImageTargetFileWic.obj
 0001:0001de30       ?finalize@ImageTargetFileWic@cinder@@UAEXXZ 0041ee30 f   cinder:ImageTargetFileWic.obj
 0001:0001dee0       ?_Lbound@?$_Tree@V?$_Tmap_traits@V?$basic_string@DU?$char_traits@D@std@@V?$allocator@D@2@@std@@PBU_GUID@@U?$less@V?$basic_string@DU?$char_traits@D@std@@V?$allocator@D@2@@std@@@2@V?$allocator@U?$pair@$$CBV?$basic_string@DU?$char_traits@D@std@@V?$allocator@D@2@@std@@PBU_GUID@@@std@@@2@$0A@@std@@@std@@IAEPAU_Node@?$_Tree_nod@V?$_Tmap_traits@V?$basic_string@DU?$char_traits@D@std@@V?$allocator@D@2@@std@@PBU_GUID@@U?$less@V?$basic_string@DU?$char_traits@D@std@@V?$allocator@D@2@@std@@@2@V?$allocator@U?$pair@$$CBV?$basic_string@DU?$char_traits@D@std@@V?$allocator@D@2@@std@@PBU_GUID@@@std@@@2@$0A@@std@@@2@ABV?$basic_string@DU?$char_traits@D@std@@V?$allocator@D@2@@2@@Z 0041eee0 f i cinder:ImageTargetFileWic.obj
 0001:0001df70       ??$_Resetp@VImageTargetFileWic@cinder@@@?$shared_ptr@VImageTarget@cinder@@@tr1@std@@AAEXPAVImageTargetFileWic@cinder@@@Z 0041ef70 f i cinder:ImageTargetFileWic.obj
 0001:0001e010       ??$_Resetp@UIWICBitmapEncoder@@P6AXPAX@Z@?$shared_ptr@UIWICBitmapEncoder@@@tr1@std@@AAEXPAUIWICBitmapEncoder@@P6AXPAX@Z@Z 0041f010 f i cinder:ImageTargetFileWic.obj
 0001:0001e0b0       ??$_Resetp@VComOStream@msw@cinder@@P6AXPAX@Z@?$shared_ptr@VComOStream@msw@cinder@@@tr1@std@@AAEXPAVComOStream@msw@cinder@@P6AXPAX@Z@Z 0041f0b0 f i cinder:ImageTargetFileWic.obj
 0001:0001e150       ??$_Resetp@UIWICBitmapFrameEncode@@P6AXPAX@Z@?$shared_ptr@UIWICBitmapFrameEncode@@@tr1@std@@AAEXPAUIWICBitmapFrameEncode@@P6AXPAX@Z@Z 0041f150 f i cinder:ImageTargetFileWic.obj
 0001:0001e1f0       ??0ComOStream@msw@cinder@@QAE@V?$shared_ptr@VOStream@cinder@@@tr1@std@@@Z 0041f1f0 f i cinder:ImageTargetFileWic.obj
 0001:0001e290       ?Read@ComOStream@msw@cinder@@UAGJPAXKPAK@Z 0041f290 f i cinder:ImageTargetFileWic.obj
 0001:0001e2a0       ?SetSize@ComOStream@msw@cinder@@UAGJT_ULARGE_INTEGER@@@Z 0041f2a0 f i cinder:ImageTargetFileWic.obj
 0001:0001e2a0       ?Stat@ComOStream@msw@cinder@@UAGJPAUtagSTATSTG@@K@Z 0041f2a0 f i cinder:ImageTargetFileWic.obj
 0001:0001e2b0       ?LockRegion@ComOStream@msw@cinder@@UAGJT_ULARGE_INTEGER@@0K@Z 0041f2b0 f i cinder:ImageTargetFileWic.obj
 0001:0001e2b0       ?UnlockRegion@ComOStream@msw@cinder@@UAGJT_ULARGE_INTEGER@@0K@Z 0041f2b0 f i cinder:ImageTargetFileWic.obj
 0001:0001e2b0       ?CopyTo@ComOStream@msw@cinder@@UAGJPAUIStream@@T_ULARGE_INTEGER@@PAT5@2@Z 0041f2b0 f i cinder:ImageTargetFileWic.obj
 0001:0001e2c0       ?Revert@ComOStream@msw@cinder@@UAGJXZ 0041f2c0 f i cinder:ImageTargetFileWic.obj
 0001:0001e2d0       ?Clone@ComOStream@msw@cinder@@UAGJPAPAUIStream@@@Z 0041f2d0 f i cinder:ImageTargetFileWic.obj
 0001:0001e2d0       ?Commit@ComOStream@msw@cinder@@UAGJK@Z 0041f2d0 f i cinder:ImageTargetFileWic.obj
 0001:0001e2e0       ??4?$shared_ptr@UInst@ImageIoRegistrar@cinder@@@tr1@std@@QAEAAV012@$$QAV012@@Z 0041f2e0 f i cinder:ImageIo.obj
 0001:0001e2e0       ??4?$shared_ptr@VSurfaceCache@cinder@@@tr1@std@@QAEAAV012@$$QAV012@@Z 0041f2e0 f i cinder:CaptureImplDirectShow.obj
 0001:0001e2e0       ??4?$shared_ptr@UIWICBitmapEncoder@@@tr1@std@@QAEAAV012@$$QAV012@@Z 0041f2e0 f i cinder:ImageTargetFileWic.obj
 0001:0001e2e0       ??4?$shared_ptr@E@tr1@std@@QAEAAV012@$$QAV012@@Z 0041f2e0 f i cinder:Texture.obj
 0001:0001e2e0       ??4?$shared_ptr@V?$map@V?$basic_string@DU?$char_traits@D@std@@V?$allocator@D@2@@std@@PBU_GUID@@U?$less@V?$basic_string@DU?$char_traits@D@std@@V?$allocator@D@2@@std@@@2@V?$allocator@U?$pair@$$CBV?$basic_string@DU?$char_traits@D@std@@V?$allocator@D@2@@std@@PBU_GUID@@@std@@@2@@std@@@tr1@std@@QAEAAV012@$$QAV012@@Z 0041f2e0 f i cinder:ImageTargetFileWic.obj
 0001:0001e2e0       ??4?$shared_ptr@VAntMgr@?A0x041a4b4a@params@cinder@@@tr1@std@@QAEAAV012@$$QAV012@@Z 0041f2e0 f i cinder:Params.obj
 0001:0001e2e0       ??4?$shared_ptr@UIWICBitmapFrameEncode@@@tr1@std@@QAEAAV012@$$QAV012@@Z 0041f2e0 f i cinder:ImageTargetFileWic.obj
 0001:0001e2e0       ??4?$shared_ptr@VCaptureMgr@cinder@@@tr1@std@@QAEAAV012@$$QAV012@@Z 0041f2e0 f i cinder:CaptureImplDirectShow.obj
 0001:0001e350       ??$makeComShared@UIWICBitmapEncoder@@@msw@cinder@@YA?AV?$shared_ptr@UIWICBitmapEncoder@@@tr1@std@@PAUIWICBitmapEncoder@@@Z 0041f350 f i cinder:ImageTargetFileWic.obj
 0001:0001e380       ??$makeComShared@VComOStream@msw@cinder@@@msw@cinder@@YA?AV?$shared_ptr@VComOStream@msw@cinder@@@tr1@std@@PAVComOStream@01@@Z 0041f380 f i cinder:ImageTargetFileWic.obj
 0001:0001e3b0       ??$makeComShared@UIWICBitmapFrameEncode@@@msw@cinder@@YA?AV?$shared_ptr@UIWICBitmapFrameEncode@@@tr1@std@@PAUIWICBitmapFrameEncode@@@Z 0041f3b0 f i cinder:ImageTargetFileWic.obj
 0001:0001e3e0       ?_Insert@?$_Tree@V?$_Tmap_traits@V?$basic_string@DU?$char_traits@D@std@@V?$allocator@D@2@@std@@PBU_GUID@@U?$less@V?$basic_string@DU?$char_traits@D@std@@V?$allocator@D@2@@std@@@2@V?$allocator@U?$pair@$$CBV?$basic_string@DU?$char_traits@D@std@@V?$allocator@D@2@@std@@PBU_GUID@@@std@@@2@$0A@@std@@@std@@IAE?AV?$_Tree_iterator@V?$_Tree_val@V?$_Tmap_traits@V?$basic_string@DU?$char_traits@D@std@@V?$allocator@D@2@@std@@PBU_GUID@@U?$less@V?$basic_string@DU?$char_traits@D@std@@V?$allocator@D@2@@std@@@2@V?$allocator@U?$pair@$$CBV?$basic_string@DU?$char_traits@D@std@@V?$allocator@D@2@@std@@PBU_GUID@@@std@@@2@$0A@@std@@@std@@@2@_NPAU_Node@?$_Tree_nod@V?$_Tmap_traits@V?$basic_string@DU?$char_traits@D@std@@V?$allocator@D@2@@std@@PBU_GUID@@U?$less@V?$basic_string@DU?$char_traits@D@std@@V?$allocator@D@2@@std@@@2@V?$allocator@U?$pair@$$CBV?$basic_string@DU?$char_traits@D@std@@V?$allocator@D@2@@std@@PBU_GUID@@@std@@@2@$0A@@std@@@2@1@Z 0041f3e0 f i cinder:ImageTargetFileWic.obj
 0001:0001e630       ?erase@?$_Tree@V?$_Tmap_traits@V?$basic_string@DU?$char_traits@D@std@@V?$allocator@D@2@@std@@PBU_GUID@@U?$less@V?$basic_string@DU?$char_traits@D@std@@V?$allocator@D@2@@std@@@2@V?$allocator@U?$pair@$$CBV?$basic_string@DU?$char_traits@D@std@@V?$allocator@D@2@@std@@PBU_GUID@@@std@@@2@$0A@@std@@@std@@QAE?AV?$_Tree_iterator@V?$_Tree_val@V?$_Tmap_traits@V?$basic_string@DU?$char_traits@D@std@@V?$allocator@D@2@@std@@PBU_GUID@@U?$less@V?$basic_string@DU?$char_traits@D@std@@V?$allocator@D@2@@std@@@2@V?$allocator@U?$pair@$$CBV?$basic_string@DU?$char_traits@D@std@@V?$allocator@D@2@@std@@PBU_GUID@@@std@@@2@$0A@@std@@@std@@@2@V?$_Tree_const_iterator@V?$_Tree_val@V?$_Tmap_traits@V?$basic_string@DU?$char_traits@D@std@@V?$allocator@D@2@@std@@PBU_GUID@@U?$less@V?$basic_string@DU?$char_traits@D@std@@V?$allocator@D@2@@std@@@2@V?$allocator@U?$pair@$$CBV?$basic_string@DU?$char_traits@D@std@@V?$allocator@D@2@@std@@PBU_GUID@@@std@@@2@$0A@@std@@@std@@@2@@Z 0041f630 f i cinder:ImageTargetFileWic.obj
 0001:0001e8b0       ?_Erase@?$_Tree@V?$_Tmap_traits@V?$basic_string@DU?$char_traits@D@std@@V?$allocator@D@2@@std@@PBU_GUID@@U?$less@V?$basic_string@DU?$char_traits@D@std@@V?$allocator@D@2@@std@@@2@V?$allocator@U?$pair@$$CBV?$basic_string@DU?$char_traits@D@std@@V?$allocator@D@2@@std@@PBU_GUID@@@std@@@2@$0A@@std@@@std@@IAEXPAU_Node@?$_Tree_nod@V?$_Tmap_traits@V?$basic_string@DU?$char_traits@D@std@@V?$allocator@D@2@@std@@PBU_GUID@@U?$less@V?$basic_string@DU?$char_traits@D@std@@V?$allocator@D@2@@std@@@2@V?$allocator@U?$pair@$$CBV?$basic_string@DU?$char_traits@D@std@@V?$allocator@D@2@@std@@PBU_GUID@@@std@@@2@$0A@@std@@@2@@Z 0041f8b0 f i cinder:ImageTargetFileWic.obj
 0001:0001e8b0       ?_Erase@?$_Tree@V?$_Tmap_traits@V?$basic_string@DU?$char_traits@D@std@@V?$allocator@D@2@@std@@PAVParticleEmitter@@U?$less@V?$basic_string@DU?$char_traits@D@std@@V?$allocator@D@2@@std@@@2@V?$allocator@U?$pair@$$CBV?$basic_string@DU?$char_traits@D@std@@V?$allocator@D@2@@std@@PAVParticleEmitter@@@std@@@2@$0A@@std@@@std@@IAEXPAU_Node@?$_Tree_nod@V?$_Tmap_traits@V?$basic_string@DU?$char_traits@D@std@@V?$allocator@D@2@@std@@PAVParticleEmitter@@U?$less@V?$basic_string@DU?$char_traits@D@std@@V?$allocator@D@2@@std@@@2@V?$allocator@U?$pair@$$CBV?$basic_string@DU?$char_traits@D@std@@V?$allocator@D@2@@std@@PAVParticleEmitter@@@std@@@2@$0A@@std@@@2@@Z 0041f8b0 f i ParticleEngine.obj
 0001:0001e910       ?_Linsert@?$_Tree@V?$_Tmap_traits@V?$basic_string@DU?$char_traits@D@std@@V?$allocator@D@2@@std@@PBU_GUID@@U?$less@V?$basic_string@DU?$char_traits@D@std@@V?$allocator@D@2@@std@@@2@V?$allocator@U?$pair@$$CBV?$basic_string@DU?$char_traits@D@std@@V?$allocator@D@2@@std@@PBU_GUID@@@std@@@2@$0A@@std@@@std@@QAE?AU?$pair@V?$_Tree_iterator@V?$_Tree_val@V?$_Tmap_traits@V?$basic_string@DU?$char_traits@D@std@@V?$allocator@D@2@@std@@PBU_GUID@@U?$less@V?$basic_string@DU?$char_traits@D@std@@V?$allocator@D@2@@std@@@2@V?$allocator@U?$pair@$$CBV?$basic_string@DU?$char_traits@D@std@@V?$allocator@D@2@@std@@PBU_GUID@@@std@@@2@$0A@@std@@@std@@@std@@_N@2@PAU_Node@?$_Tree_nod@V?$_Tmap_traits@V?$basic_string@DU?$char_traits@D@std@@V?$allocator@D@2@@std@@PBU_GUID@@U?$less@V?$basic_string@DU?$char_traits@D@std@@V?$allocator@D@2@@std@@@2@V?$allocator@U?$pair@$$CBV?$basic_string@DU?$char_traits@D@std@@V?$allocator@D@2@@std@@PBU_GUID@@@std@@@2@$0A@@std@@@2@_N@Z 0041f910 f i cinder:ImageTargetFileWic.obj
 0001:0001ead0       ?_Insert@?$_Tree@V?$_Tmap_traits@V?$basic_string@DU?$char_traits@D@std@@V?$allocator@D@2@@std@@PBU_GUID@@U?$less@V?$basic_string@DU?$char_traits@D@std@@V?$allocator@D@2@@std@@@2@V?$allocator@U?$pair@$$CBV?$basic_string@DU?$char_traits@D@std@@V?$allocator@D@2@@std@@PBU_GUID@@@std@@@2@$0A@@std@@@std@@QAE?AV?$_Tree_iterator@V?$_Tree_val@V?$_Tmap_traits@V?$basic_string@DU?$char_traits@D@std@@V?$allocator@D@2@@std@@PBU_GUID@@U?$less@V?$basic_string@DU?$char_traits@D@std@@V?$allocator@D@2@@std@@@2@V?$allocator@U?$pair@$$CBV?$basic_string@DU?$char_traits@D@std@@V?$allocator@D@2@@std@@PBU_GUID@@@std@@@2@$0A@@std@@@std@@@2@V?$_Tree_const_iterator@V?$_Tree_val@V?$_Tmap_traits@V?$basic_string@DU?$char_traits@D@std@@V?$allocator@D@2@@std@@PBU_GUID@@U?$less@V?$basic_string@DU?$char_traits@D@std@@V?$allocator@D@2@@std@@@2@V?$allocator@U?$pair@$$CBV?$basic_string@DU?$char_traits@D@std@@V?$allocator@D@2@@std@@PBU_GUID@@@std@@@2@$0A@@std@@@std@@@2@PAU_Node@?$_Tree_nod@V?$_Tmap_traits@V?$basic_string@DU?$char_traits@D@std@@V?$allocator@D@2@@std@@PBU_GUID@@U?$less@V?$basic_string@DU?$char_traits@D@std@@V?$allocator@D@2@@std@@@2@V?$allocator@U?$pair@$$CBV?$basic_string@DU?$char_traits@D@std@@V?$allocator@D@2@@std@@PBU_GUID@@@std@@@2@$0A@@std@@@2@@Z 0041fad0 f i cinder:ImageTargetFileWic.obj
 0001:0001ec90       ??$_Buynode@U?$pair@$$CBV?$basic_string@DU?$char_traits@D@std@@V?$allocator@D@2@@std@@PBU_GUID@@@std@@@?$_Tree_val@V?$_Tmap_traits@V?$basic_string@DU?$char_traits@D@std@@V?$allocator@D@2@@std@@PBU_GUID@@U?$less@V?$basic_string@DU?$char_traits@D@std@@V?$allocator@D@2@@std@@@2@V?$allocator@U?$pair@$$CBV?$basic_string@DU?$char_traits@D@std@@V?$allocator@D@2@@std@@PBU_GUID@@@std@@@2@$0A@@std@@@std@@QAEPAU_Node@?$_Tree_nod@V?$_Tmap_traits@V?$basic_string@DU?$char_traits@D@std@@V?$allocator@D@2@@std@@PBU_GUID@@U?$less@V?$basic_string@DU?$char_traits@D@std@@V?$allocator@D@2@@std@@@2@V?$allocator@U?$pair@$$CBV?$basic_string@DU?$char_traits@D@std@@V?$allocator@D@2@@std@@PBU_GUID@@@std@@@2@$0A@@std@@@1@$$QAU?$pair@$$CBV?$basic_string@DU?$char_traits@D@std@@V?$allocator@D@2@@std@@PBU_GUID@@@1@@Z 0041fc90 f i cinder:ImageTargetFileWic.obj
 0001:0001ed70       ?erase@?$_Tree@V?$_Tmap_traits@V?$basic_string@DU?$char_traits@D@std@@V?$allocator@D@2@@std@@PBU_GUID@@U?$less@V?$basic_string@DU?$char_traits@D@std@@V?$allocator@D@2@@std@@@2@V?$allocator@U?$pair@$$CBV?$basic_string@DU?$char_traits@D@std@@V?$allocator@D@2@@std@@PBU_GUID@@@std@@@2@$0A@@std@@@std@@QAE?AV?$_Tree_iterator@V?$_Tree_val@V?$_Tmap_traits@V?$basic_string@DU?$char_traits@D@std@@V?$allocator@D@2@@std@@PBU_GUID@@U?$less@V?$basic_string@DU?$char_traits@D@std@@V?$allocator@D@2@@std@@@2@V?$allocator@U?$pair@$$CBV?$basic_string@DU?$char_traits@D@std@@V?$allocator@D@2@@std@@PBU_GUID@@@std@@@2@$0A@@std@@@std@@@2@V?$_Tree_const_iterator@V?$_Tree_val@V?$_Tmap_traits@V?$basic_string@DU?$char_traits@D@std@@V?$allocator@D@2@@std@@PBU_GUID@@U?$less@V?$basic_string@DU?$char_traits@D@std@@V?$allocator@D@2@@std@@@2@V?$allocator@U?$pair@$$CBV?$basic_string@DU?$char_traits@D@std@@V?$allocator@D@2@@std@@PBU_GUID@@@std@@@2@$0A@@std@@@std@@@2@0@Z 0041fd70 f i cinder:ImageTargetFileWic.obj
 0001:0001ee30       ??A?$map@V?$basic_string@DU?$char_traits@D@std@@V?$allocator@D@2@@std@@PBU_GUID@@U?$less@V?$basic_string@DU?$char_traits@D@std@@V?$allocator@D@2@@std@@@2@V?$allocator@U?$pair@$$CBV?$basic_string@DU?$char_traits@D@std@@V?$allocator@D@2@@std@@PBU_GUID@@@std@@@2@@std@@QAEAAPBU_GUID@@ABV?$basic_string@DU?$char_traits@D@std@@V?$allocator@D@2@@1@@Z 0041fe30 f i cinder:ImageTargetFileWic.obj
 0001:0001ef10       ?_Destroy@?$_Ref_count@V?$map@V?$basic_string@DU?$char_traits@D@std@@V?$allocator@D@2@@std@@PBU_GUID@@U?$less@V?$basic_string@DU?$char_traits@D@std@@V?$allocator@D@2@@std@@@2@V?$allocator@U?$pair@$$CBV?$basic_string@DU?$char_traits@D@std@@V?$allocator@D@2@@std@@PBU_GUID@@@std@@@2@@std@@@tr1@std@@EAEXXZ 0041ff10 f i cinder:ImageTargetFileWic.obj
 0001:0001ef80       ??$_Resetp@V?$map@V?$basic_string@DU?$char_traits@D@std@@V?$allocator@D@2@@std@@PBU_GUID@@U?$less@V?$basic_string@DU?$char_traits@D@std@@V?$allocator@D@2@@std@@@2@V?$allocator@U?$pair@$$CBV?$basic_string@DU?$char_traits@D@std@@V?$allocator@D@2@@std@@PBU_GUID@@@std@@@2@@std@@@?$shared_ptr@V?$map@V?$basic_string@DU?$char_traits@D@std@@V?$allocator@D@2@@std@@PBU_GUID@@U?$less@V?$basic_string@DU?$char_traits@D@std@@V?$allocator@D@2@@std@@@2@V?$allocator@U?$pair@$$CBV?$basic_string@DU?$char_traits@D@std@@V?$allocator@D@2@@std@@PBU_GUID@@@std@@@2@@std@@@tr1@std@@AAEXPAV?$map@V?$basic_string@DU?$char_traits@D@std@@V?$allocator@D@2@@std@@PBU_GUID@@U?$less@V?$basic_string@DU?$char_traits@D@std@@V?$allocator@D@2@@std@@@2@V?$allocator@U?$pair@$$CBV?$basic_string@DU?$char_traits@D@std@@V?$allocator@D@2@@std@@PBU_GUID@@@std@@@2@@2@@Z 0041ff80 f i cinder:ImageTargetFileWic.obj
 0001:0001f040       ?getExtensionMap@?A0xa217651a@cinder@@YAAAV?$map@V?$basic_string@DU?$char_traits@D@std@@V?$allocator@D@2@@std@@PBU_GUID@@U?$less@V?$basic_string@DU?$char_traits@D@std@@V?$allocator@D@2@@std@@@2@V?$allocator@U?$pair@$$CBV?$basic_string@DU?$char_traits@D@std@@V?$allocator@D@2@@std@@PBU_GUID@@@std@@@2@@std@@XZ 00420040 f   cinder:ImageTargetFileWic.obj
 0001:0001f180       ??0ImageTargetFileWic@cinder@@IAE@V?$shared_ptr@VDataTarget@cinder@@@tr1@std@@V?$shared_ptr@VImageSource@cinder@@@34@VOptions@ImageTarget@1@ABV?$basic_string@DU?$char_traits@D@std@@V?$allocator@D@2@@4@@Z 00420180 f   cinder:ImageTargetFileWic.obj
 0001:0001f830       ??1ImageTargetFileWic@cinder@@UAE@XZ 00420830 f i cinder:ImageTargetFileWic.obj
 0001:0001f950       ??_GImageTargetFileWic@cinder@@UAEPAXI@Z 00420950 f i cinder:ImageTargetFileWic.obj
 0001:0001f950       ??_EImageTargetFileWic@cinder@@UAEPAXI@Z 00420950 f i cinder:ImageTargetFileWic.obj
 0001:0001f980       ?createRef@ImageTargetFileWic@cinder@@SA?AV?$shared_ptr@VImageTarget@cinder@@@tr1@std@@V?$shared_ptr@VDataTarget@cinder@@@45@V?$shared_ptr@VImageSource@cinder@@@45@VOptions@ImageTarget@2@ABV?$basic_string@DU?$char_traits@D@std@@V?$allocator@D@2@@5@@Z 00420980 f   cinder:ImageTargetFileWic.obj
 0001:0001fac0       ?registerSelf@ImageTargetFileWic@cinder@@SAXXZ 00420ac0 f   cinder:ImageTargetFileWic.obj
 0001:0001ffc0       _wmemset                   00420fc0 f i cinder:Utilities.obj
 0001:00020000       ?_Chassign@?$basic_string@_WU?$char_traits@_W@std@@V?$allocator@_W@2@@std@@QAEXII_W@Z 00421000 f i cinder:Utilities.obj
 0001:00020060       ?rfind@?$basic_string@DU?$char_traits@D@std@@V?$allocator@D@2@@std@@QBEIPBDII@Z 00421060 f i cinder:Utilities.obj
 0001:000200f0       ?_Chassign@?$basic_string@DU?$char_traits@D@std@@V?$allocator@D@2@@std@@QAEXIID@Z 004210f0 f i cinder:Utilities.obj
 0001:00020130       ?reserve@?$vector@DV?$allocator@D@std@@@std@@QAEXI@Z 00421130 f i cinder:Utilities.obj
 0001:000201a0       ?append@?$basic_string@_WU?$char_traits@_W@std@@V?$allocator@_W@2@@std@@QAEAAV12@I_W@Z 004211a0 f i cinder:Utilities.obj
 0001:00020260       ?assign@?$basic_string@DU?$char_traits@D@std@@V?$allocator@D@2@@std@@QAEAAV12@ID@Z 00421260 f i cinder:Utilities.obj
 0001:00020320       ?_Reserve@?$vector@DV?$allocator@D@std@@@std@@IAEXI@Z 00421320 f i cinder:Utilities.obj
 0001:00020380       ??0?$basic_string@DU?$char_traits@D@std@@V?$allocator@D@2@@std@@QAE@ID@Z 00421380 f i cinder:Utilities.obj
 0001:000203b0       ?resize@?$vector@DV?$allocator@D@std@@@std@@QAEXI@Z 004213b0 f i cinder:Utilities.obj
 0001:00020420       ??4?$basic_string@DU?$char_traits@D@std@@V?$allocator@D@2@@std@@QAEAAV01@PBD@Z 00421420 f i cinder:Utilities.obj
 0001:00020450       ?substr@?$basic_string@DU?$char_traits@D@std@@V?$allocator@D@2@@std@@QBE?AV12@II@Z 00421450 f i cinder:Utilities.obj
 0001:00020490       ?getPathExtension@cinder@@YA?AV?$basic_string@DU?$char_traits@D@std@@V?$allocator@D@2@@std@@ABV23@@Z 00421490 f   cinder:Utilities.obj
 0001:00020510       ?toUtf16@cinder@@YA?AV?$basic_string@_WU?$char_traits@_W@std@@V?$allocator@_W@2@@std@@ABV?$basic_string@DU?$char_traits@D@std@@V?$allocator@D@2@@3@@Z 00421510 f   cinder:Utilities.obj
 0001:00020640       ?toUtf8@cinder@@YA?AV?$basic_string@DU?$char_traits@D@std@@V?$allocator@D@2@@std@@ABV?$basic_string@_WU?$char_traits@_W@std@@V?$allocator@_W@2@@3@@Z 00421640 f   cinder:Utilities.obj
 0001:00020780       ?what@TextureDataExc@gl@cinder@@UBEPBDXZ 00421780 f   cinder:Texture.obj
 0001:00020780       ?getFilePath@DataTarget@cinder@@QAEABV?$basic_string@DU?$char_traits@D@std@@V?$allocator@D@2@@std@@XZ 00421780 f   cinder:DataTarget.obj
 0001:00020780       ?what@ResourceLoadExc@app@cinder@@UBEPBDXZ 00421780 f   cinder:App.obj
 0001:00020780       ?getFilePath@DataSource@cinder@@QAEABV?$basic_string@DU?$char_traits@D@std@@V?$allocator@D@2@@std@@XZ 00421780 f   cinder:DataSource.obj
 0001:00020790       ___GLeeGetProcAddress      00421790 f   cinder:GLee.obj
 0001:000207a0       ___GLeeLink_GL_VERSION_1_2 004217a0 f   cinder:GLee.obj
 0001:00020d30       ___GLeeLink_GL_VERSION_1_3 00421d30 f   cinder:GLee.obj
 0001:000213e0       ___GLeeLink_GL_VERSION_1_4 004223e0 f   cinder:GLee.obj
 0001:00021a60       ___GLeeLink_GL_VERSION_1_5 00422a60 f   cinder:GLee.obj
 0001:00021d40       ___GLeeLink_GL_VERSION_2_0 00422d40 f   cinder:GLee.obj
 0001:00022a80       ___GLeeLink_GL_VERSION_2_1 00423a80 f   cinder:GLee.obj
 0001:00022b90       ___GLeeLink_GL_VERSION_3_0 00423b90 f   cinder:GLee.obj
 0001:000233f0       ___GLeeLink_GL_ARB_multitexture 004243f0 f   cinder:GLee.obj
 0001:000238f0       ___GLeeLink_GL_ARB_transpose_matrix 004248f0 f   cinder:GLee.obj
 0001:000239b0       ___GLeeLink_GL_ARB_multisample 004249b0 f   cinder:GLee.obj
 0001:00023a00       ___GLeeLink_GL_ARB_texture_compression 00424a00 f   cinder:GLee.obj
 0001:00023b30       ___GLeeLink_GL_ARB_point_parameters 00424b30 f   cinder:GLee.obj
 0001:00023bb0       ___GLeeLink_GL_ARB_vertex_blend 00424bb0 f   cinder:GLee.obj
 0001:00023d50       ___GLeeLink_GL_ARB_matrix_palette 00424d50 f   cinder:GLee.obj
 0001:00023e30       ___GLeeLink_GL_ARB_window_pos 00424e30 f   cinder:GLee.obj
 0001:000240a0       ___GLeeLink_GL_ARB_vertex_program 004250a0 f   cinder:GLee.obj
 0001:00024990       ___GLeeLink_GL_ARB_vertex_buffer_object 00425990 f   cinder:GLee.obj
 0001:00024b50       ___GLeeLink_GL_ARB_occlusion_query 00425b50 f   cinder:GLee.obj
 0001:00024ca0       ___GLeeLink_GL_ARB_shader_objects 00425ca0 f   cinder:GLee.obj
 0001:00025250       ___GLeeLink_GL_ARB_vertex_shader 00426250 f   cinder:GLee.obj
 0001:000252f0       ___GLeeLink_GL_ARB_draw_buffers 004262f0 f   cinder:GLee.obj
 0001:00025340       ___GLeeLink_GL_ARB_color_buffer_float 00426340 f   cinder:GLee.obj
 0001:00025390       ___GLeeLink_GL_ARB_draw_instanced 00426390 f   cinder:GLee.obj
 0001:00025410       ___GLeeLink_GL_ARB_framebuffer_object 00426410 f   cinder:GLee.obj
 0001:00025710       ___GLeeLink_GL_ARB_geometry_shader4 00426710 f   cinder:GLee.obj
 0001:000257d0       ___GLeeLink_GL_ARB_instanced_arrays 004267d0 f   cinder:GLee.obj
 0001:00025820       ___GLeeLink_GL_ARB_map_buffer_range 00426820 f   cinder:GLee.obj
 0001:000258a0       ___GLeeLink_GL_ARB_texture_buffer_object 004268a0 f   cinder:GLee.obj
 0001:000258f0       ___GLeeLink_GL_ARB_vertex_array_object 004268f0 f   cinder:GLee.obj
 0001:000259b0       ___GLeeLink_GL_EXT_blend_color 004269b0 f   cinder:GLee.obj
 0001:00025a00       ___GLeeLink_GL_EXT_polygon_offset 00426a00 f   cinder:GLee.obj
 0001:00025a50       ___GLeeLink_GL_EXT_texture3D 00426a50 f   cinder:GLee.obj
 0001:00025ad0       ___GLeeLink_GL_SGIS_texture_filter4 00426ad0 f   cinder:GLee.obj
 0001:00025b50       ___GLeeLink_GL_EXT_subtexture 00426b50 f   cinder:GLee.obj
 0001:00025bd0       ___GLeeLink_GL_EXT_copy_texture 00426bd0 f   cinder:GLee.obj
 0001:00025cb0       ___GLeeLink_GL_EXT_histogram 00426cb0 f   cinder:GLee.obj
 0001:00025e50       ___GLeeLink_GL_EXT_convolution 00426e50 f   cinder:GLee.obj
 0001:00026050       ___GLeeLink_GL_SGI_color_table 00427050 f   cinder:GLee.obj
 0001:00026180       ___GLeeLink_GL_SGIS_pixel_texture 00427180 f   cinder:GLee.obj
 0001:00026290       ___GLeeLink_GL_SGIX_pixel_texture 00427290 f   cinder:GLee.obj
 0001:000262e0       ___GLeeLink_GL_SGIS_texture4D 004272e0 f   cinder:GLee.obj
 0001:00026360       ___GLeeLink_GL_EXT_texture_object 00427360 f   cinder:GLee.obj
 0001:00026470       ___GLeeLink_GL_SGIS_detail_texture 00427470 f   cinder:GLee.obj
 0001:000264f0       ___GLeeLink_GL_SGIS_sharpen_texture 004274f0 f   cinder:GLee.obj
 0001:00026570       ___GLeeLink_GL_SGIS_multisample 00427570 f   cinder:GLee.obj
 0001:000265f0       ___GLeeLink_GL_EXT_vertex_array 004275f0 f   cinder:GLee.obj
 0001:00026620       ___GLeeLink_GL_EXT_blend_minmax 00427620 f   cinder:GLee.obj
 0001:00026670       ___GLeeLink_GL_3DFX_multisample 00427670 f   cinder:GLee.obj
 0001:00026670       ___GLeeLink_GL_EXT_vertex_array_bgra 00427670 f   cinder:GLee.obj
 0001:00026670       ___GLeeLink_GL_EXT_texture_compression_s3tc 00427670 f   cinder:GLee.obj
 0001:00026670       ___GLeeLink_GL_NV_vertex_array_range2 00427670 f   cinder:GLee.obj
 0001:00026670       ___GLeeLink_GL_EXT_clip_volume_hint 00427670 f   cinder:GLee.obj
 0001:00026670       ___GLeeLink_GL_EXT_texture_env_dot3 00427670 f   cinder:GLee.obj
 0001:00026670       ___GLeeLink_GL_IBM_cull_vertex 00427670 f   cinder:GLee.obj
 0001:00026670       ___GLeeLink_GL_NV_blend_square 00427670 f   cinder:GLee.obj
 0001:00026670       ___GLeeLink_GL_SUN_convolution_border_modes 00427670 f   cinder:GLee.obj
 0001:00026670       ___GLeeLink_GL_NV_texture_compression_vtc 00427670 f   cinder:GLee.obj
 0001:00026670       ___GLeeLink_GL_NV_vertex_program2 00427670 f   cinder:GLee.obj
 0001:00026670       ___GLeeLink_GL_ARB_texture_cube_map 00427670 f   cinder:GLee.obj
 0001:00026670       ___GLeeLink_GL_SGI_texture_color_table 00427670 f   cinder:GLee.obj
 0001:00026670       ___GLeeLink_GL_OML_resample 00427670 f   cinder:GLee.obj
 0001:00026670       ___GLeeLink_GL_SGIX_calligraphic_fragment 00427670 f   cinder:GLee.obj
 0001:00026670       ___GLeeLink_GL_NV_vertex_program3 00427670 f   cinder:GLee.obj
 0001:00026670       ___GLeeLink_GL_EXT_index_texture 00427670 f   cinder:GLee.obj
 0001:00026670       ___GLeeLink_WGL_NV_render_depth_texture 00427670 f   cinder:GLee.obj
 0001:00026670       ___GLeeLink_GL_EXT_texture_cube_map 00427670 f   cinder:GLee.obj
 0001:00026670       ___GLeeLink_GL_OES_compressed_paletted_texture 00427670 f   cinder:GLee.obj
 0001:00026670       ___GLeeLink_GL_ARB_fragment_shader 00427670 f   cinder:GLee.obj
 0001:00026670       ___GLeeLink_GL_SGIX_depth_texture 00427670 f   cinder:GLee.obj
 0001:00026670       ___GLeeLink_GL_NV_texture_rectangle 00427670 f   cinder:GLee.obj
 0001:00026670       ___GLeeLink_GL_EXT_packed_pixels 00427670 f   cinder:GLee.obj
 0001:00026670       ___GLeeLink_GL_INTEL_texture_scissor 00427670 f   cinder:GLee.obj
 0001:00026670       ___GLeeLink_GL_ARB_texture_env_dot3 00427670 f   cinder:GLee.obj
 0001:00026670       ___GLeeLink_GL_OML_interlace 00427670 f   cinder:GLee.obj
 0001:00026670       ___GLeeLink_GL_SGIX_texture_add_env 00427670 f   cinder:GLee.obj
 0001:00026670       ___GLeeLink_GL_EXT_framebuffer_sRGB 00427670 f   cinder:GLee.obj
 0001:00026670       ___GLeeLink_WGL_NV_render_texture_rectangle 00427670 f   cinder:GLee.obj
 0001:00026670       ___GLeeLink_GL_SGIX_shadow 00427670 f   cinder:GLee.obj
 0001:00026670       ___GLeeLink_GL_EXT_shared_texture_palette 00427670 f   cinder:GLee.obj
 0001:00026670       ___GLeeLink_GL_EXT_packed_depth_stencil 00427670 f   cinder:GLee.obj
 0001:00026670       ___GLeeLink_GL_EXT_packed_float 00427670 f   cinder:GLee.obj
 0001:00026670       ___GLeeLink_GL_ARB_framebuffer_sRGB 00427670 f   cinder:GLee.obj
 0001:00026670       ___GLeeLink_GL_NV_texture_shader 00427670 f   cinder:GLee.obj
 0001:00026670       ___GLeeLink_GL_HP_convolution_border_modes 00427670 f   cinder:GLee.obj
 0001:00026670       ___GLeeLink_GL_NV_texture_shader2 00427670 f   cinder:GLee.obj
 0001:00026670       ___GLeeLink_GL_EXT_separate_specular_color 00427670 f   cinder:GLee.obj
 0001:00026670       ___GLeeLink_GL_ARB_half_float_vertex 00427670 f   cinder:GLee.obj
 0001:00026670       ___GLeeLink_GL_EXT_cmyka   00427670 f   cinder:GLee.obj
 0001:00026670       ___GLeeLink_GL_NV_fragment_program2 00427670 f   cinder:GLee.obj
 0001:00026670       ___GLeeLink_GL_APPLE_ycbcr_422 00427670 f   cinder:GLee.obj
 0001:00026670       ___GLeeLink_GL_NV_present_video 00427670 f   cinder:GLee.obj
 0001:00026670       ___GLeeLink_GL_SGIX_texture_range 00427670 f   cinder:GLee.obj
 0001:00026670       ___GLeeLink_GL_NV_fog_distance 00427670 f   cinder:GLee.obj
 0001:00026670       ___GLeeLink_GL_NV_texture_shader3 00427670 f   cinder:GLee.obj
 0001:00026670       ___GLeeLink_GL_NV_texture_expand_normal 00427670 f   cinder:GLee.obj
 0001:00026670       ___GLeeLink_GL_ARB_texture_compression_rgtc 00427670 f   cinder:GLee.obj
 0001:00026670       ___GLeeLink_GL_ARB_texture_env_crossbar 00427670 f   cinder:GLee.obj
 0001:00026670       ___GLeeLink_GL_IBM_texture_mirrored_repeat 00427670 f   cinder:GLee.obj
 0001:00026670       ___GLeeLink_GL_SGIS_texture_select 00427670 f   cinder:GLee.obj
 0001:00026670       ___GLeeLink_GL_EXT_abgr    00427670 f   cinder:GLee.obj
 0001:00026670       ___GLeeLink_GL_EXT_texture_sRGB 00427670 f   cinder:GLee.obj
 0001:00026670       ___GLeeLink_GL_SGIX_async_pixel 00427670 f   cinder:GLee.obj
 0001:00026670       ___GLeeLink_GL_NV_float_buffer 00427670 f   cinder:GLee.obj
 0001:00026670       ___GLeeLink_GL_NV_texgen_reflection 00427670 f   cinder:GLee.obj
 0001:00026670       ___GLeeLink_GL_NV_texture_env_combine4 00427670 f   cinder:GLee.obj
 0001:00026670       ___GLeeLink_GL_REND_screen_coordinates 00427670 f   cinder:GLee.obj
 0001:00026670       ___GLeeLink_GL_EXT_blend_logic_op 00427670 f   cinder:GLee.obj
 0001:00026670       ___GLeeLink_GL_SGIX_ir_instrument1 00427670 f   cinder:GLee.obj
 0001:00026670       ___GLeeLink_GL_SGIX_texture_coordinate_clamp 00427670 f   cinder:GLee.obj
 0001:00026670       ___GLeeLink_WGL_EXT_depth_float 00427670 f   cinder:GLee.obj
 0001:00026670       ___GLeeLink_WGL_ARB_pixel_format_float 00427670 f   cinder:GLee.obj
 0001:00026670       ___GLeeLink_GL_IBM_rasterpos_clip 00427670 f   cinder:GLee.obj
 0001:00026670       ___GLeeLink_GL_HP_occlusion_test 00427670 f   cinder:GLee.obj
 0001:00026670       ___GLeeLink_WGL_EXT_framebuffer_sRGB 00427670 f   cinder:GLee.obj
 0001:00026670       ___GLeeLink_GL_SGIX_async_histogram 00427670 f   cinder:GLee.obj
 0001:00026670       ___GLeeLink_GL_ARB_fragment_program_shadow 00427670 f   cinder:GLee.obj
 0001:00026670       ___GLeeLink_GL_EXT_422_pixels 00427670 f   cinder:GLee.obj
 0001:00026670       ___GLeeLink_GL_EXT_texture 00427670 f   cinder:GLee.obj
 0001:00026670       ___GLeeLink_GL_SGIX_interlace 00427670 f   cinder:GLee.obj
 0001:00026670       ___GLeeLink_GL_ARB_imaging 00427670 f   cinder:GLee.obj
 0001:00026670       ___GLeeLink_GL_SUN_slice_accum 00427670 f   cinder:GLee.obj
 0001:00026670       ___GLeeLink_GL_NV_vertex_program2_option 00427670 f   cinder:GLee.obj
 0001:00026670       ___GLeeLink_GL_SGIS_point_line_texgen 00427670 f   cinder:GLee.obj
 0001:00026670       ___GLeeLink_GL_EXT_blend_subtract 00427670 f   cinder:GLee.obj
 0001:00026670       ___GLeeLink_GL_S3_s3tc     00427670 f   cinder:GLee.obj
 0001:00026670       ___GLeeLink_GL_OES_read_format 00427670 f   cinder:GLee.obj
 0001:00026670       ___GLeeLink_GL_MESA_ycbcr_texture 00427670 f   cinder:GLee.obj
 0001:00026670       ___GLeeLink_GL_SGIX_scalebias_hint 00427670 f   cinder:GLee.obj
 0001:00026670       ___GLeeLink_GL_INGR_palette_buffer 00427670 f   cinder:GLee.obj
 0001:00026670       ___GLeeLink_GL_ARB_texture_float 00427670 f   cinder:GLee.obj
 0001:00026670       ___GLeeLink_GL_SGIX_fog_offset 00427670 f   cinder:GLee.obj
 0001:00026670       ___GLeeLink_GL_SGIS_generate_mipmap 00427670 f   cinder:GLee.obj
 0001:00026670       ___GLeeLink_GL_SGIX_shadow_ambient 00427670 f   cinder:GLee.obj
 0001:00026670       ___GLeeLink_GL_NV_light_max_exponent 00427670 f   cinder:GLee.obj
 0001:00026670       ___GLeeLink_GL_SGIX_convolution_accuracy 00427670 f   cinder:GLee.obj
 0001:00026670       ___GLeeLink_GL_INGR_color_clamp 00427670 f   cinder:GLee.obj
 0001:00026670       ___GLeeLink_GL_SGI_color_matrix 00427670 f   cinder:GLee.obj
 0001:00026670       ___GLeeLink_GL_ATI_texture_float 00427670 f   cinder:GLee.obj
 0001:00026670       ___GLeeLink_GL_SGIX_ycrcb  00427670 f   cinder:GLee.obj
 0001:00026670       ___GLeeLink_WGL_3DFX_multisample 00427670 f   cinder:GLee.obj
 0001:00026670       ___GLeeLink_GL_ATI_texture_mirror_once 00427670 f   cinder:GLee.obj
 0001:00026670       ___GLeeLink_GL_EXT_rescale_normal 00427670 f   cinder:GLee.obj
 0001:00026670       ___GLeeLink_GL_EXT_index_array_formats 00427670 f   cinder:GLee.obj
 0001:00026670       ___GLeeLink_GL_OML_subsample 00427670 f   cinder:GLee.obj
 0001:00026670       ___GLeeLink_GL_ARB_texture_mirrored_repeat 00427670 f   cinder:GLee.obj
 0001:00026670       ___GLeeLink_GL_ARB_fragment_program 00427670 f   cinder:GLee.obj
 0001:00026670       ___GLeeLink_GL_FfdMaskSGIX 00427670 f   cinder:GLee.obj
 0001:00026670       ___GLeeLink_GL_ARB_shading_language_100 00427670 f   cinder:GLee.obj
 0001:00026670       ___GLeeLink_GL_SGIX_ycrcb_subsample 00427670 f   cinder:GLee.obj
 0001:00026670       ___GLeeLink_GL_ARB_depth_buffer_float 00427670 f   cinder:GLee.obj
 0001:00026670       ___GLeeLink_GL_SGIX_vertex_preclip 00427670 f   cinder:GLee.obj
 0001:00026670       ___GLeeLink_GL_SGIX_pixel_tiles 00427670 f   cinder:GLee.obj
 0001:00026670       ___GLeeLink_GL_3DFX_texture_compression_FXT1 00427670 f   cinder:GLee.obj
 0001:00026670       ___GLeeLink_GL_EXT_texture_filter_anisotropic 00427670 f   cinder:GLee.obj
 0001:00026670       ___GLeeLink_GL_EXT_misc_attribute 00427670 f   cinder:GLee.obj
 0001:00026670       ___GLeeLink_GL_PGI_vertex_hints 00427670 f   cinder:GLee.obj
 0001:00026670       ___GLeeLink_GL_EXT_texture_env_combine 00427670 f   cinder:GLee.obj
 0001:00026670       ___GLeeLink_WGL_ARB_multisample 00427670 f   cinder:GLee.obj
 0001:00026670       ___GLeeLink_GL_WIN_phong_shading 00427670 f   cinder:GLee.obj
 0001:00026670       ___GLeeLink_GL_EXT_bgra    00427670 f   cinder:GLee.obj
 0001:00026670       ___GLeeLink_GL_IBM_static_data 00427670 f   cinder:GLee.obj
 0001:00026670       ___GLeeLink_GL_EXT_pixel_buffer_object 00427670 f   cinder:GLee.obj
 0001:00026670       ___GLeeLink_GL_MESAX_texture_stack 00427670 f   cinder:GLee.obj
 0001:00026670       ___GLeeLink_GL_ARB_texture_rg 00427670 f   cinder:GLee.obj
 0001:00026670       ___GLeeLink_GL_ARB_texture_env_combine 00427670 f   cinder:GLee.obj
 0001:00026670       ___GLeeLink_GL_NV_copy_depth_to_color 00427670 f   cinder:GLee.obj
 0001:00026670       ___GLeeLink_GL_NV_texgen_emboss 00427670 f   cinder:GLee.obj
 0001:00026670       ___GLeeLink_GL_SGIX_ycrcba 00427670 f   cinder:GLee.obj
 0001:00026670       ___GLeeLink_GL_ARB_pixel_buffer_object 00427670 f   cinder:GLee.obj
 0001:00026670       ___GLeeLink_GL_WIN_specular_fog 00427670 f   cinder:GLee.obj
 0001:00026670       ___GLeeLink_WGL_NV_float_buffer 00427670 f   cinder:GLee.obj
 0001:00026670       ___GLeeLink_GL_SGIS_texture_border_clamp 00427670 f   cinder:GLee.obj
 0001:00026670       ___GLeeLink_GL_ARB_texture_border_clamp 00427670 f   cinder:GLee.obj
 0001:00026670       ___GLeeLink_GL_NV_packed_depth_stencil 00427670 f   cinder:GLee.obj
 0001:00026670       ___GLeeLink_WGL_3DL_stereo_control 00427670 f   cinder:GLee.obj
 0001:00026670       ___GLeeLink_GL_HP_texture_lighting 00427670 f   cinder:GLee.obj
 0001:00026670       ___GLeeLink_GL_MESA_pack_invert 00427670 f   cinder:GLee.obj
 0001:00026670       ___GLeeLink_GL_SGIX_depth_pass_instrument 00427670 f   cinder:GLee.obj
 0001:00026670       ___GLeeLink_GL_SGIX_texture_select 00427670 f   cinder:GLee.obj
 0001:00026670       ___GLeeLink_GL_EXT_texture_lod_bias 00427670 f   cinder:GLee.obj
 0001:00026670       ___GLeeLink_GL_ARB_half_float_pixel 00427670 f   cinder:GLee.obj
 0001:00026670       ___GLeeLink_GL_SGIX_texture_lod_bias 00427670 f   cinder:GLee.obj
 0001:00026670       ___GLeeLink_GL_EXT_texture_compression_rgtc 00427670 f   cinder:GLee.obj
 0001:00026670       ___GLeeLink_GL_ARB_point_sprite 00427670 f   cinder:GLee.obj
 0001:00026670       ___GLeeLink_GL_NV_vertex_program1_1 00427670 f   cinder:GLee.obj
 0001:00026670       ___GLeeLink_WGL_EXT_pixel_format_packed_float 00427670 f   cinder:GLee.obj
 0001:00026670       ___GLeeLink_GL_ATI_text_fragment_shader 00427670 f   cinder:GLee.obj
 0001:00026670       ___GLeeLink_GL_SGIX_pixel_texture_bits 00427670 f   cinder:GLee.obj
 0001:00026670       ___GLeeLink_WGL_EXT_multisample 00427670 f   cinder:GLee.obj
 0001:00026670       ___GLeeLink_GL_EXT_texture_swizzle 00427670 f   cinder:GLee.obj
 0001:00026670       ___GLeeLink_GL_NV_multisample_filter_hint 00427670 f   cinder:GLee.obj
 0001:00026670       ___GLeeLink_GL_APPLE_client_storage 00427670 f   cinder:GLee.obj
 0001:00026670       ___GLeeLink_GL_ATI_pixel_format_float 00427670 f   cinder:GLee.obj
 0001:00026670       ___GLeeLink_GL_ARB_texture_non_power_of_two 00427670 f   cinder:GLee.obj
 0001:00026670       ___GLeeLink_GL_SGIS_texture_lod 00427670 f   cinder:GLee.obj
 0001:00026670       ___GLeeLink_GL_EXT_stencil_wrap 00427670 f   cinder:GLee.obj
 0001:00026670       ___GLeeLink_GL_ARB_depth_texture 00427670 f   cinder:GLee.obj
 0001:00026670       ___GLeeLink_GL_ARB_shadow  00427670 f   cinder:GLee.obj
 0001:00026670       ___GLeeLink_GL_SGI_depth_pass_instrument 00427670 f   cinder:GLee.obj
 0001:00026670       ___GLeeLink_GL_EXT_texture_env_add 00427670 f   cinder:GLee.obj
 0001:00026670       ___GLeeLink_GL_SGIX_blend_alpha_minmax 00427670 f   cinder:GLee.obj
 0001:00026670       ___GLeeLink_GL_APPLE_transform_hint 00427670 f   cinder:GLee.obj
 0001:00026670       ___GLeeLink_GL_ARB_texture_env_add 00427670 f   cinder:GLee.obj
 0001:00026670       ___GLeeLink_GL_SGIX_fog_scale 00427670 f   cinder:GLee.obj
 0001:00026670       ___GLeeLink_GL_ARB_shadow_ambient 00427670 f   cinder:GLee.obj
 0001:00026670       ___GLeeLink_GL_EXT_texture_compression_latc 00427670 f   cinder:GLee.obj
 0001:00026670       ___GLeeLink_GL_SGIX_subsample 00427670 f   cinder:GLee.obj
 0001:00026670       ___GLeeLink_GL_APPLE_specular_vector 00427670 f   cinder:GLee.obj
 0001:00026670       ___GLeeLink_GL_EXT_texture_mirror_clamp 00427670 f   cinder:GLee.obj
 0001:00026670       ___GLeeLink_GL_SGIX_texture_scale_bias 00427670 f   cinder:GLee.obj
 0001:00026670       ___GLeeLink_GL_EXT_texture_env 00427670 f   cinder:GLee.obj
 0001:00026670       ___GLeeLink_GL_EXT_texture_shared_exponent 00427670 f   cinder:GLee.obj
 0001:00026670       ___GLeeLink_GL_EXT_pixel_transform_color_table 00427670 f   cinder:GLee.obj
 0001:00026670       ___GLeeLink_GL_EXT_texture_array 00427670 f   cinder:GLee.obj
 0001:00026670       ___GLeeLink_GL_SGIX_resample 00427670 f   cinder:GLee.obj
 0001:00026670       ___GLeeLink_GL_SGIX_texture_multi_buffer 00427670 f   cinder:GLee.obj
 0001:00026670       ___GLeeLink_GL_EXT_shadow_funcs 00427670 f   cinder:GLee.obj
 0001:00026670       ___GLeeLink_GL_SGIX_clipmap 00427670 f   cinder:GLee.obj
 0001:00026670       ___GLeeLink_WGL_ATI_pixel_format_float 00427670 f   cinder:GLee.obj
 0001:00026670       ___GLeeLink_GL_ARB_texture_rectangle 00427670 f   cinder:GLee.obj
 0001:00026670       ___GLeeLink_GL_NV_depth_clamp 00427670 f   cinder:GLee.obj
 0001:00026670       ___GLeeLink_GL_EXT_texture_compression_dxt1 00427670 f   cinder:GLee.obj
 0001:00026670       ___GLeeLink_GL_SGIS_texture_edge_clamp 00427670 f   cinder:GLee.obj
 0001:00026670       ___GLeeLink_GL_INGR_interlace_read 00427670 f   cinder:GLee.obj
 0001:00026670       ___GLeeLink_GL_NV_fragment_program_option 00427670 f   cinder:GLee.obj
 0001:00026670       ___GLeeLink_GL_NV_geometry_shader4 00427670 f   cinder:GLee.obj
 0001:00026670       ___GLeeLink_GL_SGIX_impact_pixel_texture 00427670 f   cinder:GLee.obj
 0001:00026670       ___GLeeLink_GL_OES_byte_coordinates 00427670 f   cinder:GLee.obj
 0001:00026670       ___GLeeLink_GL_ATI_texture_env_combine3 00427670 f   cinder:GLee.obj
 0001:00026680       ___GLeeLink_GL_SGIX_sprite 00427680 f   cinder:GLee.obj
 0001:00026740       ___GLeeLink_GL_EXT_point_parameters 00427740 f   cinder:GLee.obj
 0001:000267c0       ___GLeeLink_GL_SGIS_point_parameters 004277c0 f   cinder:GLee.obj
 0001:00026840       ___GLeeLink_GL_SGIX_instruments 00427840 f   cinder:GLee.obj
 0001:00026950       ___GLeeLink_GL_SGIX_framezoom 00427950 f   cinder:GLee.obj
 0001:000269a0       ___GLeeLink_GL_SGIX_tag_sample_buffer 004279a0 f   cinder:GLee.obj
 0001:000269f0       ___GLeeLink_GL_SGIX_polynomial_ffd 004279f0 f   cinder:GLee.obj
 0001:00026ab0       ___GLeeLink_GL_SGIX_reference_plane 00427ab0 f   cinder:GLee.obj
 0001:00026b00       ___GLeeLink_GL_SGIX_flush_raster 00427b00 f   cinder:GLee.obj
 0001:00026b50       ___GLeeLink_GL_SGIS_fog_function 00427b50 f   cinder:GLee.obj
 0001:00026bd0       ___GLeeLink_GL_HP_image_transform 00427bd0 f   cinder:GLee.obj
 0001:00026ce0       ___GLeeLink_GL_EXT_color_subtable 00427ce0 f   cinder:GLee.obj
 0001:00026d60       ___GLeeLink_GL_PGI_misc_hints 00427d60 f   cinder:GLee.obj
 0001:00026db0       ___GLeeLink_GL_EXT_paletted_texture 00427db0 f   cinder:GLee.obj
 0001:00026de0       ___GLeeLink_GL_SGIX_list_priority 00427de0 f   cinder:GLee.obj
 0001:00026ef0       ___GLeeLink_GL_EXT_index_material 00427ef0 f   cinder:GLee.obj
 0001:00026f40       ___GLeeLink_GL_EXT_index_func 00427f40 f   cinder:GLee.obj
 0001:00026f90       ___GLeeLink_GL_EXT_compiled_vertex_array 00427f90 f   cinder:GLee.obj
 0001:00027010       ___GLeeLink_GL_EXT_cull_vertex 00428010 f   cinder:GLee.obj
 0001:00027090       ___GLeeLink_GL_SGIX_fragment_lighting 00428090 f   cinder:GLee.obj
 0001:00027350       ___GLeeLink_GL_EXT_draw_range_elements 00428350 f   cinder:GLee.obj
 0001:000273a0       ___GLeeLink_GL_EXT_light_texture 004283a0 f   cinder:GLee.obj
 0001:00027440       ___GLeeLink_GL_SGIX_async  00428440 f   cinder:GLee.obj
 0001:00027550       ___GLeeLink_GL_INTEL_parallel_arrays 00428550 f   cinder:GLee.obj
 0001:00027610       ___GLeeLink_GL_EXT_pixel_transform 00428610 f   cinder:GLee.obj
 0001:000276d0       ___GLeeLink_GL_EXT_secondary_color 004286d0 f   cinder:GLee.obj
 0001:00027960       ___GLeeLink_GL_EXT_texture_perturb_normal 00428960 f   cinder:GLee.obj
 0001:000279b0       ___GLeeLink_GL_EXT_multi_draw_arrays 004289b0 f   cinder:GLee.obj
 0001:00027a30       ___GLeeLink_GL_EXT_fog_coord 00428a30 f   cinder:GLee.obj
 0001:00027b10       ___GLeeLink_GL_EXT_coordinate_frame 00428b10 f   cinder:GLee.obj
 0001:00027e60       ___GLeeLink_GL_SUNX_constant_data 00428e60 f   cinder:GLee.obj
 0001:00027eb0       ___GLeeLink_GL_SUN_global_alpha 00428eb0 f   cinder:GLee.obj
 0001:00028000       ___GLeeLink_GL_SUN_triangle_list 00429000 f   cinder:GLee.obj
 0001:00028130       ___GLeeLink_GL_SUN_vertex  00429130 f   cinder:GLee.obj
 0001:00028700       ___GLeeLink_GL_EXT_blend_func_separate 00429700 f   cinder:GLee.obj
 0001:00028750       ___GLeeLink_GL_EXT_vertex_weighting 00429750 f   cinder:GLee.obj
 0001:000287f0       ___GLeeLink_GL_NV_vertex_array_range 004297f0 f   cinder:GLee.obj
 0001:00028870       ___GLeeLink_GL_NV_register_combiners 00429870 f   cinder:GLee.obj
 0001:00028a70       ___GLeeLink_GL_MESA_resize_buffers 00429a70 f   cinder:GLee.obj
 0001:00028ac0       ___GLeeLink_GL_MESA_window_pos 00429ac0 f   cinder:GLee.obj
 0001:00028e50       ___GLeeLink_GL_IBM_multimode_draw_arrays 00429e50 f   cinder:GLee.obj
 0001:00028ed0       ___GLeeLink_GL_IBM_vertex_array_lists 00429ed0 f   cinder:GLee.obj
 0001:00029020       ___GLeeLink_GL_3DFX_tbuffer 0042a020 f   cinder:GLee.obj
 0001:00029070       ___GLeeLink_GL_EXT_multisample 0042a070 f   cinder:GLee.obj
 0001:000290f0       ___GLeeLink_GL_SGIS_texture_color_mask 0042a0f0 f   cinder:GLee.obj
 0001:00029140       ___GLeeLink_GL_NV_fence    0042a140 f   cinder:GLee.obj
 0001:00029270       ___GLeeLink_GL_NV_evaluators 0042a270 f   cinder:GLee.obj
 0001:000293e0       ___GLeeLink_GL_NV_register_combiners2 0042a3e0 f   cinder:GLee.obj
 0001:00029460       ___GLeeLink_GL_NV_vertex_program 0042a460 f   cinder:GLee.obj
 0001:00029d90       ___GLeeLink_GL_ATI_envmap_bumpmap 0042ad90 f   cinder:GLee.obj
 0001:00029e50       ___GLeeLink_GL_ATI_fragment_shader 0042ae50 f   cinder:GLee.obj
 0001:0002a080       ___GLeeLink_GL_ATI_pn_triangles 0042b080 f   cinder:GLee.obj
 0001:0002a100       ___GLeeLink_GL_ATI_vertex_array_object 0042b100 f   cinder:GLee.obj
 0001:0002a2e0       ___GLeeLink_GL_EXT_vertex_shader 0042b2e0 f   cinder:GLee.obj
 0001:0002a900       ___GLeeLink_GL_ATI_vertex_streams 0042b900 f   cinder:GLee.obj
 0001:0002af80       ___GLeeLink_GL_ATI_element_array 0042bf80 f   cinder:GLee.obj
 0001:0002b020       ___GLeeLink_GL_SUN_mesh_array 0042c020 f   cinder:GLee.obj
 0001:0002b070       ___GLeeLink_GL_NV_occlusion_query 0042c070 f   cinder:GLee.obj
 0001:0002b1a0       ___GLeeLink_GL_NV_point_sprite 0042c1a0 f   cinder:GLee.obj
 0001:0002b220       ___GLeeLink_GL_EXT_stencil_two_side 0042c220 f   cinder:GLee.obj
 0001:0002b270       ___GLeeLink_GL_APPLE_element_array 0042c270 f   cinder:GLee.obj
 0001:0002b350       ___GLeeLink_GL_APPLE_fence 0042c350 f   cinder:GLee.obj
 0001:0002b4a0       ___GLeeLink_GL_APPLE_vertex_array_object 0042c4a0 f   cinder:GLee.obj
 0001:0002b560       ___GLeeLink_GL_APPLE_vertex_array_range 0042c560 f   cinder:GLee.obj
 0001:0002b600       ___GLeeLink_GL_ATI_draw_buffers 0042c600 f   cinder:GLee.obj
 0001:0002b650       ___GLeeLink_GL_NV_fragment_program 0042c650 f   cinder:GLee.obj
 0001:0002b760       ___GLeeLink_GL_NV_half_float 0042c760 f   cinder:GLee.obj
 0001:0002be10       ___GLeeLink_GL_NV_pixel_data_range 0042ce10 f   cinder:GLee.obj
 0001:0002be90       ___GLeeLink_GL_NV_primitive_restart 0042ce90 f   cinder:GLee.obj
 0001:0002bf10       ___GLeeLink_GL_ATI_map_object_buffer 0042cf10 f   cinder:GLee.obj
 0001:0002bf90       ___GLeeLink_GL_ATI_separate_stencil 0042cf90 f   cinder:GLee.obj
 0001:0002c010       ___GLeeLink_GL_ATI_vertex_attrib_array_object 0042d010 f   cinder:GLee.obj
 0001:0002c0b0       ___GLeeLink_GL_EXT_depth_bounds_test 0042d0b0 f   cinder:GLee.obj
 0001:0002c100       ___GLeeLink_GL_EXT_blend_equation_separate 0042d100 f   cinder:GLee.obj
 0001:0002c150       ___GLeeLink_GL_EXT_framebuffer_object 0042d150 f   cinder:GLee.obj
 0001:0002c3e0       ___GLeeLink_GL_GREMEDY_string_marker 0042d3e0 f   cinder:GLee.obj
 0001:0002c430       ___GLeeLink_GL_EXT_stencil_clear_tag 0042d430 f   cinder:GLee.obj
 0001:0002c480       ___GLeeLink_GL_EXT_framebuffer_blit 0042d480 f   cinder:GLee.obj
 0001:0002c4d0       ___GLeeLink_GL_EXT_framebuffer_multisample 0042d4d0 f   cinder:GLee.obj
 0001:0002c520       ___GLeeLink_GL_EXT_timer_query 0042d520 f   cinder:GLee.obj
 0001:0002c5a0       ___GLeeLink_GL_EXT_gpu_program_parameters 0042d5a0 f   cinder:GLee.obj
 0001:0002c620       ___GLeeLink_GL_APPLE_flush_buffer_range 0042d620 f   cinder:GLee.obj
 0001:0002c6a0       ___GLeeLink_GL_EXT_gpu_shader4 0042d6a0 f   cinder:GLee.obj
 0001:0002c860       ___GLeeLink_GL_EXT_draw_instanced 0042d860 f   cinder:GLee.obj
 0001:0002c8e0       ___GLeeLink_GL_EXT_texture_buffer_object 0042d8e0 f   cinder:GLee.obj
 0001:0002c930       ___GLeeLink_GL_NV_depth_buffer_float 0042d930 f   cinder:GLee.obj
 0001:0002c9d0       ___GLeeLink_GL_NV_framebuffer_multisample_coverage 0042d9d0 f   cinder:GLee.obj
 0001:0002ca20       ___GLeeLink_GL_NV_parameter_buffer_object 0042da20 f   cinder:GLee.obj
 0001:0002cac0       ___GLeeLink_GL_EXT_draw_buffers2 0042dac0 f   cinder:GLee.obj
 0001:0002cbd0       ___GLeeLink_GL_NV_transform_feedback 0042dbd0 f   cinder:GLee.obj
 0001:0002cd90       ___GLeeLink_GL_EXT_bindable_uniform 0042dd90 f   cinder:GLee.obj
 0001:0002ce30       ___GLeeLink_GL_EXT_texture_integer 0042de30 f   cinder:GLee.obj
 0001:0002cf40       ___GLeeLink_GL_GREMEDY_frame_terminator 0042df40 f   cinder:GLee.obj
 0001:0002cf90       ___GLeeLink_GL_NV_conditional_render 0042df90 f   cinder:GLee.obj
 0001:0002d010       ___GLeeLink_GL_EXT_transform_feedback 0042e010 f   cinder:GLee.obj
 0001:0002d140       ___GLeeLink_GL_EXT_direct_state_access 0042e140 f   cinder:GLee.obj
 0001:0002eba0       ___GLeeLink_GL_NV_explicit_multisample 0042fba0 f   cinder:GLee.obj
 0001:0002ec40       ___GLeeLink_GL_NV_transform_feedback2 0042fc40 f   cinder:GLee.obj
 0001:0002ed70       ___GLeeLink_GL_INGR_blend_func_separate 0042fd70 f   cinder:GLee.obj
 0001:0002edc0       ___GLeeLink_GL_SGIX_igloo_interface 0042fdc0 f   cinder:GLee.obj
 0001:0002ee10       ___GLeeLink_GL_EXT_fragment_lighting 0042fe10 f   cinder:GLee.obj
 0001:0002f0d0       ___GLeeLink_GL_EXT_geometry_shader4 004300d0 f   cinder:GLee.obj
 0001:0002f190       ___GLeeLink_GL_EXT_scene_marker 00430190 f   cinder:GLee.obj
 0001:0002f210       ___GLeeLink_GL_NV_gpu_program4 00430210 f   cinder:GLee.obj
 0001:0002f800       ___GLeeLink_GL_OES_single_precision 00430800 f   cinder:GLee.obj
 0001:0002f910       ___GLeeLink_WGL_ARB_buffer_region 00430910 f   cinder:GLee.obj
 0001:0002f9d0       ___GLeeLink_WGL_ARB_extensions_string 004309d0 f   cinder:GLee.obj
 0001:0002fa20       ___GLeeLink_WGL_ARB_pixel_format 00430a20 f   cinder:GLee.obj
 0001:0002fac0       ___GLeeLink_WGL_ARB_make_current_read 00430ac0 f   cinder:GLee.obj
 0001:0002fb40       ___GLeeLink_WGL_ARB_pbuffer 00430b40 f   cinder:GLee.obj
 0001:0002fc20       ___GLeeLink_WGL_ARB_render_texture 00430c20 f   cinder:GLee.obj
 0001:0002fcc0       ___GLeeLink_WGL_ARB_create_context 00430cc0 f   cinder:GLee.obj
 0001:0002fd10       ___GLeeLink_WGL_EXT_make_current_read 00430d10 f   cinder:GLee.obj
 0001:0002fd90       ___GLeeLink_WGL_EXT_pixel_format 00430d90 f   cinder:GLee.obj
 0001:0002fe30       ___GLeeLink_WGL_EXT_pbuffer 00430e30 f   cinder:GLee.obj
 0001:0002ff10       ___GLeeLink_WGL_I3D_digital_video_control 00430f10 f   cinder:GLee.obj
 0001:0002ff90       ___GLeeLink_WGL_I3D_gamma  00430f90 f   cinder:GLee.obj
 0001:00030050       ___GLeeLink_WGL_I3D_genlock 00431050 f   cinder:GLee.obj
 0001:00030230       ___GLeeLink_WGL_I3D_image_buffer 00431230 f   cinder:GLee.obj
 0001:000302f0       ___GLeeLink_WGL_I3D_swap_frame_lock 004312f0 f   cinder:GLee.obj
 0001:000303b0       ___GLeeLink_WGL_NV_present_video 004313b0 f   cinder:GLee.obj
 0001:00030450       ___GLeeLink_WGL_NV_swap_group 00431450 f   cinder:GLee.obj
 0001:00030560       ___GLeeLink_WGL_NV_gpu_affinity 00431560 f   cinder:GLee.obj
 0001:00030640       ___GLeeLink_WGL_EXT_display_color_table 00431640 f   cinder:GLee.obj
 0001:00030700       ___GLeeLink_WGL_EXT_extensions_string 00431700 f   cinder:GLee.obj
 0001:00030750       ___GLeeLink_WGL_EXT_swap_control 00431750 f   cinder:GLee.obj
 0001:000307d0       ___GLeeLink_WGL_NV_vertex_array_range 004317d0 f   cinder:GLee.obj
 0001:00030850       ___GLeeLink_WGL_OML_sync_control 00431850 f   cinder:GLee.obj
 0001:00030960       ___GLeeLink_WGL_I3D_swap_frame_usage 00431960 f   cinder:GLee.obj
 0001:00030a20       ___GLeeLink_WGL_NV_video_output 00431a20 f   cinder:GLee.obj
 0001:00030b30       ___GLeeExtList_init        00431b30 f   cinder:GLee.obj
 0001:00030b60       ___GLeeExtList_clean       00431b60 f   cinder:GLee.obj
 0001:00030c00       ___GLeeExtList_add         00431c00 f   cinder:GLee.obj
 0001:00030d30       ___GLeeGetExtStrPlat       00431d30 f   cinder:GLee.obj
 0001:00030d70       ___GLeeWriteError          00431d70 f   cinder:GLee.obj
 0001:00030dc0       ___GLeeGetVersionNumber    00431dc0 f   cinder:GLee.obj
 0001:00030df0       ___GLeeGetExtensions       00431df0 f   cinder:GLee.obj
 0001:000310a0       ___GLeeCheckExtension      004320a0 f   cinder:GLee.obj
 0001:00031140       _GLeeInit                  00432140 f   cinder:GLee.obj
 0001:000343e0       _GLee_Lazy_glBlendColor@16 004353e0 f   cinder:GLee.obj
 0001:00034420       _GLee_Lazy_glBlendEquation@4 00435420 f   cinder:GLee.obj
 0001:00034440       _GLee_Lazy_glDrawRangeElements@24 00435440 f   cinder:GLee.obj
 0001:00034480       _GLee_Lazy_glColorTable@24 00435480 f   cinder:GLee.obj
 0001:000344c0       _GLee_Lazy_glColorTableParameterfv@12 004354c0 f   cinder:GLee.obj
 0001:000344f0       _GLee_Lazy_glColorTableParameteriv@12 004354f0 f   cinder:GLee.obj
 0001:00034520       _GLee_Lazy_glCopyColorTable@20 00435520 f   cinder:GLee.obj
 0001:00034550       _GLee_Lazy_glGetColorTable@16 00435550 f   cinder:GLee.obj
 0001:00034580       _GLee_Lazy_glGetColorTableParameterfv@12 00435580 f   cinder:GLee.obj
 0001:000345b0       _GLee_Lazy_glGetColorTableParameteriv@12 004355b0 f   cinder:GLee.obj
 0001:000345e0       _GLee_Lazy_glColorSubTable@24 004355e0 f   cinder:GLee.obj
 0001:00034620       _GLee_Lazy_glCopyColorSubTable@20 00435620 f   cinder:GLee.obj
 0001:00034650       _GLee_Lazy_glConvolutionFilter1D@24 00435650 f   cinder:GLee.obj
 0001:00034690       _GLee_Lazy_glConvolutionFilter2D@28 00435690 f   cinder:GLee.obj
 0001:000346d0       _GLee_Lazy_glConvolutionParameterf@12 004356d0 f   cinder:GLee.obj
 0001:00034700       _GLee_Lazy_glConvolutionParameterfv@12 00435700 f   cinder:GLee.obj
 0001:00034730       _GLee_Lazy_glConvolutionParameteri@12 00435730 f   cinder:GLee.obj
 0001:00034760       _GLee_Lazy_glConvolutionParameteriv@12 00435760 f   cinder:GLee.obj
 0001:00034790       _GLee_Lazy_glCopyConvolutionFilter1D@20 00435790 f   cinder:GLee.obj
 0001:000347c0       _GLee_Lazy_glCopyConvolutionFilter2D@24 004357c0 f   cinder:GLee.obj
 0001:00034800       _GLee_Lazy_glGetConvolutionFilter@16 00435800 f   cinder:GLee.obj
 0001:00034830       _GLee_Lazy_glGetConvolutionParameterfv@12 00435830 f   cinder:GLee.obj
 0001:00034860       _GLee_Lazy_glGetConvolutionParameteriv@12 00435860 f   cinder:GLee.obj
 0001:00034890       _GLee_Lazy_glGetSeparableFilter@24 00435890 f   cinder:GLee.obj
 0001:000348d0       _GLee_Lazy_glSeparableFilter2D@32 004358d0 f   cinder:GLee.obj
 0001:00034910       _GLee_Lazy_glGetHistogram@20 00435910 f   cinder:GLee.obj
 0001:00034940       _GLee_Lazy_glGetHistogramParameterfv@12 00435940 f   cinder:GLee.obj
 0001:00034970       _GLee_Lazy_glGetHistogramParameteriv@12 00435970 f   cinder:GLee.obj
 0001:000349a0       _GLee_Lazy_glGetMinmax@20  004359a0 f   cinder:GLee.obj
 0001:000349d0       _GLee_Lazy_glGetMinmaxParameterfv@12 004359d0 f   cinder:GLee.obj
 0001:00034a00       _GLee_Lazy_glGetMinmaxParameteriv@12 00435a00 f   cinder:GLee.obj
 0001:00034a30       _GLee_Lazy_glHistogram@16  00435a30 f   cinder:GLee.obj
 0001:00034a60       _GLee_Lazy_glMinmax@12     00435a60 f   cinder:GLee.obj
 0001:00034a90       _GLee_Lazy_glResetHistogram@4 00435a90 f   cinder:GLee.obj
 0001:00034ab0       _GLee_Lazy_glResetMinmax@4 00435ab0 f   cinder:GLee.obj
 0001:00034ad0       _GLee_Lazy_glTexImage3D@40 00435ad0 f   cinder:GLee.obj
 0001:00034b20       _GLee_Lazy_glTexSubImage3D@44 00435b20 f   cinder:GLee.obj
 0001:00034b70       _GLee_Lazy_glCopyTexSubImage3D@36 00435b70 f   cinder:GLee.obj
 0001:00034bb0       _GLee_Lazy_glActiveTexture@4 00435bb0 f   cinder:GLee.obj
 0001:00034bd0       _GLee_Lazy_glClientActiveTexture@4 00435bd0 f   cinder:GLee.obj
 0001:00034bf0       _GLee_Lazy_glMultiTexCoord1d@12 00435bf0 f   cinder:GLee.obj
 0001:00034c20       _GLee_Lazy_glMultiTexCoord1dv@8 00435c20 f   cinder:GLee.obj
 0001:00034c50       _GLee_Lazy_glMultiTexCoord1f@8 00435c50 f   cinder:GLee.obj
 0001:00034c80       _GLee_Lazy_glMultiTexCoord1fv@8 00435c80 f   cinder:GLee.obj
 0001:00034cb0       _GLee_Lazy_glMultiTexCoord1i@8 00435cb0 f   cinder:GLee.obj
 0001:00034ce0       _GLee_Lazy_glMultiTexCoord1iv@8 00435ce0 f   cinder:GLee.obj
 0001:00034d10       _GLee_Lazy_glMultiTexCoord1s@8 00435d10 f   cinder:GLee.obj
 0001:00034d40       _GLee_Lazy_glMultiTexCoord1sv@8 00435d40 f   cinder:GLee.obj
 0001:00034d70       _GLee_Lazy_glMultiTexCoord2d@20 00435d70 f   cinder:GLee.obj
 0001:00034da0       _GLee_Lazy_glMultiTexCoord2dv@8 00435da0 f   cinder:GLee.obj
 0001:00034dd0       _GLee_Lazy_glMultiTexCoord2f@12 00435dd0 f   cinder:GLee.obj
 0001:00034e00       _GLee_Lazy_glMultiTexCoord2fv@8 00435e00 f   cinder:GLee.obj
 0001:00034e30       _GLee_Lazy_glMultiTexCoord2i@12 00435e30 f   cinder:GLee.obj
 0001:00034e60       _GLee_Lazy_glMultiTexCoord2iv@8 00435e60 f   cinder:GLee.obj
 0001:00034e90       _GLee_Lazy_glMultiTexCoord2s@12 00435e90 f   cinder:GLee.obj
 0001:00034ec0       _GLee_Lazy_glMultiTexCoord2sv@8 00435ec0 f   cinder:GLee.obj
 0001:00034ef0       _GLee_Lazy_glMultiTexCoord3d@28 00435ef0 f   cinder:GLee.obj
 0001:00034f30       _GLee_Lazy_glMultiTexCoord3dv@8 00435f30 f   cinder:GLee.obj
 0001:00034f60       _GLee_Lazy_glMultiTexCoord3f@16 00435f60 f   cinder:GLee.obj
 0001:00034fa0       _GLee_Lazy_glMultiTexCoord3fv@8 00435fa0 f   cinder:GLee.obj
 0001:00034fd0       _GLee_Lazy_glMultiTexCoord3i@16 00435fd0 f   cinder:GLee.obj
 0001:00035000       _GLee_Lazy_glMultiTexCoord3iv@8 00436000 f   cinder:GLee.obj
 0001:00035030       _GLee_Lazy_glMultiTexCoord3s@16 00436030 f   cinder:GLee.obj
 0001:00035060       _GLee_Lazy_glMultiTexCoord3sv@8 00436060 f   cinder:GLee.obj
 0001:00035090       _GLee_Lazy_glMultiTexCoord4d@36 00436090 f   cinder:GLee.obj
 0001:000350e0       _GLee_Lazy_glMultiTexCoord4dv@8 004360e0 f   cinder:GLee.obj
 0001:00035110       _GLee_Lazy_glMultiTexCoord4f@20 00436110 f   cinder:GLee.obj
 0001:00035150       _GLee_Lazy_glMultiTexCoord4fv@8 00436150 f   cinder:GLee.obj
 0001:00035180       _GLee_Lazy_glMultiTexCoord4i@20 00436180 f   cinder:GLee.obj
 0001:000351b0       _GLee_Lazy_glMultiTexCoord4iv@8 004361b0 f   cinder:GLee.obj
 0001:000351e0       _GLee_Lazy_glMultiTexCoord4s@20 004361e0 f   cinder:GLee.obj
 0001:00035220       _GLee_Lazy_glMultiTexCoord4sv@8 00436220 f   cinder:GLee.obj
 0001:00035250       _GLee_Lazy_glLoadTransposeMatrixf@4 00436250 f   cinder:GLee.obj
 0001:00035270       _GLee_Lazy_glLoadTransposeMatrixd@4 00436270 f   cinder:GLee.obj
 0001:00035290       _GLee_Lazy_glMultTransposeMatrixf@4 00436290 f   cinder:GLee.obj
 0001:000352b0       _GLee_Lazy_glMultTransposeMatrixd@4 004362b0 f   cinder:GLee.obj
 0001:000352d0       _GLee_Lazy_glSampleCoverage@8 004362d0 f   cinder:GLee.obj
 0001:00035300       _GLee_Lazy_glCompressedTexImage3D@36 00436300 f   cinder:GLee.obj
 0001:00035340       _GLee_Lazy_glCompressedTexImage2D@32 00436340 f   cinder:GLee.obj
 0001:00035380       _GLee_Lazy_glCompressedTexImage1D@28 00436380 f   cinder:GLee.obj
 0001:000353c0       _GLee_Lazy_glCompressedTexSubImage3D@44 004363c0 f   cinder:GLee.obj
 0001:00035410       _GLee_Lazy_glCompressedTexSubImage2D@36 00436410 f   cinder:GLee.obj
 0001:00035450       _GLee_Lazy_glCompressedTexSubImage1D@28 00436450 f   cinder:GLee.obj
 0001:00035490       _GLee_Lazy_glGetCompressedTexImage@12 00436490 f   cinder:GLee.obj
 0001:000354c0       _GLee_Lazy_glBlendFuncSeparate@16 004364c0 f   cinder:GLee.obj
 0001:000354f0       _GLee_Lazy_glFogCoordf@4   004364f0 f   cinder:GLee.obj
 0001:00035510       _GLee_Lazy_glFogCoordfv@4  00436510 f   cinder:GLee.obj
 0001:00035530       _GLee_Lazy_glFogCoordd@8   00436530 f   cinder:GLee.obj
 0001:00035560       _GLee_Lazy_glFogCoorddv@4  00436560 f   cinder:GLee.obj
 0001:00035580       _GLee_Lazy_glFogCoordPointer@12 00436580 f   cinder:GLee.obj
 0001:000355b0       _GLee_Lazy_glMultiDrawArrays@16 004365b0 f   cinder:GLee.obj
 0001:000355e0       _GLee_Lazy_glMultiDrawElements@20 004365e0 f   cinder:GLee.obj
 0001:00035610       _GLee_Lazy_glPointParameterf@8 00436610 f   cinder:GLee.obj
 0001:00035640       _GLee_Lazy_glPointParameterfv@8 00436640 f   cinder:GLee.obj
 0001:00035670       _GLee_Lazy_glPointParameteri@8 00436670 f   cinder:GLee.obj
 0001:000356a0       _GLee_Lazy_glPointParameteriv@8 004366a0 f   cinder:GLee.obj
 0001:000356d0       _GLee_Lazy_glSecondaryColor3b@12 004366d0 f   cinder:GLee.obj
 0001:00035700       _GLee_Lazy_glSecondaryColor3bv@4 00436700 f   cinder:GLee.obj
 0001:00035720       _GLee_Lazy_glSecondaryColor3d@24 00436720 f   cinder:GLee.obj
 0001:00035760       _GLee_Lazy_glSecondaryColor3dv@4 00436760 f   cinder:GLee.obj
 0001:00035780       _GLee_Lazy_glSecondaryColor3f@12 00436780 f   cinder:GLee.obj
 0001:000357b0       _GLee_Lazy_glSecondaryColor3fv@4 004367b0 f   cinder:GLee.obj
 0001:000357d0       _GLee_Lazy_glSecondaryColor3i@12 004367d0 f   cinder:GLee.obj
 0001:00035800       _GLee_Lazy_glSecondaryColor3iv@4 00436800 f   cinder:GLee.obj
 0001:00035820       _GLee_Lazy_glSecondaryColor3s@12 00436820 f   cinder:GLee.obj
 0001:00035850       _GLee_Lazy_glSecondaryColor3sv@4 00436850 f   cinder:GLee.obj
 0001:00035870       _GLee_Lazy_glSecondaryColor3ub@12 00436870 f   cinder:GLee.obj
 0001:000358a0       _GLee_Lazy_glSecondaryColor3ubv@4 004368a0 f   cinder:GLee.obj
 0001:000358c0       _GLee_Lazy_glSecondaryColor3ui@12 004368c0 f   cinder:GLee.obj
 0001:000358f0       _GLee_Lazy_glSecondaryColor3uiv@4 004368f0 f   cinder:GLee.obj
 0001:00035910       _GLee_Lazy_glSecondaryColor3us@12 00436910 f   cinder:GLee.obj
 0001:00035940       _GLee_Lazy_glSecondaryColor3usv@4 00436940 f   cinder:GLee.obj
 0001:00035960       _GLee_Lazy_glSecondaryColorPointer@16 00436960 f   cinder:GLee.obj
 0001:00035990       _GLee_Lazy_glWindowPos2d@16 00436990 f   cinder:GLee.obj
 0001:000359c0       _GLee_Lazy_glWindowPos2dv@4 004369c0 f   cinder:GLee.obj
 0001:000359e0       _GLee_Lazy_glWindowPos2f@8 004369e0 f   cinder:GLee.obj
 0001:00035a10       _GLee_Lazy_glWindowPos2fv@4 00436a10 f   cinder:GLee.obj
 0001:00035a30       _GLee_Lazy_glWindowPos2i@8 00436a30 f   cinder:GLee.obj
 0001:00035a60       _GLee_Lazy_glWindowPos2iv@4 00436a60 f   cinder:GLee.obj
 0001:00035a80       _GLee_Lazy_glWindowPos2s@8 00436a80 f   cinder:GLee.obj
 0001:00035ab0       _GLee_Lazy_glWindowPos2sv@4 00436ab0 f   cinder:GLee.obj
 0001:00035ad0       _GLee_Lazy_glWindowPos3d@24 00436ad0 f   cinder:GLee.obj
 0001:00035b10       _GLee_Lazy_glWindowPos3dv@4 00436b10 f   cinder:GLee.obj
 0001:00035b30       _GLee_Lazy_glWindowPos3f@12 00436b30 f   cinder:GLee.obj
 0001:00035b60       _GLee_Lazy_glWindowPos3fv@4 00436b60 f   cinder:GLee.obj
 0001:00035b80       _GLee_Lazy_glWindowPos3i@12 00436b80 f   cinder:GLee.obj
 0001:00035bb0       _GLee_Lazy_glWindowPos3iv@4 00436bb0 f   cinder:GLee.obj
 0001:00035bd0       _GLee_Lazy_glWindowPos3s@12 00436bd0 f   cinder:GLee.obj
 0001:00035c00       _GLee_Lazy_glWindowPos3sv@4 00436c00 f   cinder:GLee.obj
 0001:00035c20       _GLee_Lazy_glGenQueries@8  00436c20 f   cinder:GLee.obj
 0001:00035c50       _GLee_Lazy_glDeleteQueries@8 00436c50 f   cinder:GLee.obj
 0001:00035c80       _GLee_Lazy_glIsQuery@4     00436c80 f   cinder:GLee.obj
 0001:00035cb0       _GLee_Lazy_glBeginQuery@8  00436cb0 f   cinder:GLee.obj
 0001:00035ce0       _GLee_Lazy_glEndQuery@4    00436ce0 f   cinder:GLee.obj
 0001:00035d00       _GLee_Lazy_glGetQueryiv@12 00436d00 f   cinder:GLee.obj
 0001:00035d30       _GLee_Lazy_glGetQueryObjectiv@12 00436d30 f   cinder:GLee.obj
 0001:00035d60       _GLee_Lazy_glGetQueryObjectuiv@12 00436d60 f   cinder:GLee.obj
 0001:00035d90       _GLee_Lazy_glBindBuffer@8  00436d90 f   cinder:GLee.obj
 0001:00035dc0       _GLee_Lazy_glDeleteBuffers@8 00436dc0 f   cinder:GLee.obj
 0001:00035df0       _GLee_Lazy_glGenBuffers@8  00436df0 f   cinder:GLee.obj
 0001:00035e20       _GLee_Lazy_glIsBuffer@4    00436e20 f   cinder:GLee.obj
 0001:00035e50       _GLee_Lazy_glBufferData@16 00436e50 f   cinder:GLee.obj
 0001:00035e80       _GLee_Lazy_glBufferSubData@16 00436e80 f   cinder:GLee.obj
 0001:00035eb0       _GLee_Lazy_glGetBufferSubData@16 00436eb0 f   cinder:GLee.obj
 0001:00035ee0       _GLee_Lazy_glMapBuffer@8   00436ee0 f   cinder:GLee.obj
 0001:00035f10       _GLee_Lazy_glUnmapBuffer@4 00436f10 f   cinder:GLee.obj
 0001:00035f40       _GLee_Lazy_glGetBufferParameteriv@12 00436f40 f   cinder:GLee.obj
 0001:00035f70       _GLee_Lazy_glGetBufferPointerv@12 00436f70 f   cinder:GLee.obj
 0001:00035fa0       _GLee_Lazy_glBlendEquationSeparate@8 00436fa0 f   cinder:GLee.obj
 0001:00035fd0       _GLee_Lazy_glDrawBuffers@8 00436fd0 f   cinder:GLee.obj
 0001:00036000       _GLee_Lazy_glStencilOpSeparate@16 00437000 f   cinder:GLee.obj
 0001:00036030       _GLee_Lazy_glStencilFuncSeparate@16 00437030 f   cinder:GLee.obj
 0001:00036060       _GLee_Lazy_glStencilMaskSeparate@8 00437060 f   cinder:GLee.obj
 0001:00036090       _GLee_Lazy_glAttachShader@8 00437090 f   cinder:GLee.obj
 0001:000360c0       _GLee_Lazy_glBindAttribLocation@12 004370c0 f   cinder:GLee.obj
 0001:000360f0       _GLee_Lazy_glCompileShader@4 004370f0 f   cinder:GLee.obj
 0001:00036110       _GLee_Lazy_glCreateProgram@0 00437110 f   cinder:GLee.obj
 0001:00036130       _GLee_Lazy_glCreateShader@4 00437130 f   cinder:GLee.obj
 0001:00036160       _GLee_Lazy_glDeleteProgram@4 00437160 f   cinder:GLee.obj
 0001:00036180       _GLee_Lazy_glDeleteShader@4 00437180 f   cinder:GLee.obj
 0001:000361a0       _GLee_Lazy_glDetachShader@8 004371a0 f   cinder:GLee.obj
 0001:000361d0       _GLee_Lazy_glDisableVertexAttribArray@4 004371d0 f   cinder:GLee.obj
 0001:000361f0       _GLee_Lazy_glEnableVertexAttribArray@4 004371f0 f   cinder:GLee.obj
 0001:00036210       _GLee_Lazy_glGetActiveAttrib@28 00437210 f   cinder:GLee.obj
 0001:00036250       _GLee_Lazy_glGetActiveUniform@28 00437250 f   cinder:GLee.obj
 0001:00036290       _GLee_Lazy_glGetAttachedShaders@16 00437290 f   cinder:GLee.obj
 0001:000362c0       _GLee_Lazy_glGetAttribLocation@8 004372c0 f   cinder:GLee.obj
 0001:000362f0       _GLee_Lazy_glGetProgramiv@12 004372f0 f   cinder:GLee.obj
 0001:00036320       _GLee_Lazy_glGetProgramInfoLog@16 00437320 f   cinder:GLee.obj
 0001:00036350       _GLee_Lazy_glGetShaderiv@12 00437350 f   cinder:GLee.obj
 0001:00036380       _GLee_Lazy_glGetShaderInfoLog@16 00437380 f   cinder:GLee.obj
 0001:000363b0       _GLee_Lazy_glGetShaderSource@16 004373b0 f   cinder:GLee.obj
 0001:000363e0       _GLee_Lazy_glGetUniformLocation@8 004373e0 f   cinder:GLee.obj
 0001:00036410       _GLee_Lazy_glGetUniformfv@12 00437410 f   cinder:GLee.obj
 0001:00036440       _GLee_Lazy_glGetUniformiv@12 00437440 f   cinder:GLee.obj
 0001:00036470       _GLee_Lazy_glGetVertexAttribdv@12 00437470 f   cinder:GLee.obj
 0001:000364a0       _GLee_Lazy_glGetVertexAttribfv@12 004374a0 f   cinder:GLee.obj
 0001:000364d0       _GLee_Lazy_glGetVertexAttribiv@12 004374d0 f   cinder:GLee.obj
 0001:00036500       _GLee_Lazy_glGetVertexAttribPointerv@12 00437500 f   cinder:GLee.obj
 0001:00036530       _GLee_Lazy_glIsProgram@4   00437530 f   cinder:GLee.obj
 0001:00036560       _GLee_Lazy_glIsShader@4    00437560 f   cinder:GLee.obj
 0001:00036590       _GLee_Lazy_glLinkProgram@4 00437590 f   cinder:GLee.obj
 0001:000365b0       _GLee_Lazy_glShaderSource@16 004375b0 f   cinder:GLee.obj
 0001:000365e0       _GLee_Lazy_glUseProgram@4  004375e0 f   cinder:GLee.obj
 0001:00036600       _GLee_Lazy_glUniform1f@8   00437600 f   cinder:GLee.obj
 0001:00036630       _GLee_Lazy_glUniform2f@12  00437630 f   cinder:GLee.obj
 0001:00036660       _GLee_Lazy_glUniform3f@16  00437660 f   cinder:GLee.obj
 0001:000366a0       _GLee_Lazy_glUniform4f@20  004376a0 f   cinder:GLee.obj
 0001:000366e0       _GLee_Lazy_glUniform1i@8   004376e0 f   cinder:GLee.obj
 0001:00036710       _GLee_Lazy_glUniform2i@12  00437710 f   cinder:GLee.obj
 0001:00036740       _GLee_Lazy_glUniform3i@16  00437740 f   cinder:GLee.obj
 0001:00036770       _GLee_Lazy_glUniform4i@20  00437770 f   cinder:GLee.obj
 0001:000367a0       _GLee_Lazy_glUniform1fv@12 004377a0 f   cinder:GLee.obj
 0001:000367d0       _GLee_Lazy_glUniform2fv@12 004377d0 f   cinder:GLee.obj
 0001:00036800       _GLee_Lazy_glUniform3fv@12 00437800 f   cinder:GLee.obj
 0001:00036830       _GLee_Lazy_glUniform4fv@12 00437830 f   cinder:GLee.obj
 0001:00036860       _GLee_Lazy_glUniform1iv@12 00437860 f   cinder:GLee.obj
 0001:00036890       _GLee_Lazy_glUniform2iv@12 00437890 f   cinder:GLee.obj
 0001:000368c0       _GLee_Lazy_glUniform3iv@12 004378c0 f   cinder:GLee.obj
 0001:000368f0       _GLee_Lazy_glUniform4iv@12 004378f0 f   cinder:GLee.obj
 0001:00036920       _GLee_Lazy_glUniformMatrix2fv@16 00437920 f   cinder:GLee.obj
 0001:00036950       _GLee_Lazy_glUniformMatrix3fv@16 00437950 f   cinder:GLee.obj
 0001:00036980       _GLee_Lazy_glUniformMatrix4fv@16 00437980 f   cinder:GLee.obj
 0001:000369b0       _GLee_Lazy_glValidateProgram@4 004379b0 f   cinder:GLee.obj
 0001:000369d0       _GLee_Lazy_glVertexAttrib1d@12 004379d0 f   cinder:GLee.obj
 0001:00036a00       _GLee_Lazy_glVertexAttrib1dv@8 00437a00 f   cinder:GLee.obj
 0001:00036a30       _GLee_Lazy_glVertexAttrib1f@8 00437a30 f   cinder:GLee.obj
 0001:00036a60       _GLee_Lazy_glVertexAttrib1fv@8 00437a60 f   cinder:GLee.obj
 0001:00036a90       _GLee_Lazy_glVertexAttrib1s@8 00437a90 f   cinder:GLee.obj
 0001:00036ac0       _GLee_Lazy_glVertexAttrib1sv@8 00437ac0 f   cinder:GLee.obj
 0001:00036af0       _GLee_Lazy_glVertexAttrib2d@20 00437af0 f   cinder:GLee.obj
 0001:00036b20       _GLee_Lazy_glVertexAttrib2dv@8 00437b20 f   cinder:GLee.obj
 0001:00036b50       _GLee_Lazy_glVertexAttrib2f@12 00437b50 f   cinder:GLee.obj
 0001:00036b80       _GLee_Lazy_glVertexAttrib2fv@8 00437b80 f   cinder:GLee.obj
 0001:00036bb0       _GLee_Lazy_glVertexAttrib2s@12 00437bb0 f   cinder:GLee.obj
 0001:00036be0       _GLee_Lazy_glVertexAttrib2sv@8 00437be0 f   cinder:GLee.obj
 0001:00036c10       _GLee_Lazy_glVertexAttrib3d@28 00437c10 f   cinder:GLee.obj
 0001:00036c50       _GLee_Lazy_glVertexAttrib3dv@8 00437c50 f   cinder:GLee.obj
 0001:00036c80       _GLee_Lazy_glVertexAttrib3f@16 00437c80 f   cinder:GLee.obj
 0001:00036cc0       _GLee_Lazy_glVertexAttrib3fv@8 00437cc0 f   cinder:GLee.obj
 0001:00036cf0       _GLee_Lazy_glVertexAttrib3s@16 00437cf0 f   cinder:GLee.obj
 0001:00036d20       _GLee_Lazy_glVertexAttrib3sv@8 00437d20 f   cinder:GLee.obj
 0001:00036d50       _GLee_Lazy_glVertexAttrib4Nbv@8 00437d50 f   cinder:GLee.obj
 0001:00036d80       _GLee_Lazy_glVertexAttrib4Niv@8 00437d80 f   cinder:GLee.obj
 0001:00036db0       _GLee_Lazy_glVertexAttrib4Nsv@8 00437db0 f   cinder:GLee.obj
 0001:00036de0       _GLee_Lazy_glVertexAttrib4Nub@20 00437de0 f   cinder:GLee.obj
 0001:00036e20       _GLee_Lazy_glVertexAttrib4Nubv@8 00437e20 f   cinder:GLee.obj
 0001:00036e50       _GLee_Lazy_glVertexAttrib4Nuiv@8 00437e50 f   cinder:GLee.obj
 0001:00036e80       _GLee_Lazy_glVertexAttrib4Nusv@8 00437e80 f   cinder:GLee.obj
 0001:00036eb0       _GLee_Lazy_glVertexAttrib4bv@8 00437eb0 f   cinder:GLee.obj
 0001:00036ee0       _GLee_Lazy_glVertexAttrib4d@36 00437ee0 f   cinder:GLee.obj
 0001:00036f30       _GLee_Lazy_glVertexAttrib4dv@8 00437f30 f   cinder:GLee.obj
 0001:00036f60       _GLee_Lazy_glVertexAttrib4f@20 00437f60 f   cinder:GLee.obj
 0001:00036fa0       _GLee_Lazy_glVertexAttrib4fv@8 00437fa0 f   cinder:GLee.obj
 0001:00036fd0       _GLee_Lazy_glVertexAttrib4iv@8 00437fd0 f   cinder:GLee.obj
 0001:00037000       _GLee_Lazy_glVertexAttrib4s@20 00438000 f   cinder:GLee.obj
 0001:00037040       _GLee_Lazy_glVertexAttrib4sv@8 00438040 f   cinder:GLee.obj
 0001:00037070       _GLee_Lazy_glVertexAttrib4ubv@8 00438070 f   cinder:GLee.obj
 0001:000370a0       _GLee_Lazy_glVertexAttrib4uiv@8 004380a0 f   cinder:GLee.obj
 0001:000370d0       _GLee_Lazy_glVertexAttrib4usv@8 004380d0 f   cinder:GLee.obj
 0001:00037100       _GLee_Lazy_glVertexAttribPointer@24 00438100 f   cinder:GLee.obj
 0001:00037140       _GLee_Lazy_glUniformMatrix2x3fv@16 00438140 f   cinder:GLee.obj
 0001:00037170       _GLee_Lazy_glUniformMatrix3x2fv@16 00438170 f   cinder:GLee.obj
 0001:000371a0       _GLee_Lazy_glUniformMatrix2x4fv@16 004381a0 f   cinder:GLee.obj
 0001:000371d0       _GLee_Lazy_glUniformMatrix4x2fv@16 004381d0 f   cinder:GLee.obj
 0001:00037200       _GLee_Lazy_glUniformMatrix3x4fv@16 00438200 f   cinder:GLee.obj
 0001:00037230       _GLee_Lazy_glUniformMatrix4x3fv@16 00438230 f   cinder:GLee.obj
 0001:00037260       _GLee_Lazy_glColorMaski@20 00438260 f   cinder:GLee.obj
 0001:000372a0       _GLee_Lazy_glGetBooleani_v@12 004382a0 f   cinder:GLee.obj
 0001:000372d0       _GLee_Lazy_glGetIntegeri_v@12 004382d0 f   cinder:GLee.obj
 0001:00037300       _GLee_Lazy_glEnablei@8     00438300 f   cinder:GLee.obj
 0001:00037330       _GLee_Lazy_glDisablei@8    00438330 f   cinder:GLee.obj
 0001:00037360       _GLee_Lazy_glIsEnabledi@8  00438360 f   cinder:GLee.obj
 0001:00037390       _GLee_Lazy_glBeginTransformFeedback@4 00438390 f   cinder:GLee.obj
 0001:000373b0       _GLee_Lazy_glEndTransformFeedback@0 004383b0 f   cinder:GLee.obj
 0001:000373d0       _GLee_Lazy_glBindBufferRange@20 004383d0 f   cinder:GLee.obj
 0001:00037400       _GLee_Lazy_glBindBufferBase@12 00438400 f   cinder:GLee.obj
 0001:00037430       _GLee_Lazy_glTransformFeedbackVaryings@16 00438430 f   cinder:GLee.obj
 0001:00037460       _GLee_Lazy_glGetTransformFeedbackVarying@12 00438460 f   cinder:GLee.obj
 0001:00037490       _GLee_Lazy_glClampColor@8  00438490 f   cinder:GLee.obj
 0001:000374c0       _GLee_Lazy_glBeginConditionalRender@8 004384c0 f   cinder:GLee.obj
 0001:000374f0       _GLee_Lazy_glEndConditionalRender@0 004384f0 f   cinder:GLee.obj
 0001:00037510       _GLee_Lazy_glVertexAttribI1i@8 00438510 f   cinder:GLee.obj
 0001:00037540       _GLee_Lazy_glVertexAttribI2i@12 00438540 f   cinder:GLee.obj
 0001:00037570       _GLee_Lazy_glVertexAttribI3i@16 00438570 f   cinder:GLee.obj
 0001:000375a0       _GLee_Lazy_glVertexAttribI4i@20 004385a0 f   cinder:GLee.obj
 0001:000375d0       _GLee_Lazy_glVertexAttribI1ui@8 004385d0 f   cinder:GLee.obj
 0001:00037600       _GLee_Lazy_glVertexAttribI2ui@12 00438600 f   cinder:GLee.obj
 0001:00037630       _GLee_Lazy_glVertexAttribI3ui@16 00438630 f   cinder:GLee.obj
 0001:00037660       _GLee_Lazy_glVertexAttribI4ui@20 00438660 f   cinder:GLee.obj
 0001:00037690       _GLee_Lazy_glVertexAttribI1iv@8 00438690 f   cinder:GLee.obj
 0001:000376c0       _GLee_Lazy_glVertexAttribI2iv@8 004386c0 f   cinder:GLee.obj
 0001:000376f0       _GLee_Lazy_glVertexAttribI3iv@8 004386f0 f   cinder:GLee.obj
 0001:00037720       _GLee_Lazy_glVertexAttribI4iv@8 00438720 f   cinder:GLee.obj
 0001:00037750       _GLee_Lazy_glVertexAttribI1uiv@8 00438750 f   cinder:GLee.obj
 0001:00037780       _GLee_Lazy_glVertexAttribI2uiv@8 00438780 f   cinder:GLee.obj
 0001:000377b0       _GLee_Lazy_glVertexAttribI3uiv@8 004387b0 f   cinder:GLee.obj
 0001:000377e0       _GLee_Lazy_glVertexAttribI4uiv@8 004387e0 f   cinder:GLee.obj
 0001:00037810       _GLee_Lazy_glVertexAttribI4bv@8 00438810 f   cinder:GLee.obj
 0001:00037840       _GLee_Lazy_glVertexAttribI4sv@8 00438840 f   cinder:GLee.obj
 0001:00037870       _GLee_Lazy_glVertexAttribI4ubv@8 00438870 f   cinder:GLee.obj
 0001:000378a0       _GLee_Lazy_glVertexAttribI4usv@8 004388a0 f   cinder:GLee.obj
 0001:000378d0       _GLee_Lazy_glVertexAttribIPointer@20 004388d0 f   cinder:GLee.obj
 0001:00037900       _GLee_Lazy_glGetVertexAttribIiv@12 00438900 f   cinder:GLee.obj
 0001:00037930       _GLee_Lazy_glGetVertexAttribIuiv@12 00438930 f   cinder:GLee.obj
 0001:00037960       _GLee_Lazy_glGetUniformuiv@12 00438960 f   cinder:GLee.obj
 0001:00037990       _GLee_Lazy_glBindFragDataLocation@12 00438990 f   cinder:GLee.obj
 0001:000379c0       _GLee_Lazy_glGetFragDataLocation@8 004389c0 f   cinder:GLee.obj
 0001:000379f0       _GLee_Lazy_glUniform1ui@8  004389f0 f   cinder:GLee.obj
 0001:00037a20       _GLee_Lazy_glUniform2ui@12 00438a20 f   cinder:GLee.obj
 0001:00037a50       _GLee_Lazy_glUniform3ui@16 00438a50 f   cinder:GLee.obj
 0001:00037a80       _GLee_Lazy_glUniform4ui@20 00438a80 f   cinder:GLee.obj
 0001:00037ab0       _GLee_Lazy_glUniform1uiv@12 00438ab0 f   cinder:GLee.obj
 0001:00037ae0       _GLee_Lazy_glUniform2uiv@12 00438ae0 f   cinder:GLee.obj
 0001:00037b10       _GLee_Lazy_glUniform3uiv@12 00438b10 f   cinder:GLee.obj
 0001:00037b40       _GLee_Lazy_glUniform4uiv@12 00438b40 f   cinder:GLee.obj
 0001:00037b70       _GLee_Lazy_glTexParameterIiv@12 00438b70 f   cinder:GLee.obj
 0001:00037ba0       _GLee_Lazy_glTexParameterIuiv@12 00438ba0 f   cinder:GLee.obj
 0001:00037bd0       _GLee_Lazy_glGetTexParameterIiv@12 00438bd0 f   cinder:GLee.obj
 0001:00037c00       _GLee_Lazy_glGetTexParameterIuiv@12 00438c00 f   cinder:GLee.obj
 0001:00037c30       _GLee_Lazy_glClearBufferiv@12 00438c30 f   cinder:GLee.obj
 0001:00037c60       _GLee_Lazy_glClearBufferuiv@12 00438c60 f   cinder:GLee.obj
 0001:00037c90       _GLee_Lazy_glClearBufferfv@12 00438c90 f   cinder:GLee.obj
 0001:00037cc0       _GLee_Lazy_glClearBufferfi@16 00438cc0 f   cinder:GLee.obj
 0001:00037cf0       _GLee_Lazy_glGetStringi@8  00438cf0 f   cinder:GLee.obj
 0001:00037d20       _GLee_Lazy_glActiveTextureARB@4 00438d20 f   cinder:GLee.obj
 0001:00037d40       _GLee_Lazy_glClientActiveTextureARB@4 00438d40 f   cinder:GLee.obj
 0001:00037d60       _GLee_Lazy_glMultiTexCoord1dARB@12 00438d60 f   cinder:GLee.obj
 0001:00037d90       _GLee_Lazy_glMultiTexCoord1dvARB@8 00438d90 f   cinder:GLee.obj
 0001:00037dc0       _GLee_Lazy_glMultiTexCoord1fARB@8 00438dc0 f   cinder:GLee.obj
 0001:00037df0       _GLee_Lazy_glMultiTexCoord1fvARB@8 00438df0 f   cinder:GLee.obj
 0001:00037e20       _GLee_Lazy_glMultiTexCoord1iARB@8 00438e20 f   cinder:GLee.obj
 0001:00037e50       _GLee_Lazy_glMultiTexCoord1ivARB@8 00438e50 f   cinder:GLee.obj
 0001:00037e80       _GLee_Lazy_glMultiTexCoord1sARB@8 00438e80 f   cinder:GLee.obj
 0001:00037eb0       _GLee_Lazy_glMultiTexCoord1svARB@8 00438eb0 f   cinder:GLee.obj
 0001:00037ee0       _GLee_Lazy_glMultiTexCoord2dARB@20 00438ee0 f   cinder:GLee.obj
 0001:00037f10       _GLee_Lazy_glMultiTexCoord2dvARB@8 00438f10 f   cinder:GLee.obj
 0001:00037f40       _GLee_Lazy_glMultiTexCoord2fARB@12 00438f40 f   cinder:GLee.obj
 0001:00037f70       _GLee_Lazy_glMultiTexCoord2fvARB@8 00438f70 f   cinder:GLee.obj
 0001:00037fa0       _GLee_Lazy_glMultiTexCoord2iARB@12 00438fa0 f   cinder:GLee.obj
 0001:00037fd0       _GLee_Lazy_glMultiTexCoord2ivARB@8 00438fd0 f   cinder:GLee.obj
 0001:00038000       _GLee_Lazy_glMultiTexCoord2sARB@12 00439000 f   cinder:GLee.obj
 0001:00038030       _GLee_Lazy_glMultiTexCoord2svARB@8 00439030 f   cinder:GLee.obj
 0001:00038060       _GLee_Lazy_glMultiTexCoord3dARB@28 00439060 f   cinder:GLee.obj
 0001:000380a0       _GLee_Lazy_glMultiTexCoord3dvARB@8 004390a0 f   cinder:GLee.obj
 0001:000380d0       _GLee_Lazy_glMultiTexCoord3fARB@16 004390d0 f   cinder:GLee.obj
 0001:00038110       _GLee_Lazy_glMultiTexCoord3fvARB@8 00439110 f   cinder:GLee.obj
 0001:00038140       _GLee_Lazy_glMultiTexCoord3iARB@16 00439140 f   cinder:GLee.obj
 0001:00038170       _GLee_Lazy_glMultiTexCoord3ivARB@8 00439170 f   cinder:GLee.obj
 0001:000381a0       _GLee_Lazy_glMultiTexCoord3sARB@16 004391a0 f   cinder:GLee.obj
 0001:000381d0       _GLee_Lazy_glMultiTexCoord3svARB@8 004391d0 f   cinder:GLee.obj
 0001:00038200       _GLee_Lazy_glMultiTexCoord4dARB@36 00439200 f   cinder:GLee.obj
 0001:00038250       _GLee_Lazy_glMultiTexCoord4dvARB@8 00439250 f   cinder:GLee.obj
 0001:00038280       _GLee_Lazy_glMultiTexCoord4fARB@20 00439280 f   cinder:GLee.obj
 0001:000382c0       _GLee_Lazy_glMultiTexCoord4fvARB@8 004392c0 f   cinder:GLee.obj
 0001:000382f0       _GLee_Lazy_glMultiTexCoord4iARB@20 004392f0 f   cinder:GLee.obj
 0001:00038320       _GLee_Lazy_glMultiTexCoord4ivARB@8 00439320 f   cinder:GLee.obj
 0001:00038350       _GLee_Lazy_glMultiTexCoord4sARB@20 00439350 f   cinder:GLee.obj
 0001:00038390       _GLee_Lazy_glMultiTexCoord4svARB@8 00439390 f   cinder:GLee.obj
 0001:000383c0       _GLee_Lazy_glLoadTransposeMatrixfARB@4 004393c0 f   cinder:GLee.obj
 0001:000383e0       _GLee_Lazy_glLoadTransposeMatrixdARB@4 004393e0 f   cinder:GLee.obj
 0001:00038400       _GLee_Lazy_glMultTransposeMatrixfARB@4 00439400 f   cinder:GLee.obj
 0001:00038420       _GLee_Lazy_glMultTransposeMatrixdARB@4 00439420 f   cinder:GLee.obj
 0001:00038440       _GLee_Lazy_glSampleCoverageARB@8 00439440 f   cinder:GLee.obj
 0001:00038470       _GLee_Lazy_glCompressedTexImage3DARB@36 00439470 f   cinder:GLee.obj
 0001:000384b0       _GLee_Lazy_glCompressedTexImage2DARB@32 004394b0 f   cinder:GLee.obj
 0001:000384f0       _GLee_Lazy_glCompressedTexImage1DARB@28 004394f0 f   cinder:GLee.obj
 0001:00038530       _GLee_Lazy_glCompressedTexSubImage3DARB@44 00439530 f   cinder:GLee.obj
 0001:00038580       _GLee_Lazy_glCompressedTexSubImage2DARB@36 00439580 f   cinder:GLee.obj
 0001:000385c0       _GLee_Lazy_glCompressedTexSubImage1DARB@28 004395c0 f   cinder:GLee.obj
 0001:00038600       _GLee_Lazy_glGetCompressedTexImageARB@12 00439600 f   cinder:GLee.obj
 0001:00038630       _GLee_Lazy_glPointParameterfARB@8 00439630 f   cinder:GLee.obj
 0001:00038660       _GLee_Lazy_glPointParameterfvARB@8 00439660 f   cinder:GLee.obj
 0001:00038690       _GLee_Lazy_glWeightbvARB@8 00439690 f   cinder:GLee.obj
 0001:000386c0       _GLee_Lazy_glWeightsvARB@8 004396c0 f   cinder:GLee.obj
 0001:000386f0       _GLee_Lazy_glWeightivARB@8 004396f0 f   cinder:GLee.obj
 0001:00038720       _GLee_Lazy_glWeightfvARB@8 00439720 f   cinder:GLee.obj
 0001:00038750       _GLee_Lazy_glWeightdvARB@8 00439750 f   cinder:GLee.obj
 0001:00038780       _GLee_Lazy_glWeightubvARB@8 00439780 f   cinder:GLee.obj
 0001:000387b0       _GLee_Lazy_glWeightusvARB@8 004397b0 f   cinder:GLee.obj
 0001:000387e0       _GLee_Lazy_glWeightuivARB@8 004397e0 f   cinder:GLee.obj
 0001:00038810       _GLee_Lazy_glWeightPointerARB@16 00439810 f   cinder:GLee.obj
 0001:00038840       _GLee_Lazy_glVertexBlendARB@4 00439840 f   cinder:GLee.obj
 0001:00038860       _GLee_Lazy_glCurrentPaletteMatrixARB@4 00439860 f   cinder:GLee.obj
 0001:00038880       _GLee_Lazy_glMatrixIndexubvARB@8 00439880 f   cinder:GLee.obj
 0001:000388b0       _GLee_Lazy_glMatrixIndexusvARB@8 004398b0 f   cinder:GLee.obj
 0001:000388e0       _GLee_Lazy_glMatrixIndexuivARB@8 004398e0 f   cinder:GLee.obj
 0001:00038910       _GLee_Lazy_glMatrixIndexPointerARB@16 00439910 f   cinder:GLee.obj
 0001:00038940       _GLee_Lazy_glWindowPos2dARB@16 00439940 f   cinder:GLee.obj
 0001:00038970       _GLee_Lazy_glWindowPos2dvARB@4 00439970 f   cinder:GLee.obj
 0001:00038990       _GLee_Lazy_glWindowPos2fARB@8 00439990 f   cinder:GLee.obj
 0001:000389c0       _GLee_Lazy_glWindowPos2fvARB@4 004399c0 f   cinder:GLee.obj
 0001:000389e0       _GLee_Lazy_glWindowPos2iARB@8 004399e0 f   cinder:GLee.obj
 0001:00038a10       _GLee_Lazy_glWindowPos2ivARB@4 00439a10 f   cinder:GLee.obj
 0001:00038a30       _GLee_Lazy_glWindowPos2sARB@8 00439a30 f   cinder:GLee.obj
 0001:00038a60       _GLee_Lazy_glWindowPos2svARB@4 00439a60 f   cinder:GLee.obj
 0001:00038a80       _GLee_Lazy_glWindowPos3dARB@24 00439a80 f   cinder:GLee.obj
 0001:00038ac0       _GLee_Lazy_glWindowPos3dvARB@4 00439ac0 f   cinder:GLee.obj
 0001:00038ae0       _GLee_Lazy_glWindowPos3fARB@12 00439ae0 f   cinder:GLee.obj
 0001:00038b10       _GLee_Lazy_glWindowPos3fvARB@4 00439b10 f   cinder:GLee.obj
 0001:00038b30       _GLee_Lazy_glWindowPos3iARB@12 00439b30 f   cinder:GLee.obj
 0001:00038b60       _GLee_Lazy_glWindowPos3ivARB@4 00439b60 f   cinder:GLee.obj
 0001:00038b80       _GLee_Lazy_glWindowPos3sARB@12 00439b80 f   cinder:GLee.obj
 0001:00038bb0       _GLee_Lazy_glWindowPos3svARB@4 00439bb0 f   cinder:GLee.obj
 0001:00038bd0       _GLee_Lazy_glVertexAttrib1dARB@12 00439bd0 f   cinder:GLee.obj
 0001:00038c00       _GLee_Lazy_glVertexAttrib1dvARB@8 00439c00 f   cinder:GLee.obj
 0001:00038c30       _GLee_Lazy_glVertexAttrib1fARB@8 00439c30 f   cinder:GLee.obj
 0001:00038c60       _GLee_Lazy_glVertexAttrib1fvARB@8 00439c60 f   cinder:GLee.obj
 0001:00038c90       _GLee_Lazy_glVertexAttrib1sARB@8 00439c90 f   cinder:GLee.obj
 0001:00038cc0       _GLee_Lazy_glVertexAttrib1svARB@8 00439cc0 f   cinder:GLee.obj
 0001:00038cf0       _GLee_Lazy_glVertexAttrib2dARB@20 00439cf0 f   cinder:GLee.obj
 0001:00038d20       _GLee_Lazy_glVertexAttrib2dvARB@8 00439d20 f   cinder:GLee.obj
 0001:00038d50       _GLee_Lazy_glVertexAttrib2fARB@12 00439d50 f   cinder:GLee.obj
 0001:00038d80       _GLee_Lazy_glVertexAttrib2fvARB@8 00439d80 f   cinder:GLee.obj
 0001:00038db0       _GLee_Lazy_glVertexAttrib2sARB@12 00439db0 f   cinder:GLee.obj
 0001:00038de0       _GLee_Lazy_glVertexAttrib2svARB@8 00439de0 f   cinder:GLee.obj
 0001:00038e10       _GLee_Lazy_glVertexAttrib3dARB@28 00439e10 f   cinder:GLee.obj
 0001:00038e50       _GLee_Lazy_glVertexAttrib3dvARB@8 00439e50 f   cinder:GLee.obj
 0001:00038e80       _GLee_Lazy_glVertexAttrib3fARB@16 00439e80 f   cinder:GLee.obj
 0001:00038ec0       _GLee_Lazy_glVertexAttrib3fvARB@8 00439ec0 f   cinder:GLee.obj
 0001:00038ef0       _GLee_Lazy_glVertexAttrib3sARB@16 00439ef0 f   cinder:GLee.obj
 0001:00038f20       _GLee_Lazy_glVertexAttrib3svARB@8 00439f20 f   cinder:GLee.obj
 0001:00038f50       _GLee_Lazy_glVertexAttrib4NbvARB@8 00439f50 f   cinder:GLee.obj
 0001:00038f80       _GLee_Lazy_glVertexAttrib4NivARB@8 00439f80 f   cinder:GLee.obj
 0001:00038fb0       _GLee_Lazy_glVertexAttrib4NsvARB@8 00439fb0 f   cinder:GLee.obj
 0001:00038fe0       _GLee_Lazy_glVertexAttrib4NubARB@20 00439fe0 f   cinder:GLee.obj
 0001:00039020       _GLee_Lazy_glVertexAttrib4NubvARB@8 0043a020 f   cinder:GLee.obj
 0001:00039050       _GLee_Lazy_glVertexAttrib4NuivARB@8 0043a050 f   cinder:GLee.obj
 0001:00039080       _GLee_Lazy_glVertexAttrib4NusvARB@8 0043a080 f   cinder:GLee.obj
 0001:000390b0       _GLee_Lazy_glVertexAttrib4bvARB@8 0043a0b0 f   cinder:GLee.obj
 0001:000390e0       _GLee_Lazy_glVertexAttrib4dARB@36 0043a0e0 f   cinder:GLee.obj
 0001:00039130       _GLee_Lazy_glVertexAttrib4dvARB@8 0043a130 f   cinder:GLee.obj
 0001:00039160       _GLee_Lazy_glVertexAttrib4fARB@20 0043a160 f   cinder:GLee.obj
 0001:000391a0       _GLee_Lazy_glVertexAttrib4fvARB@8 0043a1a0 f   cinder:GLee.obj
 0001:000391d0       _GLee_Lazy_glVertexAttrib4ivARB@8 0043a1d0 f   cinder:GLee.obj
 0001:00039200       _GLee_Lazy_glVertexAttrib4sARB@20 0043a200 f   cinder:GLee.obj
 0001:00039240       _GLee_Lazy_glVertexAttrib4svARB@8 0043a240 f   cinder:GLee.obj
 0001:00039270       _GLee_Lazy_glVertexAttrib4ubvARB@8 0043a270 f   cinder:GLee.obj
 0001:000392a0       _GLee_Lazy_glVertexAttrib4uivARB@8 0043a2a0 f   cinder:GLee.obj
 0001:000392d0       _GLee_Lazy_glVertexAttrib4usvARB@8 0043a2d0 f   cinder:GLee.obj
 0001:00039300       _GLee_Lazy_glVertexAttribPointerARB@24 0043a300 f   cinder:GLee.obj
 0001:00039340       _GLee_Lazy_glEnableVertexAttribArrayARB@4 0043a340 f   cinder:GLee.obj
 0001:00039360       _GLee_Lazy_glDisableVertexAttribArrayARB@4 0043a360 f   cinder:GLee.obj
 0001:00039380       _GLee_Lazy_glProgramStringARB@16 0043a380 f   cinder:GLee.obj
 0001:000393b0       _GLee_Lazy_glBindProgramARB@8 0043a3b0 f   cinder:GLee.obj
 0001:000393e0       _GLee_Lazy_glDeleteProgramsARB@8 0043a3e0 f   cinder:GLee.obj
 0001:00039410       _GLee_Lazy_glGenProgramsARB@8 0043a410 f   cinder:GLee.obj
 0001:00039440       _GLee_Lazy_glProgramEnvParameter4dARB@40 0043a440 f   cinder:GLee.obj
 0001:00039490       _GLee_Lazy_glProgramEnvParameter4dvARB@12 0043a490 f   cinder:GLee.obj
 0001:000394c0       _GLee_Lazy_glProgramEnvParameter4fARB@24 0043a4c0 f   cinder:GLee.obj
 0001:00039500       _GLee_Lazy_glProgramEnvParameter4fvARB@12 0043a500 f   cinder:GLee.obj
 0001:00039530       _GLee_Lazy_glProgramLocalParameter4dARB@40 0043a530 f   cinder:GLee.obj
 0001:00039580       _GLee_Lazy_glProgramLocalParameter4dvARB@12 0043a580 f   cinder:GLee.obj
 0001:000395b0       _GLee_Lazy_glProgramLocalParameter4fARB@24 0043a5b0 f   cinder:GLee.obj
 0001:000395f0       _GLee_Lazy_glProgramLocalParameter4fvARB@12 0043a5f0 f   cinder:GLee.obj
 0001:00039620       _GLee_Lazy_glGetProgramEnvParameterdvARB@12 0043a620 f   cinder:GLee.obj
 0001:00039650       _GLee_Lazy_glGetProgramEnvParameterfvARB@12 0043a650 f   cinder:GLee.obj
 0001:00039680       _GLee_Lazy_glGetProgramLocalParameterdvARB@12 0043a680 f   cinder:GLee.obj
 0001:000396b0       _GLee_Lazy_glGetProgramLocalParameterfvARB@12 0043a6b0 f   cinder:GLee.obj
 0001:000396e0       _GLee_Lazy_glGetProgramivARB@12 0043a6e0 f   cinder:GLee.obj
 0001:00039710       _GLee_Lazy_glGetProgramStringARB@12 0043a710 f   cinder:GLee.obj
 0001:00039740       _GLee_Lazy_glGetVertexAttribdvARB@12 0043a740 f   cinder:GLee.obj
 0001:00039770       _GLee_Lazy_glGetVertexAttribfvARB@12 0043a770 f   cinder:GLee.obj
 0001:000397a0       _GLee_Lazy_glGetVertexAttribivARB@12 0043a7a0 f   cinder:GLee.obj
 0001:000397d0       _GLee_Lazy_glGetVertexAttribPointervARB@12 0043a7d0 f   cinder:GLee.obj
 0001:00039800       _GLee_Lazy_glIsProgramARB@4 0043a800 f   cinder:GLee.obj
 0001:00039830       _GLee_Lazy_glBindBufferARB@8 0043a830 f   cinder:GLee.obj
 0001:00039860       _GLee_Lazy_glDeleteBuffersARB@8 0043a860 f   cinder:GLee.obj
 0001:00039890       _GLee_Lazy_glGenBuffersARB@8 0043a890 f   cinder:GLee.obj
 0001:000398c0       _GLee_Lazy_glIsBufferARB@4 0043a8c0 f   cinder:GLee.obj
 0001:000398f0       _GLee_Lazy_glBufferDataARB@16 0043a8f0 f   cinder:GLee.obj
 0001:00039920       _GLee_Lazy_glBufferSubDataARB@16 0043a920 f   cinder:GLee.obj
 0001:00039950       _GLee_Lazy_glGetBufferSubDataARB@16 0043a950 f   cinder:GLee.obj
 0001:00039980       _GLee_Lazy_glMapBufferARB@8 0043a980 f   cinder:GLee.obj
 0001:000399b0       _GLee_Lazy_glUnmapBufferARB@4 0043a9b0 f   cinder:GLee.obj
 0001:000399e0       _GLee_Lazy_glGetBufferParameterivARB@12 0043a9e0 f   cinder:GLee.obj
 0001:00039a10       _GLee_Lazy_glGetBufferPointervARB@12 0043aa10 f   cinder:GLee.obj
 0001:00039a40       _GLee_Lazy_glGenQueriesARB@8 0043aa40 f   cinder:GLee.obj
 0001:00039a70       _GLee_Lazy_glDeleteQueriesARB@8 0043aa70 f   cinder:GLee.obj
 0001:00039aa0       _GLee_Lazy_glIsQueryARB@4  0043aaa0 f   cinder:GLee.obj
 0001:00039ad0       _GLee_Lazy_glBeginQueryARB@8 0043aad0 f   cinder:GLee.obj
 0001:00039b00       _GLee_Lazy_glEndQueryARB@4 0043ab00 f   cinder:GLee.obj
 0001:00039b20       _GLee_Lazy_glGetQueryivARB@12 0043ab20 f   cinder:GLee.obj
 0001:00039b50       _GLee_Lazy_glGetQueryObjectivARB@12 0043ab50 f   cinder:GLee.obj
 0001:00039b80       _GLee_Lazy_glGetQueryObjectuivARB@12 0043ab80 f   cinder:GLee.obj
 0001:00039bb0       _GLee_Lazy_glDeleteObjectARB@4 0043abb0 f   cinder:GLee.obj
 0001:00039bd0       _GLee_Lazy_glGetHandleARB@4 0043abd0 f   cinder:GLee.obj
 0001:00039c00       _GLee_Lazy_glDetachObjectARB@8 0043ac00 f   cinder:GLee.obj
 0001:00039c30       _GLee_Lazy_glCreateShaderObjectARB@4 0043ac30 f   cinder:GLee.obj
 0001:00039c60       _GLee_Lazy_glShaderSourceARB@16 0043ac60 f   cinder:GLee.obj
 0001:00039c90       _GLee_Lazy_glCompileShaderARB@4 0043ac90 f   cinder:GLee.obj
 0001:00039cb0       _GLee_Lazy_glCreateProgramObjectARB@0 0043acb0 f   cinder:GLee.obj
 0001:00039cd0       _GLee_Lazy_glAttachObjectARB@8 0043acd0 f   cinder:GLee.obj
 0001:00039d00       _GLee_Lazy_glLinkProgramARB@4 0043ad00 f   cinder:GLee.obj
 0001:00039d20       _GLee_Lazy_glUseProgramObjectARB@4 0043ad20 f   cinder:GLee.obj
 0001:00039d40       _GLee_Lazy_glValidateProgramARB@4 0043ad40 f   cinder:GLee.obj
 0001:00039d60       _GLee_Lazy_glUniform1fARB@8 0043ad60 f   cinder:GLee.obj
 0001:00039d90       _GLee_Lazy_glUniform2fARB@12 0043ad90 f   cinder:GLee.obj
 0001:00039dc0       _GLee_Lazy_glUniform3fARB@16 0043adc0 f   cinder:GLee.obj
 0001:00039e00       _GLee_Lazy_glUniform4fARB@20 0043ae00 f   cinder:GLee.obj
 0001:00039e40       _GLee_Lazy_glUniform1iARB@8 0043ae40 f   cinder:GLee.obj
 0001:00039e70       _GLee_Lazy_glUniform2iARB@12 0043ae70 f   cinder:GLee.obj
 0001:00039ea0       _GLee_Lazy_glUniform3iARB@16 0043aea0 f   cinder:GLee.obj
 0001:00039ed0       _GLee_Lazy_glUniform4iARB@20 0043aed0 f   cinder:GLee.obj
 0001:00039f00       _GLee_Lazy_glUniform1fvARB@12 0043af00 f   cinder:GLee.obj
 0001:00039f30       _GLee_Lazy_glUniform2fvARB@12 0043af30 f   cinder:GLee.obj
 0001:00039f60       _GLee_Lazy_glUniform3fvARB@12 0043af60 f   cinder:GLee.obj
 0001:00039f90       _GLee_Lazy_glUniform4fvARB@12 0043af90 f   cinder:GLee.obj
 0001:00039fc0       _GLee_Lazy_glUniform1ivARB@12 0043afc0 f   cinder:GLee.obj
 0001:00039ff0       _GLee_Lazy_glUniform2ivARB@12 0043aff0 f   cinder:GLee.obj
 0001:0003a020       _GLee_Lazy_glUniform3ivARB@12 0043b020 f   cinder:GLee.obj
 0001:0003a050       _GLee_Lazy_glUniform4ivARB@12 0043b050 f   cinder:GLee.obj
 0001:0003a080       _GLee_Lazy_glUniformMatrix2fvARB@16 0043b080 f   cinder:GLee.obj
 0001:0003a0b0       _GLee_Lazy_glUniformMatrix3fvARB@16 0043b0b0 f   cinder:GLee.obj
 0001:0003a0e0       _GLee_Lazy_glUniformMatrix4fvARB@16 0043b0e0 f   cinder:GLee.obj
 0001:0003a110       _GLee_Lazy_glGetObjectParameterfvARB@12 0043b110 f   cinder:GLee.obj
 0001:0003a140       _GLee_Lazy_glGetObjectParameterivARB@12 0043b140 f   cinder:GLee.obj
 0001:0003a170       _GLee_Lazy_glGetInfoLogARB@16 0043b170 f   cinder:GLee.obj
 0001:0003a1a0       _GLee_Lazy_glGetAttachedObjectsARB@16 0043b1a0 f   cinder:GLee.obj
 0001:0003a1d0       _GLee_Lazy_glGetUniformLocationARB@8 0043b1d0 f   cinder:GLee.obj
 0001:0003a200       _GLee_Lazy_glGetActiveUniformARB@28 0043b200 f   cinder:GLee.obj
 0001:0003a240       _GLee_Lazy_glGetUniformfvARB@12 0043b240 f   cinder:GLee.obj
 0001:0003a270       _GLee_Lazy_glGetUniformivARB@12 0043b270 f   cinder:GLee.obj
 0001:0003a2a0       _GLee_Lazy_glGetShaderSourceARB@16 0043b2a0 f   cinder:GLee.obj
 0001:0003a2d0       _GLee_Lazy_glBindAttribLocationARB@12 0043b2d0 f   cinder:GLee.obj
 0001:0003a300       _GLee_Lazy_glGetActiveAttribARB@28 0043b300 f   cinder:GLee.obj
 0001:0003a340       _GLee_Lazy_glGetAttribLocationARB@8 0043b340 f   cinder:GLee.obj
 0001:0003a370       _GLee_Lazy_glDrawBuffersARB@8 0043b370 f   cinder:GLee.obj
 0001:0003a3a0       _GLee_Lazy_glClampColorARB@8 0043b3a0 f   cinder:GLee.obj
 0001:0003a3d0       _GLee_Lazy_glDrawArraysInstancedARB@16 0043b3d0 f   cinder:GLee.obj
 0001:0003a400       _GLee_Lazy_glDrawElementsInstancedARB@20 0043b400 f   cinder:GLee.obj
 0001:0003a430       _GLee_Lazy_glIsRenderbuffer@4 0043b430 f   cinder:GLee.obj
 0001:0003a460       _GLee_Lazy_glBindRenderbuffer@8 0043b460 f   cinder:GLee.obj
 0001:0003a490       _GLee_Lazy_glDeleteRenderbuffers@8 0043b490 f   cinder:GLee.obj
 0001:0003a4c0       _GLee_Lazy_glGenRenderbuffers@8 0043b4c0 f   cinder:GLee.obj
 0001:0003a4f0       _GLee_Lazy_glRenderbufferStorage@16 0043b4f0 f   cinder:GLee.obj
 0001:0003a520       _GLee_Lazy_glGetRenderbufferParameteriv@12 0043b520 f   cinder:GLee.obj
 0001:0003a550       _GLee_Lazy_glIsFramebuffer@4 0043b550 f   cinder:GLee.obj
 0001:0003a580       _GLee_Lazy_glBindFramebuffer@8 0043b580 f   cinder:GLee.obj
 0001:0003a5b0       _GLee_Lazy_glDeleteFramebuffers@8 0043b5b0 f   cinder:GLee.obj
 0001:0003a5e0       _GLee_Lazy_glGenFramebuffers@8 0043b5e0 f   cinder:GLee.obj
 0001:0003a610       _GLee_Lazy_glCheckFramebufferStatus@4 0043b610 f   cinder:GLee.obj
 0001:0003a640       _GLee_Lazy_glFramebufferTexture1D@20 0043b640 f   cinder:GLee.obj
 0001:0003a670       _GLee_Lazy_glFramebufferTexture2D@20 0043b670 f   cinder:GLee.obj
 0001:0003a6a0       _GLee_Lazy_glFramebufferTexture3D@24 0043b6a0 f   cinder:GLee.obj
 0001:0003a6e0       _GLee_Lazy_glFramebufferRenderbuffer@16 0043b6e0 f   cinder:GLee.obj
 0001:0003a710       _GLee_Lazy_glGetFramebufferAttachmentParameteriv@16 0043b710 f   cinder:GLee.obj
 0001:0003a740       _GLee_Lazy_glGenerateMipmap@4 0043b740 f   cinder:GLee.obj
 0001:0003a760       _GLee_Lazy_glBlitFramebuffer@40 0043b760 f   cinder:GLee.obj
 0001:0003a7b0       _GLee_Lazy_glRenderbufferStorageMultisample@20 0043b7b0 f   cinder:GLee.obj
 0001:0003a7e0       _GLee_Lazy_glFramebufferTextureLayer@20 0043b7e0 f   cinder:GLee.obj
 0001:0003a810       _GLee_Lazy_glProgramParameteriARB@12 0043b810 f   cinder:GLee.obj
 0001:0003a840       _GLee_Lazy_glFramebufferTextureARB@16 0043b840 f   cinder:GLee.obj
 0001:0003a870       _GLee_Lazy_glFramebufferTextureLayerARB@20 0043b870 f   cinder:GLee.obj
 0001:0003a8a0       _GLee_Lazy_glFramebufferTextureFaceARB@20 0043b8a0 f   cinder:GLee.obj
 0001:0003a8d0       _GLee_Lazy_glVertexAttribDivisor@8 0043b8d0 f   cinder:GLee.obj
 0001:0003a900       _GLee_Lazy_glMapBufferRange@16 0043b900 f   cinder:GLee.obj
 0001:0003a930       _GLee_Lazy_glFlushMappedBufferRange@12 0043b930 f   cinder:GLee.obj
 0001:0003a960       _GLee_Lazy_glTexBufferARB@12 0043b960 f   cinder:GLee.obj
 0001:0003a990       _GLee_Lazy_glBindVertexArray@4 0043b990 f   cinder:GLee.obj
 0001:0003a9b0       _GLee_Lazy_glDeleteVertexArrays@8 0043b9b0 f   cinder:GLee.obj
 0001:0003a9e0       _GLee_Lazy_glGenVertexArrays@8 0043b9e0 f   cinder:GLee.obj
 0001:0003aa10       _GLee_Lazy_glIsVertexArray@4 0043ba10 f   cinder:GLee.obj
 0001:0003aa40       _GLee_Lazy_glBlendColorEXT@16 0043ba40 f   cinder:GLee.obj
 0001:0003aa80       _GLee_Lazy_glPolygonOffsetEXT@8 0043ba80 f   cinder:GLee.obj
 0001:0003aab0       _GLee_Lazy_glTexImage3DEXT@40 0043bab0 f   cinder:GLee.obj
 0001:0003ab00       _GLee_Lazy_glTexSubImage3DEXT@44 0043bb00 f   cinder:GLee.obj
 0001:0003ab50       _GLee_Lazy_glGetTexFilterFuncSGIS@12 0043bb50 f   cinder:GLee.obj
 0001:0003ab80       _GLee_Lazy_glTexFilterFuncSGIS@16 0043bb80 f   cinder:GLee.obj
 0001:0003abb0       _GLee_Lazy_glTexSubImage1DEXT@28 0043bbb0 f   cinder:GLee.obj
 0001:0003abf0       _GLee_Lazy_glTexSubImage2DEXT@36 0043bbf0 f   cinder:GLee.obj
 0001:0003ac30       _GLee_Lazy_glCopyTexImage1DEXT@28 0043bc30 f   cinder:GLee.obj
 0001:0003ac70       _GLee_Lazy_glCopyTexImage2DEXT@32 0043bc70 f   cinder:GLee.obj
 0001:0003acb0       _GLee_Lazy_glCopyTexSubImage1DEXT@24 0043bcb0 f   cinder:GLee.obj
 0001:0003acf0       _GLee_Lazy_glCopyTexSubImage2DEXT@32 0043bcf0 f   cinder:GLee.obj
 0001:0003ad30       _GLee_Lazy_glCopyTexSubImage3DEXT@36 0043bd30 f   cinder:GLee.obj
 0001:0003ad70       _GLee_Lazy_glGetHistogramEXT@20 0043bd70 f   cinder:GLee.obj
 0001:0003ada0       _GLee_Lazy_glGetHistogramParameterfvEXT@12 0043bda0 f   cinder:GLee.obj
 0001:0003add0       _GLee_Lazy_glGetHistogramParameterivEXT@12 0043bdd0 f   cinder:GLee.obj
 0001:0003ae00       _GLee_Lazy_glGetMinmaxEXT@20 0043be00 f   cinder:GLee.obj
 0001:0003ae30       _GLee_Lazy_glGetMinmaxParameterfvEXT@12 0043be30 f   cinder:GLee.obj
 0001:0003ae60       _GLee_Lazy_glGetMinmaxParameterivEXT@12 0043be60 f   cinder:GLee.obj
 0001:0003ae90       _GLee_Lazy_glHistogramEXT@16 0043be90 f   cinder:GLee.obj
 0001:0003aec0       _GLee_Lazy_glMinmaxEXT@12  0043bec0 f   cinder:GLee.obj
 0001:0003aef0       _GLee_Lazy_glResetHistogramEXT@4 0043bef0 f   cinder:GLee.obj
 0001:0003af10       _GLee_Lazy_glResetMinmaxEXT@4 0043bf10 f   cinder:GLee.obj
 0001:0003af30       _GLee_Lazy_glConvolutionFilter1DEXT@24 0043bf30 f   cinder:GLee.obj
 0001:0003af70       _GLee_Lazy_glConvolutionFilter2DEXT@28 0043bf70 f   cinder:GLee.obj
 0001:0003afb0       _GLee_Lazy_glConvolutionParameterfEXT@12 0043bfb0 f   cinder:GLee.obj
 0001:0003afe0       _GLee_Lazy_glConvolutionParameterfvEXT@12 0043bfe0 f   cinder:GLee.obj
 0001:0003b010       _GLee_Lazy_glConvolutionParameteriEXT@12 0043c010 f   cinder:GLee.obj
 0001:0003b040       _GLee_Lazy_glConvolutionParameterivEXT@12 0043c040 f   cinder:GLee.obj
 0001:0003b070       _GLee_Lazy_glCopyConvolutionFilter1DEXT@20 0043c070 f   cinder:GLee.obj
 0001:0003b0a0       _GLee_Lazy_glCopyConvolutionFilter2DEXT@24 0043c0a0 f   cinder:GLee.obj
 0001:0003b0e0       _GLee_Lazy_glGetConvolutionFilterEXT@16 0043c0e0 f   cinder:GLee.obj
 0001:0003b110       _GLee_Lazy_glGetConvolutionParameterfvEXT@12 0043c110 f   cinder:GLee.obj
 0001:0003b140       _GLee_Lazy_glGetConvolutionParameterivEXT@12 0043c140 f   cinder:GLee.obj
 0001:0003b170       _GLee_Lazy_glGetSeparableFilterEXT@24 0043c170 f   cinder:GLee.obj
 0001:0003b1b0       _GLee_Lazy_glSeparableFilter2DEXT@32 0043c1b0 f   cinder:GLee.obj
 0001:0003b1f0       _GLee_Lazy_glColorTableSGI@24 0043c1f0 f   cinder:GLee.obj
 0001:0003b230       _GLee_Lazy_glColorTableParameterfvSGI@12 0043c230 f   cinder:GLee.obj
 0001:0003b260       _GLee_Lazy_glColorTableParameterivSGI@12 0043c260 f   cinder:GLee.obj
 0001:0003b290       _GLee_Lazy_glCopyColorTableSGI@20 0043c290 f   cinder:GLee.obj
 0001:0003b2c0       _GLee_Lazy_glGetColorTableSGI@16 0043c2c0 f   cinder:GLee.obj
 0001:0003b2f0       _GLee_Lazy_glGetColorTableParameterfvSGI@12 0043c2f0 f   cinder:GLee.obj
 0001:0003b320       _GLee_Lazy_glGetColorTableParameterivSGI@12 0043c320 f   cinder:GLee.obj
 0001:0003b350       _GLee_Lazy_glPixelTexGenParameteriSGIS@8 0043c350 f   cinder:GLee.obj
 0001:0003b380       _GLee_Lazy_glPixelTexGenParameterivSGIS@8 0043c380 f   cinder:GLee.obj
 0001:0003b3b0       _GLee_Lazy_glPixelTexGenParameterfSGIS@8 0043c3b0 f   cinder:GLee.obj
 0001:0003b3e0       _GLee_Lazy_glPixelTexGenParameterfvSGIS@8 0043c3e0 f   cinder:GLee.obj
 0001:0003b410       _GLee_Lazy_glGetPixelTexGenParameterivSGIS@8 0043c410 f   cinder:GLee.obj
 0001:0003b440       _GLee_Lazy_glGetPixelTexGenParameterfvSGIS@8 0043c440 f   cinder:GLee.obj
 0001:0003b470       _GLee_Lazy_glPixelTexGenSGIX@4 0043c470 f   cinder:GLee.obj
 0001:0003b490       _GLee_Lazy_glTexImage4DSGIS@44 0043c490 f   cinder:GLee.obj
 0001:0003b4e0       _GLee_Lazy_glTexSubImage4DSGIS@52 0043c4e0 f   cinder:GLee.obj
 0001:0003b530       _GLee_Lazy_glAreTexturesResidentEXT@12 0043c530 f   cinder:GLee.obj
 0001:0003b560       _GLee_Lazy_glBindTextureEXT@8 0043c560 f   cinder:GLee.obj
 0001:0003b590       _GLee_Lazy_glDeleteTexturesEXT@8 0043c590 f   cinder:GLee.obj
 0001:0003b5c0       _GLee_Lazy_glGenTexturesEXT@8 0043c5c0 f   cinder:GLee.obj
 0001:0003b5f0       _GLee_Lazy_glIsTextureEXT@4 0043c5f0 f   cinder:GLee.obj
 0001:0003b620       _GLee_Lazy_glPrioritizeTexturesEXT@12 0043c620 f   cinder:GLee.obj
 0001:0003b650       _GLee_Lazy_glDetailTexFuncSGIS@12 0043c650 f   cinder:GLee.obj
 0001:0003b680       _GLee_Lazy_glGetDetailTexFuncSGIS@8 0043c680 f   cinder:GLee.obj
 0001:0003b6b0       _GLee_Lazy_glSharpenTexFuncSGIS@12 0043c6b0 f   cinder:GLee.obj
 0001:0003b6e0       _GLee_Lazy_glGetSharpenTexFuncSGIS@8 0043c6e0 f   cinder:GLee.obj
 0001:0003b710       _GLee_Lazy_glSampleMaskSGIS@8 0043c710 f   cinder:GLee.obj
 0001:0003b740       _GLee_Lazy_glSamplePatternSGIS@4 0043c740 f   cinder:GLee.obj
 0001:0003b760       _GLee_Lazy_glBlendEquationEXT@4 0043c760 f   cinder:GLee.obj
 0001:0003b780       _GLee_Lazy_glSpriteParameterfSGIX@8 0043c780 f   cinder:GLee.obj
 0001:0003b7b0       _GLee_Lazy_glSpriteParameterfvSGIX@8 0043c7b0 f   cinder:GLee.obj
 0001:0003b7e0       _GLee_Lazy_glSpriteParameteriSGIX@8 0043c7e0 f   cinder:GLee.obj
 0001:0003b810       _GLee_Lazy_glSpriteParameterivSGIX@8 0043c810 f   cinder:GLee.obj
 0001:0003b840       _GLee_Lazy_glPointParameterfEXT@8 0043c840 f   cinder:GLee.obj
 0001:0003b870       _GLee_Lazy_glPointParameterfvEXT@8 0043c870 f   cinder:GLee.obj
 0001:0003b8a0       _GLee_Lazy_glPointParameterfSGIS@8 0043c8a0 f   cinder:GLee.obj
 0001:0003b8d0       _GLee_Lazy_glPointParameterfvSGIS@8 0043c8d0 f   cinder:GLee.obj
 0001:0003b900       _GLee_Lazy_glGetInstrumentsSGIX@0 0043c900 f   cinder:GLee.obj
 0001:0003b920       _GLee_Lazy_glInstrumentsBufferSGIX@8 0043c920 f   cinder:GLee.obj
 0001:0003b950       _GLee_Lazy_glPollInstrumentsSGIX@4 0043c950 f   cinder:GLee.obj
 0001:0003b980       _GLee_Lazy_glReadInstrumentsSGIX@4 0043c980 f   cinder:GLee.obj
 0001:0003b9a0       _GLee_Lazy_glStartInstrumentsSGIX@0 0043c9a0 f   cinder:GLee.obj
 0001:0003b9c0       _GLee_Lazy_glStopInstrumentsSGIX@4 0043c9c0 f   cinder:GLee.obj
 0001:0003b9e0       _GLee_Lazy_glFrameZoomSGIX@4 0043c9e0 f   cinder:GLee.obj
 0001:0003ba00       _GLee_Lazy_glTagSampleBufferSGIX@0 0043ca00 f   cinder:GLee.obj
 0001:0003ba20       _GLee_Lazy_glDeformationMap3dSGIX@80 0043ca20 f   cinder:GLee.obj
 0001:0003ba90       _GLee_Lazy_glDeformationMap3fSGIX@56 0043ca90 f   cinder:GLee.obj
 0001:0003bb00       _GLee_Lazy_glDeformSGIX@4  0043cb00 f   cinder:GLee.obj
 0001:0003bb20       _GLee_Lazy_glLoadIdentityDeformationMapSGIX@4 0043cb20 f   cinder:GLee.obj
 0001:0003bb40       _GLee_Lazy_glReferencePlaneSGIX@4 0043cb40 f   cinder:GLee.obj
 0001:0003bb60       _GLee_Lazy_glFlushRasterSGIX@0 0043cb60 f   cinder:GLee.obj
 0001:0003bb80       _GLee_Lazy_glFogFuncSGIS@8 0043cb80 f   cinder:GLee.obj
 0001:0003bbb0       _GLee_Lazy_glGetFogFuncSGIS@4 0043cbb0 f   cinder:GLee.obj
 0001:0003bbd0       _GLee_Lazy_glImageTransformParameteriHP@12 0043cbd0 f   cinder:GLee.obj
 0001:0003bc00       _GLee_Lazy_glImageTransformParameterfHP@12 0043cc00 f   cinder:GLee.obj
 0001:0003bc30       _GLee_Lazy_glImageTransformParameterivHP@12 0043cc30 f   cinder:GLee.obj
 0001:0003bc60       _GLee_Lazy_glImageTransformParameterfvHP@12 0043cc60 f   cinder:GLee.obj
 0001:0003bc90       _GLee_Lazy_glGetImageTransformParameterivHP@12 0043cc90 f   cinder:GLee.obj
 0001:0003bcc0       _GLee_Lazy_glGetImageTransformParameterfvHP@12 0043ccc0 f   cinder:GLee.obj
 0001:0003bcf0       _GLee_Lazy_glColorSubTableEXT@24 0043ccf0 f   cinder:GLee.obj
 0001:0003bd30       _GLee_Lazy_glCopyColorSubTableEXT@20 0043cd30 f   cinder:GLee.obj
 0001:0003bd60       _GLee_Lazy_glHintPGI@8     0043cd60 f   cinder:GLee.obj
 0001:0003bd90       _GLee_Lazy_glGetListParameterfvSGIX@12 0043cd90 f   cinder:GLee.obj
 0001:0003bdc0       _GLee_Lazy_glGetListParameterivSGIX@12 0043cdc0 f   cinder:GLee.obj
 0001:0003bdf0       _GLee_Lazy_glListParameterfSGIX@12 0043cdf0 f   cinder:GLee.obj
 0001:0003be20       _GLee_Lazy_glListParameterfvSGIX@12 0043ce20 f   cinder:GLee.obj
 0001:0003be50       _GLee_Lazy_glListParameteriSGIX@12 0043ce50 f   cinder:GLee.obj
 0001:0003be80       _GLee_Lazy_glListParameterivSGIX@12 0043ce80 f   cinder:GLee.obj
 0001:0003beb0       _GLee_Lazy_glIndexMaterialEXT@8 0043ceb0 f   cinder:GLee.obj
 0001:0003bee0       _GLee_Lazy_glIndexFuncEXT@8 0043cee0 f   cinder:GLee.obj
 0001:0003bf10       _GLee_Lazy_glLockArraysEXT@8 0043cf10 f   cinder:GLee.obj
 0001:0003bf40       _GLee_Lazy_glUnlockArraysEXT@0 0043cf40 f   cinder:GLee.obj
 0001:0003bf60       _GLee_Lazy_glCullParameterdvEXT@8 0043cf60 f   cinder:GLee.obj
 0001:0003bf90       _GLee_Lazy_glCullParameterfvEXT@8 0043cf90 f   cinder:GLee.obj
 0001:0003bfc0       _GLee_Lazy_glFragmentColorMaterialSGIX@8 0043cfc0 f   cinder:GLee.obj
 0001:0003bff0       _GLee_Lazy_glFragmentLightfSGIX@12 0043cff0 f   cinder:GLee.obj
 0001:0003c020       _GLee_Lazy_glFragmentLightfvSGIX@12 0043d020 f   cinder:GLee.obj
 0001:0003c050       _GLee_Lazy_glFragmentLightiSGIX@12 0043d050 f   cinder:GLee.obj
 0001:0003c080       _GLee_Lazy_glFragmentLightivSGIX@12 0043d080 f   cinder:GLee.obj
 0001:0003c0b0       _GLee_Lazy_glFragmentLightModelfSGIX@8 0043d0b0 f   cinder:GLee.obj
 0001:0003c0e0       _GLee_Lazy_glFragmentLightModelfvSGIX@8 0043d0e0 f   cinder:GLee.obj
 0001:0003c110       _GLee_Lazy_glFragmentLightModeliSGIX@8 0043d110 f   cinder:GLee.obj
 0001:0003c140       _GLee_Lazy_glFragmentLightModelivSGIX@8 0043d140 f   cinder:GLee.obj
 0001:0003c170       _GLee_Lazy_glFragmentMaterialfSGIX@12 0043d170 f   cinder:GLee.obj
 0001:0003c1a0       _GLee_Lazy_glFragmentMaterialfvSGIX@12 0043d1a0 f   cinder:GLee.obj
 0001:0003c1d0       _GLee_Lazy_glFragmentMaterialiSGIX@12 0043d1d0 f   cinder:GLee.obj
 0001:0003c200       _GLee_Lazy_glFragmentMaterialivSGIX@12 0043d200 f   cinder:GLee.obj
 0001:0003c230       _GLee_Lazy_glGetFragmentLightfvSGIX@12 0043d230 f   cinder:GLee.obj
 0001:0003c260       _GLee_Lazy_glGetFragmentLightivSGIX@12 0043d260 f   cinder:GLee.obj
 0001:0003c290       _GLee_Lazy_glGetFragmentMaterialfvSGIX@12 0043d290 f   cinder:GLee.obj
 0001:0003c2c0       _GLee_Lazy_glGetFragmentMaterialivSGIX@12 0043d2c0 f   cinder:GLee.obj
 0001:0003c2f0       _GLee_Lazy_glLightEnviSGIX@8 0043d2f0 f   cinder:GLee.obj
 0001:0003c320       _GLee_Lazy_glDrawRangeElementsEXT@24 0043d320 f   cinder:GLee.obj
 0001:0003c360       _GLee_Lazy_glApplyTextureEXT@4 0043d360 f   cinder:GLee.obj
 0001:0003c380       _GLee_Lazy_glTextureLightEXT@4 0043d380 f   cinder:GLee.obj
 0001:0003c3a0       _GLee_Lazy_glTextureMaterialEXT@8 0043d3a0 f   cinder:GLee.obj
 0001:0003c3d0       _GLee_Lazy_glAsyncMarkerSGIX@4 0043d3d0 f   cinder:GLee.obj
 0001:0003c3f0       _GLee_Lazy_glFinishAsyncSGIX@4 0043d3f0 f   cinder:GLee.obj
 0001:0003c420       _GLee_Lazy_glPollAsyncSGIX@4 0043d420 f   cinder:GLee.obj
 0001:0003c450       _GLee_Lazy_glGenAsyncMarkersSGIX@4 0043d450 f   cinder:GLee.obj
 0001:0003c480       _GLee_Lazy_glDeleteAsyncMarkersSGIX@8 0043d480 f   cinder:GLee.obj
 0001:0003c4b0       _GLee_Lazy_glIsAsyncMarkerSGIX@4 0043d4b0 f   cinder:GLee.obj
 0001:0003c4e0       _GLee_Lazy_glVertexPointervINTEL@12 0043d4e0 f   cinder:GLee.obj
 0001:0003c510       _GLee_Lazy_glNormalPointervINTEL@8 0043d510 f   cinder:GLee.obj
 0001:0003c540       _GLee_Lazy_glColorPointervINTEL@12 0043d540 f   cinder:GLee.obj
 0001:0003c570       _GLee_Lazy_glTexCoordPointervINTEL@12 0043d570 f   cinder:GLee.obj
 0001:0003c5a0       _GLee_Lazy_glPixelTransformParameteriEXT@12 0043d5a0 f   cinder:GLee.obj
 0001:0003c5d0       _GLee_Lazy_glPixelTransformParameterfEXT@12 0043d5d0 f   cinder:GLee.obj
 0001:0003c600       _GLee_Lazy_glPixelTransformParameterivEXT@12 0043d600 f   cinder:GLee.obj
 0001:0003c630       _GLee_Lazy_glPixelTransformParameterfvEXT@12 0043d630 f   cinder:GLee.obj
 0001:0003c660       _GLee_Lazy_glSecondaryColor3bEXT@12 0043d660 f   cinder:GLee.obj
 0001:0003c690       _GLee_Lazy_glSecondaryColor3bvEXT@4 0043d690 f   cinder:GLee.obj
 0001:0003c6b0       _GLee_Lazy_glSecondaryColor3dEXT@24 0043d6b0 f   cinder:GLee.obj
 0001:0003c6f0       _GLee_Lazy_glSecondaryColor3dvEXT@4 0043d6f0 f   cinder:GLee.obj
 0001:0003c710       _GLee_Lazy_glSecondaryColor3fEXT@12 0043d710 f   cinder:GLee.obj
 0001:0003c740       _GLee_Lazy_glSecondaryColor3fvEXT@4 0043d740 f   cinder:GLee.obj
 0001:0003c760       _GLee_Lazy_glSecondaryColor3iEXT@12 0043d760 f   cinder:GLee.obj
 0001:0003c790       _GLee_Lazy_glSecondaryColor3ivEXT@4 0043d790 f   cinder:GLee.obj
 0001:0003c7b0       _GLee_Lazy_glSecondaryColor3sEXT@12 0043d7b0 f   cinder:GLee.obj
 0001:0003c7e0       _GLee_Lazy_glSecondaryColor3svEXT@4 0043d7e0 f   cinder:GLee.obj
 0001:0003c800       _GLee_Lazy_glSecondaryColor3ubEXT@12 0043d800 f   cinder:GLee.obj
 0001:0003c830       _GLee_Lazy_glSecondaryColor3ubvEXT@4 0043d830 f   cinder:GLee.obj
 0001:0003c850       _GLee_Lazy_glSecondaryColor3uiEXT@12 0043d850 f   cinder:GLee.obj
 0001:0003c880       _GLee_Lazy_glSecondaryColor3uivEXT@4 0043d880 f   cinder:GLee.obj
 0001:0003c8a0       _GLee_Lazy_glSecondaryColor3usEXT@12 0043d8a0 f   cinder:GLee.obj
 0001:0003c8d0       _GLee_Lazy_glSecondaryColor3usvEXT@4 0043d8d0 f   cinder:GLee.obj
 0001:0003c8f0       _GLee_Lazy_glSecondaryColorPointerEXT@16 0043d8f0 f   cinder:GLee.obj
 0001:0003c920       _GLee_Lazy_glTextureNormalEXT@4 0043d920 f   cinder:GLee.obj
 0001:0003c940       _GLee_Lazy_glMultiDrawArraysEXT@16 0043d940 f   cinder:GLee.obj
 0001:0003c970       _GLee_Lazy_glMultiDrawElementsEXT@20 0043d970 f   cinder:GLee.obj
 0001:0003c9a0       _GLee_Lazy_glFogCoordfEXT@4 0043d9a0 f   cinder:GLee.obj
 0001:0003c9c0       _GLee_Lazy_glFogCoordfvEXT@4 0043d9c0 f   cinder:GLee.obj
 0001:0003c9e0       _GLee_Lazy_glFogCoorddEXT@8 0043d9e0 f   cinder:GLee.obj
 0001:0003ca10       _GLee_Lazy_glFogCoorddvEXT@4 0043da10 f   cinder:GLee.obj
 0001:0003ca30       _GLee_Lazy_glFogCoordPointerEXT@12 0043da30 f   cinder:GLee.obj
 0001:0003ca60       _GLee_Lazy_glTangent3bEXT@12 0043da60 f   cinder:GLee.obj
 0001:0003ca90       _GLee_Lazy_glTangent3bvEXT@4 0043da90 f   cinder:GLee.obj
 0001:0003cab0       _GLee_Lazy_glTangent3dEXT@24 0043dab0 f   cinder:GLee.obj
 0001:0003caf0       _GLee_Lazy_glTangent3dvEXT@4 0043daf0 f   cinder:GLee.obj
 0001:0003cb10       _GLee_Lazy_glTangent3fEXT@12 0043db10 f   cinder:GLee.obj
 0001:0003cb40       _GLee_Lazy_glTangent3fvEXT@4 0043db40 f   cinder:GLee.obj
 0001:0003cb60       _GLee_Lazy_glTangent3iEXT@12 0043db60 f   cinder:GLee.obj
 0001:0003cb90       _GLee_Lazy_glTangent3ivEXT@4 0043db90 f   cinder:GLee.obj
 0001:0003cbb0       _GLee_Lazy_glTangent3sEXT@12 0043dbb0 f   cinder:GLee.obj
 0001:0003cbe0       _GLee_Lazy_glTangent3svEXT@4 0043dbe0 f   cinder:GLee.obj
 0001:0003cc00       _GLee_Lazy_glBinormal3bEXT@12 0043dc00 f   cinder:GLee.obj
 0001:0003cc30       _GLee_Lazy_glBinormal3bvEXT@4 0043dc30 f   cinder:GLee.obj
 0001:0003cc50       _GLee_Lazy_glBinormal3dEXT@24 0043dc50 f   cinder:GLee.obj
 0001:0003cc90       _GLee_Lazy_glBinormal3dvEXT@4 0043dc90 f   cinder:GLee.obj
 0001:0003ccb0       _GLee_Lazy_glBinormal3fEXT@12 0043dcb0 f   cinder:GLee.obj
 0001:0003cce0       _GLee_Lazy_glBinormal3fvEXT@4 0043dce0 f   cinder:GLee.obj
 0001:0003cd00       _GLee_Lazy_glBinormal3iEXT@12 0043dd00 f   cinder:GLee.obj
 0001:0003cd30       _GLee_Lazy_glBinormal3ivEXT@4 0043dd30 f   cinder:GLee.obj
 0001:0003cd50       _GLee_Lazy_glBinormal3sEXT@12 0043dd50 f   cinder:GLee.obj
 0001:0003cd80       _GLee_Lazy_glBinormal3svEXT@4 0043dd80 f   cinder:GLee.obj
 0001:0003cda0       _GLee_Lazy_glTangentPointerEXT@12 0043dda0 f   cinder:GLee.obj
 0001:0003cdd0       _GLee_Lazy_glBinormalPointerEXT@12 0043ddd0 f   cinder:GLee.obj
 0001:0003ce00       _GLee_Lazy_glFinishTextureSUNX@0 0043de00 f   cinder:GLee.obj
 0001:0003ce20       _GLee_Lazy_glGlobalAlphaFactorbSUN@4 0043de20 f   cinder:GLee.obj
 0001:0003ce40       _GLee_Lazy_glGlobalAlphaFactorsSUN@4 0043de40 f   cinder:GLee.obj
 0001:0003ce60       _GLee_Lazy_glGlobalAlphaFactoriSUN@4 0043de60 f   cinder:GLee.obj
 0001:0003ce80       _GLee_Lazy_glGlobalAlphaFactorfSUN@4 0043de80 f   cinder:GLee.obj
 0001:0003cea0       _GLee_Lazy_glGlobalAlphaFactordSUN@8 0043dea0 f   cinder:GLee.obj
 0001:0003ced0       _GLee_Lazy_glGlobalAlphaFactorubSUN@4 0043ded0 f   cinder:GLee.obj
 0001:0003cef0       _GLee_Lazy_glGlobalAlphaFactorusSUN@4 0043def0 f   cinder:GLee.obj
 0001:0003cf10       _GLee_Lazy_glGlobalAlphaFactoruiSUN@4 0043df10 f   cinder:GLee.obj
 0001:0003cf30       _GLee_Lazy_glReplacementCodeuiSUN@4 0043df30 f   cinder:GLee.obj
 0001:0003cf50       _GLee_Lazy_glReplacementCodeusSUN@4 0043df50 f   cinder:GLee.obj
 0001:0003cf70       _GLee_Lazy_glReplacementCodeubSUN@4 0043df70 f   cinder:GLee.obj
 0001:0003cf90       _GLee_Lazy_glReplacementCodeuivSUN@4 0043df90 f   cinder:GLee.obj
 0001:0003cfb0       _GLee_Lazy_glReplacementCodeusvSUN@4 0043dfb0 f   cinder:GLee.obj
 0001:0003cfd0       _GLee_Lazy_glReplacementCodeubvSUN@4 0043dfd0 f   cinder:GLee.obj
 0001:0003cff0       _GLee_Lazy_glReplacementCodePointerSUN@12 0043dff0 f   cinder:GLee.obj
 0001:0003d020       _GLee_Lazy_glColor4ubVertex2fSUN@24 0043e020 f   cinder:GLee.obj
 0001:0003d060       _GLee_Lazy_glColor4ubVertex2fvSUN@8 0043e060 f   cinder:GLee.obj
 0001:0003d090       _GLee_Lazy_glColor4ubVertex3fSUN@28 0043e090 f   cinder:GLee.obj
 0001:0003d0e0       _GLee_Lazy_glColor4ubVertex3fvSUN@8 0043e0e0 f   cinder:GLee.obj
 0001:0003d110       _GLee_Lazy_glColor3fVertex3fSUN@24 0043e110 f   cinder:GLee.obj
 0001:0003d160       _GLee_Lazy_glColor3fVertex3fvSUN@8 0043e160 f   cinder:GLee.obj
 0001:0003d190       _GLee_Lazy_glNormal3fVertex3fSUN@24 0043e190 f   cinder:GLee.obj
 0001:0003d1e0       _GLee_Lazy_glNormal3fVertex3fvSUN@8 0043e1e0 f   cinder:GLee.obj
 0001:0003d210       _GLee_Lazy_glColor4fNormal3fVertex3fSUN@40 0043e210 f   cinder:GLee.obj
 0001:0003d270       _GLee_Lazy_glColor4fNormal3fVertex3fvSUN@12 0043e270 f   cinder:GLee.obj
 0001:0003d2a0       _GLee_Lazy_glTexCoord2fVertex3fSUN@20 0043e2a0 f   cinder:GLee.obj
 0001:0003d2e0       _GLee_Lazy_glTexCoord2fVertex3fvSUN@8 0043e2e0 f   cinder:GLee.obj
 0001:0003d310       _GLee_Lazy_glTexCoord4fVertex4fSUN@32 0043e310 f   cinder:GLee.obj
 0001:0003d370       _GLee_Lazy_glTexCoord4fVertex4fvSUN@8 0043e370 f   cinder:GLee.obj
 0001:0003d3a0       _GLee_Lazy_glTexCoord2fColor4ubVertex3fSUN@36 0043e3a0 f   cinder:GLee.obj
 0001:0003d3f0       _GLee_Lazy_glTexCoord2fColor4ubVertex3fvSUN@12 0043e3f0 f   cinder:GLee.obj
 0001:0003d420       _GLee_Lazy_glTexCoord2fColor3fVertex3fSUN@32 0043e420 f   cinder:GLee.obj
 0001:0003d480       _GLee_Lazy_glTexCoord2fColor3fVertex3fvSUN@12 0043e480 f   cinder:GLee.obj
 0001:0003d4b0       _GLee_Lazy_glTexCoord2fNormal3fVertex3fSUN@32 0043e4b0 f   cinder:GLee.obj
 0001:0003d510       _GLee_Lazy_glTexCoord2fNormal3fVertex3fvSUN@12 0043e510 f   cinder:GLee.obj
 0001:0003d540       _GLee_Lazy_glTexCoord2fColor4fNormal3fVertex3fSUN@48 0043e540 f   cinder:GLee.obj
 0001:0003d5b0       _GLee_Lazy_glTexCoord2fColor4fNormal3fVertex3fvSUN@16 0043e5b0 f   cinder:GLee.obj
 0001:0003d5e0       _GLee_Lazy_glTexCoord4fColor4fNormal3fVertex4fSUN@60 0043e5e0 f   cinder:GLee.obj
 0001:0003d670       _GLee_Lazy_glTexCoord4fColor4fNormal3fVertex4fvSUN@16 0043e670 f   cinder:GLee.obj
 0001:0003d6a0       _GLee_Lazy_glReplacementCodeuiVertex3fSUN@16 0043e6a0 f   cinder:GLee.obj
 0001:0003d6e0       _GLee_Lazy_glReplacementCodeuiVertex3fvSUN@8 0043e6e0 f   cinder:GLee.obj
 0001:0003d710       _GLee_Lazy_glReplacementCodeuiColor4ubVertex3fSUN@32 0043e710 f   cinder:GLee.obj
 0001:0003d760       _GLee_Lazy_glReplacementCodeuiColor4ubVertex3fvSUN@12 0043e760 f   cinder:GLee.obj
 0001:0003d790       _GLee_Lazy_glReplacementCodeuiColor3fVertex3fSUN@28 0043e790 f   cinder:GLee.obj
 0001:0003d7e0       _GLee_Lazy_glReplacementCodeuiColor3fVertex3fvSUN@12 0043e7e0 f   cinder:GLee.obj
 0001:0003d810       _GLee_Lazy_glReplacementCodeuiNormal3fVertex3fSUN@28 0043e810 f   cinder:GLee.obj
 0001:0003d860       _GLee_Lazy_glReplacementCodeuiNormal3fVertex3fvSUN@12 0043e860 f   cinder:GLee.obj
 0001:0003d890       _GLee_Lazy_glReplacementCodeuiColor4fNormal3fVertex3fSUN@44 0043e890 f   cinder:GLee.obj
 0001:0003d900       _GLee_Lazy_glReplacementCodeuiColor4fNormal3fVertex3fvSUN@16 0043e900 f   cinder:GLee.obj
 0001:0003d930       _GLee_Lazy_glReplacementCodeuiTexCoord2fVertex3fSUN@24 0043e930 f   cinder:GLee.obj
 0001:0003d970       _GLee_Lazy_glReplacementCodeuiTexCoord2fVertex3fvSUN@12 0043e970 f   cinder:GLee.obj
 0001:0003d9a0       _GLee_Lazy_glReplacementCodeuiTexCoord2fNormal3fVertex3fSUN@36 0043e9a0 f   cinder:GLee.obj
 0001:0003da00       _GLee_Lazy_glReplacementCodeuiTexCoord2fNormal3fVertex3fvSUN@16 0043ea00 f   cinder:GLee.obj
 0001:0003da30       _GLee_Lazy_glReplacementCodeuiTexCoord2fColor4fNormal3fVertex3fSUN@52 0043ea30 f   cinder:GLee.obj
 0001:0003dab0       _GLee_Lazy_glReplacementCodeuiTexCoord2fColor4fNormal3fVertex3fvSUN@20 0043eab0 f   cinder:GLee.obj
 0001:0003dae0       _GLee_Lazy_glBlendFuncSeparateEXT@16 0043eae0 f   cinder:GLee.obj
 0001:0003db10       _GLee_Lazy_glVertexWeightfEXT@4 0043eb10 f   cinder:GLee.obj
 0001:0003db30       _GLee_Lazy_glVertexWeightfvEXT@4 0043eb30 f   cinder:GLee.obj
 0001:0003db50       _GLee_Lazy_glVertexWeightPointerEXT@16 0043eb50 f   cinder:GLee.obj
 0001:0003db80       _GLee_Lazy_glFlushVertexArrayRangeNV@0 0043eb80 f   cinder:GLee.obj
 0001:0003dba0       _GLee_Lazy_glVertexArrayRangeNV@8 0043eba0 f   cinder:GLee.obj
 0001:0003dbd0       _GLee_Lazy_glCombinerParameterfvNV@8 0043ebd0 f   cinder:GLee.obj
 0001:0003dc00       _GLee_Lazy_glCombinerParameterfNV@8 0043ec00 f   cinder:GLee.obj
 0001:0003dc30       _GLee_Lazy_glCombinerParameterivNV@8 0043ec30 f   cinder:GLee.obj
 0001:0003dc60       _GLee_Lazy_glCombinerParameteriNV@8 0043ec60 f   cinder:GLee.obj
 0001:0003dc90       _GLee_Lazy_glCombinerInputNV@24 0043ec90 f   cinder:GLee.obj
 0001:0003dcd0       _GLee_Lazy_glCombinerOutputNV@40 0043ecd0 f   cinder:GLee.obj
 0001:0003dd20       _GLee_Lazy_glFinalCombinerInputNV@16 0043ed20 f   cinder:GLee.obj
 0001:0003dd50       _GLee_Lazy_glGetCombinerInputParameterfvNV@20 0043ed50 f   cinder:GLee.obj
 0001:0003dd80       _GLee_Lazy_glGetCombinerInputParameterivNV@20 0043ed80 f   cinder:GLee.obj
 0001:0003ddb0       _GLee_Lazy_glGetCombinerOutputParameterfvNV@16 0043edb0 f   cinder:GLee.obj
 0001:0003dde0       _GLee_Lazy_glGetCombinerOutputParameterivNV@16 0043ede0 f   cinder:GLee.obj
 0001:0003de10       _GLee_Lazy_glGetFinalCombinerInputParameterfvNV@12 0043ee10 f   cinder:GLee.obj
 0001:0003de40       _GLee_Lazy_glGetFinalCombinerInputParameterivNV@12 0043ee40 f   cinder:GLee.obj
 0001:0003de70       _GLee_Lazy_glResizeBuffersMESA@0 0043ee70 f   cinder:GLee.obj
 0001:0003de90       _GLee_Lazy_glWindowPos2dMESA@16 0043ee90 f   cinder:GLee.obj
 0001:0003dec0       _GLee_Lazy_glWindowPos2dvMESA@4 0043eec0 f   cinder:GLee.obj
 0001:0003dee0       _GLee_Lazy_glWindowPos2fMESA@8 0043eee0 f   cinder:GLee.obj
 0001:0003df10       _GLee_Lazy_glWindowPos2fvMESA@4 0043ef10 f   cinder:GLee.obj
 0001:0003df30       _GLee_Lazy_glWindowPos2iMESA@8 0043ef30 f   cinder:GLee.obj
 0001:0003df60       _GLee_Lazy_glWindowPos2ivMESA@4 0043ef60 f   cinder:GLee.obj
 0001:0003df80       _GLee_Lazy_glWindowPos2sMESA@8 0043ef80 f   cinder:GLee.obj
 0001:0003dfb0       _GLee_Lazy_glWindowPos2svMESA@4 0043efb0 f   cinder:GLee.obj
 0001:0003dfd0       _GLee_Lazy_glWindowPos3dMESA@24 0043efd0 f   cinder:GLee.obj
 0001:0003e010       _GLee_Lazy_glWindowPos3dvMESA@4 0043f010 f   cinder:GLee.obj
 0001:0003e030       _GLee_Lazy_glWindowPos3fMESA@12 0043f030 f   cinder:GLee.obj
 0001:0003e060       _GLee_Lazy_glWindowPos3fvMESA@4 0043f060 f   cinder:GLee.obj
 0001:0003e080       _GLee_Lazy_glWindowPos3iMESA@12 0043f080 f   cinder:GLee.obj
 0001:0003e0b0       _GLee_Lazy_glWindowPos3ivMESA@4 0043f0b0 f   cinder:GLee.obj
 0001:0003e0d0       _GLee_Lazy_glWindowPos3sMESA@12 0043f0d0 f   cinder:GLee.obj
 0001:0003e100       _GLee_Lazy_glWindowPos3svMESA@4 0043f100 f   cinder:GLee.obj
 0001:0003e120       _GLee_Lazy_glWindowPos4dMESA@32 0043f120 f   cinder:GLee.obj
 0001:0003e160       _GLee_Lazy_glWindowPos4dvMESA@4 0043f160 f   cinder:GLee.obj
 0001:0003e180       _GLee_Lazy_glWindowPos4fMESA@16 0043f180 f   cinder:GLee.obj
 0001:0003e1c0       _GLee_Lazy_glWindowPos4fvMESA@4 0043f1c0 f   cinder:GLee.obj
 0001:0003e1e0       _GLee_Lazy_glWindowPos4iMESA@16 0043f1e0 f   cinder:GLee.obj
 0001:0003e210       _GLee_Lazy_glWindowPos4ivMESA@4 0043f210 f   cinder:GLee.obj
 0001:0003e230       _GLee_Lazy_glWindowPos4sMESA@16 0043f230 f   cinder:GLee.obj
 0001:0003e260       _GLee_Lazy_glWindowPos4svMESA@4 0043f260 f   cinder:GLee.obj
 0001:0003e280       _GLee_Lazy_glMultiModeDrawArraysIBM@20 0043f280 f   cinder:GLee.obj
 0001:0003e2b0       _GLee_Lazy_glMultiModeDrawElementsIBM@24 0043f2b0 f   cinder:GLee.obj
 0001:0003e2f0       _GLee_Lazy_glColorPointerListIBM@20 0043f2f0 f   cinder:GLee.obj
 0001:0003e320       _GLee_Lazy_glSecondaryColorPointerListIBM@20 0043f320 f   cinder:GLee.obj
 0001:0003e350       _GLee_Lazy_glEdgeFlagPointerListIBM@12 0043f350 f   cinder:GLee.obj
 0001:0003e380       _GLee_Lazy_glFogCoordPointerListIBM@16 0043f380 f   cinder:GLee.obj
 0001:0003e3b0       _GLee_Lazy_glIndexPointerListIBM@16 0043f3b0 f   cinder:GLee.obj
 0001:0003e3e0       _GLee_Lazy_glNormalPointerListIBM@16 0043f3e0 f   cinder:GLee.obj
 0001:0003e410       _GLee_Lazy_glTexCoordPointerListIBM@20 0043f410 f   cinder:GLee.obj
 0001:0003e440       _GLee_Lazy_glVertexPointerListIBM@20 0043f440 f   cinder:GLee.obj
 0001:0003e470       _GLee_Lazy_glTbufferMask3DFX@4 0043f470 f   cinder:GLee.obj
 0001:0003e490       _GLee_Lazy_glSampleMaskEXT@8 0043f490 f   cinder:GLee.obj
 0001:0003e4c0       _GLee_Lazy_glSamplePatternEXT@4 0043f4c0 f   cinder:GLee.obj
 0001:0003e4e0       _GLee_Lazy_glTextureColorMaskSGIS@16 0043f4e0 f   cinder:GLee.obj
 0001:0003e510       _GLee_Lazy_glDeleteFencesNV@8 0043f510 f   cinder:GLee.obj
 0001:0003e540       _GLee_Lazy_glGenFencesNV@8 0043f540 f   cinder:GLee.obj
 0001:0003e570       _GLee_Lazy_glIsFenceNV@4   0043f570 f   cinder:GLee.obj
 0001:0003e5a0       _GLee_Lazy_glTestFenceNV@4 0043f5a0 f   cinder:GLee.obj
 0001:0003e5d0       _GLee_Lazy_glGetFenceivNV@12 0043f5d0 f   cinder:GLee.obj
 0001:0003e600       _GLee_Lazy_glFinishFenceNV@4 0043f600 f   cinder:GLee.obj
 0001:0003e620       _GLee_Lazy_glSetFenceNV@8  0043f620 f   cinder:GLee.obj
 0001:0003e650       _GLee_Lazy_glMapControlPointsNV@36 0043f650 f   cinder:GLee.obj
 0001:0003e690       _GLee_Lazy_glMapParameterivNV@12 0043f690 f   cinder:GLee.obj
 0001:0003e6c0       _GLee_Lazy_glMapParameterfvNV@12 0043f6c0 f   cinder:GLee.obj
 0001:0003e6f0       _GLee_Lazy_glGetMapControlPointsNV@28 0043f6f0 f   cinder:GLee.obj
 0001:0003e730       _GLee_Lazy_glGetMapParameterivNV@12 0043f730 f   cinder:GLee.obj
 0001:0003e760       _GLee_Lazy_glGetMapParameterfvNV@12 0043f760 f   cinder:GLee.obj
 0001:0003e790       _GLee_Lazy_glGetMapAttribParameterivNV@16 0043f790 f   cinder:GLee.obj
 0001:0003e7c0       _GLee_Lazy_glGetMapAttribParameterfvNV@16 0043f7c0 f   cinder:GLee.obj
 0001:0003e7f0       _GLee_Lazy_glEvalMapsNV@8  0043f7f0 f   cinder:GLee.obj
 0001:0003e820       _GLee_Lazy_glCombinerStageParameterfvNV@12 0043f820 f   cinder:GLee.obj
 0001:0003e850       _GLee_Lazy_glGetCombinerStageParameterfvNV@12 0043f850 f   cinder:GLee.obj
 0001:0003e880       _GLee_Lazy_glAreProgramsResidentNV@12 0043f880 f   cinder:GLee.obj
 0001:0003e8b0       _GLee_Lazy_glBindProgramNV@8 0043f8b0 f   cinder:GLee.obj
 0001:0003e8e0       _GLee_Lazy_glDeleteProgramsNV@8 0043f8e0 f   cinder:GLee.obj
 0001:0003e910       _GLee_Lazy_glExecuteProgramNV@12 0043f910 f   cinder:GLee.obj
 0001:0003e940       _GLee_Lazy_glGenProgramsNV@8 0043f940 f   cinder:GLee.obj
 0001:0003e970       _GLee_Lazy_glGetProgramParameterdvNV@16 0043f970 f   cinder:GLee.obj
 0001:0003e9a0       _GLee_Lazy_glGetProgramParameterfvNV@16 0043f9a0 f   cinder:GLee.obj
 0001:0003e9d0       _GLee_Lazy_glGetProgramivNV@12 0043f9d0 f   cinder:GLee.obj
 0001:0003ea00       _GLee_Lazy_glGetProgramStringNV@12 0043fa00 f   cinder:GLee.obj
 0001:0003ea30       _GLee_Lazy_glGetTrackMatrixivNV@16 0043fa30 f   cinder:GLee.obj
 0001:0003ea60       _GLee_Lazy_glGetVertexAttribdvNV@12 0043fa60 f   cinder:GLee.obj
 0001:0003ea90       _GLee_Lazy_glGetVertexAttribfvNV@12 0043fa90 f   cinder:GLee.obj
 0001:0003eac0       _GLee_Lazy_glGetVertexAttribivNV@12 0043fac0 f   cinder:GLee.obj
 0001:0003eaf0       _GLee_Lazy_glGetVertexAttribPointervNV@12 0043faf0 f   cinder:GLee.obj
 0001:0003eb20       _GLee_Lazy_glIsProgramNV@4 0043fb20 f   cinder:GLee.obj
 0001:0003eb50       _GLee_Lazy_glLoadProgramNV@16 0043fb50 f   cinder:GLee.obj
 0001:0003eb80       _GLee_Lazy_glProgramParameter4dNV@40 0043fb80 f   cinder:GLee.obj
 0001:0003ebd0       _GLee_Lazy_glProgramParameter4dvNV@12 0043fbd0 f   cinder:GLee.obj
 0001:0003ec00       _GLee_Lazy_glProgramParameter4fNV@24 0043fc00 f   cinder:GLee.obj
 0001:0003ec40       _GLee_Lazy_glProgramParameter4fvNV@12 0043fc40 f   cinder:GLee.obj
 0001:0003ec70       _GLee_Lazy_glProgramParameters4dvNV@16 0043fc70 f   cinder:GLee.obj
 0001:0003eca0       _GLee_Lazy_glProgramParameters4fvNV@16 0043fca0 f   cinder:GLee.obj
 0001:0003ecd0       _GLee_Lazy_glRequestResidentProgramsNV@8 0043fcd0 f   cinder:GLee.obj
 0001:0003ed00       _GLee_Lazy_glTrackMatrixNV@16 0043fd00 f   cinder:GLee.obj
 0001:0003ed30       _GLee_Lazy_glVertexAttribPointerNV@20 0043fd30 f   cinder:GLee.obj
 0001:0003ed60       _GLee_Lazy_glVertexAttrib1dNV@12 0043fd60 f   cinder:GLee.obj
 0001:0003ed90       _GLee_Lazy_glVertexAttrib1dvNV@8 0043fd90 f   cinder:GLee.obj
 0001:0003edc0       _GLee_Lazy_glVertexAttrib1fNV@8 0043fdc0 f   cinder:GLee.obj
 0001:0003edf0       _GLee_Lazy_glVertexAttrib1fvNV@8 0043fdf0 f   cinder:GLee.obj
 0001:0003ee20       _GLee_Lazy_glVertexAttrib1sNV@8 0043fe20 f   cinder:GLee.obj
 0001:0003ee50       _GLee_Lazy_glVertexAttrib1svNV@8 0043fe50 f   cinder:GLee.obj
 0001:0003ee80       _GLee_Lazy_glVertexAttrib2dNV@20 0043fe80 f   cinder:GLee.obj
 0001:0003eeb0       _GLee_Lazy_glVertexAttrib2dvNV@8 0043feb0 f   cinder:GLee.obj
 0001:0003eee0       _GLee_Lazy_glVertexAttrib2fNV@12 0043fee0 f   cinder:GLee.obj
 0001:0003ef10       _GLee_Lazy_glVertexAttrib2fvNV@8 0043ff10 f   cinder:GLee.obj
 0001:0003ef40       _GLee_Lazy_glVertexAttrib2sNV@12 0043ff40 f   cinder:GLee.obj
 0001:0003ef70       _GLee_Lazy_glVertexAttrib2svNV@8 0043ff70 f   cinder:GLee.obj
 0001:0003efa0       _GLee_Lazy_glVertexAttrib3dNV@28 0043ffa0 f   cinder:GLee.obj
 0001:0003efe0       _GLee_Lazy_glVertexAttrib3dvNV@8 0043ffe0 f   cinder:GLee.obj
 0001:0003f010       _GLee_Lazy_glVertexAttrib3fNV@16 00440010 f   cinder:GLee.obj
 0001:0003f050       _GLee_Lazy_glVertexAttrib3fvNV@8 00440050 f   cinder:GLee.obj
 0001:0003f080       _GLee_Lazy_glVertexAttrib3sNV@16 00440080 f   cinder:GLee.obj
 0001:0003f0b0       _GLee_Lazy_glVertexAttrib3svNV@8 004400b0 f   cinder:GLee.obj
 0001:0003f0e0       _GLee_Lazy_glVertexAttrib4dNV@36 004400e0 f   cinder:GLee.obj
 0001:0003f130       _GLee_Lazy_glVertexAttrib4dvNV@8 00440130 f   cinder:GLee.obj
 0001:0003f160       _GLee_Lazy_glVertexAttrib4fNV@20 00440160 f   cinder:GLee.obj
 0001:0003f1a0       _GLee_Lazy_glVertexAttrib4fvNV@8 004401a0 f   cinder:GLee.obj
 0001:0003f1d0       _GLee_Lazy_glVertexAttrib4sNV@20 004401d0 f   cinder:GLee.obj
 0001:0003f210       _GLee_Lazy_glVertexAttrib4svNV@8 00440210 f   cinder:GLee.obj
 0001:0003f240       _GLee_Lazy_glVertexAttrib4ubNV@20 00440240 f   cinder:GLee.obj
 0001:0003f280       _GLee_Lazy_glVertexAttrib4ubvNV@8 00440280 f   cinder:GLee.obj
 0001:0003f2b0       _GLee_Lazy_glVertexAttribs1dvNV@12 004402b0 f   cinder:GLee.obj
 0001:0003f2e0       _GLee_Lazy_glVertexAttribs1fvNV@12 004402e0 f   cinder:GLee.obj
 0001:0003f310       _GLee_Lazy_glVertexAttribs1svNV@12 00440310 f   cinder:GLee.obj
 0001:0003f340       _GLee_Lazy_glVertexAttribs2dvNV@12 00440340 f   cinder:GLee.obj
 0001:0003f370       _GLee_Lazy_glVertexAttribs2fvNV@12 00440370 f   cinder:GLee.obj
 0001:0003f3a0       _GLee_Lazy_glVertexAttribs2svNV@12 004403a0 f   cinder:GLee.obj
 0001:0003f3d0       _GLee_Lazy_glVertexAttribs3dvNV@12 004403d0 f   cinder:GLee.obj
 0001:0003f400       _GLee_Lazy_glVertexAttribs3fvNV@12 00440400 f   cinder:GLee.obj
 0001:0003f430       _GLee_Lazy_glVertexAttribs3svNV@12 00440430 f   cinder:GLee.obj
 0001:0003f460       _GLee_Lazy_glVertexAttribs4dvNV@12 00440460 f   cinder:GLee.obj
 0001:0003f490       _GLee_Lazy_glVertexAttribs4fvNV@12 00440490 f   cinder:GLee.obj
 0001:0003f4c0       _GLee_Lazy_glVertexAttribs4svNV@12 004404c0 f   cinder:GLee.obj
 0001:0003f4f0       _GLee_Lazy_glVertexAttribs4ubvNV@12 004404f0 f   cinder:GLee.obj
 0001:0003f520       _GLee_Lazy_glTexBumpParameterivATI@8 00440520 f   cinder:GLee.obj
 0001:0003f550       _GLee_Lazy_glTexBumpParameterfvATI@8 00440550 f   cinder:GLee.obj
 0001:0003f580       _GLee_Lazy_glGetTexBumpParameterivATI@8 00440580 f   cinder:GLee.obj
 0001:0003f5b0       _GLee_Lazy_glGetTexBumpParameterfvATI@8 004405b0 f   cinder:GLee.obj
 0001:0003f5e0       _GLee_Lazy_glGenFragmentShadersATI@4 004405e0 f   cinder:GLee.obj
 0001:0003f610       _GLee_Lazy_glBindFragmentShaderATI@4 00440610 f   cinder:GLee.obj
 0001:0003f630       _GLee_Lazy_glDeleteFragmentShaderATI@4 00440630 f   cinder:GLee.obj
 0001:0003f650       _GLee_Lazy_glBeginFragmentShaderATI@0 00440650 f   cinder:GLee.obj
 0001:0003f670       _GLee_Lazy_glEndFragmentShaderATI@0 00440670 f   cinder:GLee.obj
 0001:0003f690       _GLee_Lazy_glPassTexCoordATI@12 00440690 f   cinder:GLee.obj
 0001:0003f6c0       _GLee_Lazy_glSampleMapATI@12 004406c0 f   cinder:GLee.obj
 0001:0003f6f0       _GLee_Lazy_glColorFragmentOp1ATI@28 004406f0 f   cinder:GLee.obj
 0001:0003f730       _GLee_Lazy_glColorFragmentOp2ATI@40 00440730 f   cinder:GLee.obj
 0001:0003f780       _GLee_Lazy_glColorFragmentOp3ATI@52 00440780 f   cinder:GLee.obj
 0001:0003f7d0       _GLee_Lazy_glAlphaFragmentOp1ATI@24 004407d0 f   cinder:GLee.obj
 0001:0003f810       _GLee_Lazy_glAlphaFragmentOp2ATI@36 00440810 f   cinder:GLee.obj
 0001:0003f850       _GLee_Lazy_glAlphaFragmentOp3ATI@48 00440850 f   cinder:GLee.obj
 0001:0003f8a0       _GLee_Lazy_glSetFragmentShaderConstantATI@8 004408a0 f   cinder:GLee.obj
 0001:0003f8d0       _GLee_Lazy_glPNTrianglesiATI@8 004408d0 f   cinder:GLee.obj
 0001:0003f900       _GLee_Lazy_glPNTrianglesfATI@8 00440900 f   cinder:GLee.obj
 0001:0003f930       _GLee_Lazy_glNewObjectBufferATI@12 00440930 f   cinder:GLee.obj
 0001:0003f960       _GLee_Lazy_glIsObjectBufferATI@4 00440960 f   cinder:GLee.obj
 0001:0003f990       _GLee_Lazy_glUpdateObjectBufferATI@20 00440990 f   cinder:GLee.obj
 0001:0003f9c0       _GLee_Lazy_glGetObjectBufferfvATI@12 004409c0 f   cinder:GLee.obj
 0001:0003f9f0       _GLee_Lazy_glGetObjectBufferivATI@12 004409f0 f   cinder:GLee.obj
 0001:0003fa20       _GLee_Lazy_glFreeObjectBufferATI@4 00440a20 f   cinder:GLee.obj
 0001:0003fa40       _GLee_Lazy_glArrayObjectATI@24 00440a40 f   cinder:GLee.obj
 0001:0003fa80       _GLee_Lazy_glGetArrayObjectfvATI@12 00440a80 f   cinder:GLee.obj
 0001:0003fab0       _GLee_Lazy_glGetArrayObjectivATI@12 00440ab0 f   cinder:GLee.obj
 0001:0003fae0       _GLee_Lazy_glVariantArrayObjectATI@20 00440ae0 f   cinder:GLee.obj
 0001:0003fb10       _GLee_Lazy_glGetVariantArrayObjectfvATI@12 00440b10 f   cinder:GLee.obj
 0001:0003fb40       _GLee_Lazy_glGetVariantArrayObjectivATI@12 00440b40 f   cinder:GLee.obj
 0001:0003fb70       _GLee_Lazy_glBeginVertexShaderEXT@0 00440b70 f   cinder:GLee.obj
 0001:0003fb90       _GLee_Lazy_glEndVertexShaderEXT@0 00440b90 f   cinder:GLee.obj
 0001:0003fbb0       _GLee_Lazy_glBindVertexShaderEXT@4 00440bb0 f   cinder:GLee.obj
 0001:0003fbd0       _GLee_Lazy_glGenVertexShadersEXT@4 00440bd0 f   cinder:GLee.obj
 0001:0003fc00       _GLee_Lazy_glDeleteVertexShaderEXT@4 00440c00 f   cinder:GLee.obj
 0001:0003fc20       _GLee_Lazy_glShaderOp1EXT@12 00440c20 f   cinder:GLee.obj
 0001:0003fc50       _GLee_Lazy_glShaderOp2EXT@16 00440c50 f   cinder:GLee.obj
 0001:0003fc80       _GLee_Lazy_glShaderOp3EXT@20 00440c80 f   cinder:GLee.obj
 0001:0003fcb0       _GLee_Lazy_glSwizzleEXT@24 00440cb0 f   cinder:GLee.obj
 0001:0003fcf0       _GLee_Lazy_glWriteMaskEXT@24 00440cf0 f   cinder:GLee.obj
 0001:0003fd30       _GLee_Lazy_glInsertComponentEXT@12 00440d30 f   cinder:GLee.obj
 0001:0003fd60       _GLee_Lazy_glExtractComponentEXT@12 00440d60 f   cinder:GLee.obj
 0001:0003fd90       _GLee_Lazy_glGenSymbolsEXT@16 00440d90 f   cinder:GLee.obj
 0001:0003fdc0       _GLee_Lazy_glSetInvariantEXT@12 00440dc0 f   cinder:GLee.obj
 0001:0003fdf0       _GLee_Lazy_glSetLocalConstantEXT@12 00440df0 f   cinder:GLee.obj
 0001:0003fe20       _GLee_Lazy_glVariantbvEXT@8 00440e20 f   cinder:GLee.obj
 0001:0003fe50       _GLee_Lazy_glVariantsvEXT@8 00440e50 f   cinder:GLee.obj
 0001:0003fe80       _GLee_Lazy_glVariantivEXT@8 00440e80 f   cinder:GLee.obj
 0001:0003feb0       _GLee_Lazy_glVariantfvEXT@8 00440eb0 f   cinder:GLee.obj
 0001:0003fee0       _GLee_Lazy_glVariantdvEXT@8 00440ee0 f   cinder:GLee.obj
 0001:0003ff10       _GLee_Lazy_glVariantubvEXT@8 00440f10 f   cinder:GLee.obj
 0001:0003ff40       _GLee_Lazy_glVariantusvEXT@8 00440f40 f   cinder:GLee.obj
 0001:0003ff70       _GLee_Lazy_glVariantuivEXT@8 00440f70 f   cinder:GLee.obj
 0001:0003ffa0       _GLee_Lazy_glVariantPointerEXT@16 00440fa0 f   cinder:GLee.obj
 0001:0003ffd0       _GLee_Lazy_glEnableVariantClientStateEXT@4 00440fd0 f   cinder:GLee.obj
 0001:0003fff0       _GLee_Lazy_glDisableVariantClientStateEXT@4 00440ff0 f   cinder:GLee.obj
 0001:00040010       _GLee_Lazy_glBindLightParameterEXT@8 00441010 f   cinder:GLee.obj
 0001:00040040       _GLee_Lazy_glBindMaterialParameterEXT@8 00441040 f   cinder:GLee.obj
 0001:00040070       _GLee_Lazy_glBindTexGenParameterEXT@12 00441070 f   cinder:GLee.obj
 0001:000400a0       _GLee_Lazy_glBindTextureUnitParameterEXT@8 004410a0 f   cinder:GLee.obj
 0001:000400d0       _GLee_Lazy_glBindParameterEXT@4 004410d0 f   cinder:GLee.obj
 0001:00040100       _GLee_Lazy_glIsVariantEnabledEXT@8 00441100 f   cinder:GLee.obj
 0001:00040130       _GLee_Lazy_glGetVariantBooleanvEXT@12 00441130 f   cinder:GLee.obj
 0001:00040160       _GLee_Lazy_glGetVariantIntegervEXT@12 00441160 f   cinder:GLee.obj
 0001:00040190       _GLee_Lazy_glGetVariantFloatvEXT@12 00441190 f   cinder:GLee.obj
 0001:000401c0       _GLee_Lazy_glGetVariantPointervEXT@12 004411c0 f   cinder:GLee.obj
 0001:000401f0       _GLee_Lazy_glGetInvariantBooleanvEXT@12 004411f0 f   cinder:GLee.obj
 0001:00040220       _GLee_Lazy_glGetInvariantIntegervEXT@12 00441220 f   cinder:GLee.obj
 0001:00040250       _GLee_Lazy_glGetInvariantFloatvEXT@12 00441250 f   cinder:GLee.obj
 0001:00040280       _GLee_Lazy_glGetLocalConstantBooleanvEXT@12 00441280 f   cinder:GLee.obj
 0001:000402b0       _GLee_Lazy_glGetLocalConstantIntegervEXT@12 004412b0 f   cinder:GLee.obj
 0001:000402e0       _GLee_Lazy_glGetLocalConstantFloatvEXT@12 004412e0 f   cinder:GLee.obj
 0001:00040310       _GLee_Lazy_glVertexStream1sATI@8 00441310 f   cinder:GLee.obj
 0001:00040340       _GLee_Lazy_glVertexStream1svATI@8 00441340 f   cinder:GLee.obj
 0001:00040370       _GLee_Lazy_glVertexStream1iATI@8 00441370 f   cinder:GLee.obj
 0001:000403a0       _GLee_Lazy_glVertexStream1ivATI@8 004413a0 f   cinder:GLee.obj
 0001:000403d0       _GLee_Lazy_glVertexStream1fATI@8 004413d0 f   cinder:GLee.obj
 0001:00040400       _GLee_Lazy_glVertexStream1fvATI@8 00441400 f   cinder:GLee.obj
 0001:00040430       _GLee_Lazy_glVertexStream1dATI@12 00441430 f   cinder:GLee.obj
 0001:00040460       _GLee_Lazy_glVertexStream1dvATI@8 00441460 f   cinder:GLee.obj
 0001:00040490       _GLee_Lazy_glVertexStream2sATI@12 00441490 f   cinder:GLee.obj
 0001:000404c0       _GLee_Lazy_glVertexStream2svATI@8 004414c0 f   cinder:GLee.obj
 0001:000404f0       _GLee_Lazy_glVertexStream2iATI@12 004414f0 f   cinder:GLee.obj
 0001:00040520       _GLee_Lazy_glVertexStream2ivATI@8 00441520 f   cinder:GLee.obj
 0001:00040550       _GLee_Lazy_glVertexStream2fATI@12 00441550 f   cinder:GLee.obj
 0001:00040580       _GLee_Lazy_glVertexStream2fvATI@8 00441580 f   cinder:GLee.obj
 0001:000405b0       _GLee_Lazy_glVertexStream2dATI@20 004415b0 f   cinder:GLee.obj
 0001:000405e0       _GLee_Lazy_glVertexStream2dvATI@8 004415e0 f   cinder:GLee.obj
 0001:00040610       _GLee_Lazy_glVertexStream3sATI@16 00441610 f   cinder:GLee.obj
 0001:00040640       _GLee_Lazy_glVertexStream3svATI@8 00441640 f   cinder:GLee.obj
 0001:00040670       _GLee_Lazy_glVertexStream3iATI@16 00441670 f   cinder:GLee.obj
 0001:000406a0       _GLee_Lazy_glVertexStream3ivATI@8 004416a0 f   cinder:GLee.obj
 0001:000406d0       _GLee_Lazy_glVertexStream3fATI@16 004416d0 f   cinder:GLee.obj
 0001:00040710       _GLee_Lazy_glVertexStream3fvATI@8 00441710 f   cinder:GLee.obj
 0001:00040740       _GLee_Lazy_glVertexStream3dATI@28 00441740 f   cinder:GLee.obj
 0001:00040780       _GLee_Lazy_glVertexStream3dvATI@8 00441780 f   cinder:GLee.obj
 0001:000407b0       _GLee_Lazy_glVertexStream4sATI@20 004417b0 f   cinder:GLee.obj
 0001:000407f0       _GLee_Lazy_glVertexStream4svATI@8 004417f0 f   cinder:GLee.obj
 0001:00040820       _GLee_Lazy_glVertexStream4iATI@20 00441820 f   cinder:GLee.obj
 0001:00040850       _GLee_Lazy_glVertexStream4ivATI@8 00441850 f   cinder:GLee.obj
 0001:00040880       _GLee_Lazy_glVertexStream4fATI@20 00441880 f   cinder:GLee.obj
 0001:000408c0       _GLee_Lazy_glVertexStream4fvATI@8 004418c0 f   cinder:GLee.obj
 0001:000408f0       _GLee_Lazy_glVertexStream4dATI@36 004418f0 f   cinder:GLee.obj
 0001:00040940       _GLee_Lazy_glVertexStream4dvATI@8 00441940 f   cinder:GLee.obj
 0001:00040970       _GLee_Lazy_glNormalStream3bATI@16 00441970 f   cinder:GLee.obj
 0001:000409a0       _GLee_Lazy_glNormalStream3bvATI@8 004419a0 f   cinder:GLee.obj
 0001:000409d0       _GLee_Lazy_glNormalStream3sATI@16 004419d0 f   cinder:GLee.obj
 0001:00040a00       _GLee_Lazy_glNormalStream3svATI@8 00441a00 f   cinder:GLee.obj
 0001:00040a30       _GLee_Lazy_glNormalStream3iATI@16 00441a30 f   cinder:GLee.obj
 0001:00040a60       _GLee_Lazy_glNormalStream3ivATI@8 00441a60 f   cinder:GLee.obj
 0001:00040a90       _GLee_Lazy_glNormalStream3fATI@16 00441a90 f   cinder:GLee.obj
 0001:00040ad0       _GLee_Lazy_glNormalStream3fvATI@8 00441ad0 f   cinder:GLee.obj
 0001:00040b00       _GLee_Lazy_glNormalStream3dATI@28 00441b00 f   cinder:GLee.obj
 0001:00040b40       _GLee_Lazy_glNormalStream3dvATI@8 00441b40 f   cinder:GLee.obj
 0001:00040b70       _GLee_Lazy_glClientActiveVertexStreamATI@4 00441b70 f   cinder:GLee.obj
 0001:00040b90       _GLee_Lazy_glVertexBlendEnviATI@8 00441b90 f   cinder:GLee.obj
 0001:00040bc0       _GLee_Lazy_glVertexBlendEnvfATI@8 00441bc0 f   cinder:GLee.obj
 0001:00040bf0       _GLee_Lazy_glElementPointerATI@8 00441bf0 f   cinder:GLee.obj
 0001:00040c20       _GLee_Lazy_glDrawElementArrayATI@8 00441c20 f   cinder:GLee.obj
 0001:00040c50       _GLee_Lazy_glDrawRangeElementArrayATI@16 00441c50 f   cinder:GLee.obj
 0001:00040c80       _GLee_Lazy_glDrawMeshArraysSUN@16 00441c80 f   cinder:GLee.obj
 0001:00040cb0       _GLee_Lazy_glGenOcclusionQueriesNV@8 00441cb0 f   cinder:GLee.obj
 0001:00040ce0       _GLee_Lazy_glDeleteOcclusionQueriesNV@8 00441ce0 f   cinder:GLee.obj
 0001:00040d10       _GLee_Lazy_glIsOcclusionQueryNV@4 00441d10 f   cinder:GLee.obj
 0001:00040d40       _GLee_Lazy_glBeginOcclusionQueryNV@4 00441d40 f   cinder:GLee.obj
 0001:00040d60       _GLee_Lazy_glEndOcclusionQueryNV@0 00441d60 f   cinder:GLee.obj
 0001:00040d80       _GLee_Lazy_glGetOcclusionQueryivNV@12 00441d80 f   cinder:GLee.obj
 0001:00040db0       _GLee_Lazy_glGetOcclusionQueryuivNV@12 00441db0 f   cinder:GLee.obj
 0001:00040de0       _GLee_Lazy_glPointParameteriNV@8 00441de0 f   cinder:GLee.obj
 0001:00040e10       _GLee_Lazy_glPointParameterivNV@8 00441e10 f   cinder:GLee.obj
 0001:00040e40       _GLee_Lazy_glActiveStencilFaceEXT@4 00441e40 f   cinder:GLee.obj
 0001:00040e60       _GLee_Lazy_glElementPointerAPPLE@8 00441e60 f   cinder:GLee.obj
 0001:00040e90       _GLee_Lazy_glDrawElementArrayAPPLE@12 00441e90 f   cinder:GLee.obj
 0001:00040ec0       _GLee_Lazy_glDrawRangeElementArrayAPPLE@20 00441ec0 f   cinder:GLee.obj
 0001:00040ef0       _GLee_Lazy_glMultiDrawElementArrayAPPLE@16 00441ef0 f   cinder:GLee.obj
 0001:00040f20       _GLee_Lazy_glMultiDrawRangeElementArrayAPPLE@24 00441f20 f   cinder:GLee.obj
 0001:00040f60       _GLee_Lazy_glGenFencesAPPLE@8 00441f60 f   cinder:GLee.obj
 0001:00040f90       _GLee_Lazy_glDeleteFencesAPPLE@8 00441f90 f   cinder:GLee.obj
 0001:00040fc0       _GLee_Lazy_glSetFenceAPPLE@4 00441fc0 f   cinder:GLee.obj
 0001:00040fe0       _GLee_Lazy_glIsFenceAPPLE@4 00441fe0 f   cinder:GLee.obj
 0001:00041010       _GLee_Lazy_glTestFenceAPPLE@4 00442010 f   cinder:GLee.obj
 0001:00041040       _GLee_Lazy_glFinishFenceAPPLE@4 00442040 f   cinder:GLee.obj
 0001:00041060       _GLee_Lazy_glTestObjectAPPLE@8 00442060 f   cinder:GLee.obj
 0001:00041090       _GLee_Lazy_glFinishObjectAPPLE@8 00442090 f   cinder:GLee.obj
 0001:000410c0       _GLee_Lazy_glBindVertexArrayAPPLE@4 004420c0 f   cinder:GLee.obj
 0001:000410e0       _GLee_Lazy_glDeleteVertexArraysAPPLE@8 004420e0 f   cinder:GLee.obj
 0001:00041110       _GLee_Lazy_glGenVertexArraysAPPLE@8 00442110 f   cinder:GLee.obj
 0001:00041140       _GLee_Lazy_glIsVertexArrayAPPLE@4 00442140 f   cinder:GLee.obj
 0001:00041170       _GLee_Lazy_glVertexArrayRangeAPPLE@8 00442170 f   cinder:GLee.obj
 0001:000411a0       _GLee_Lazy_glFlushVertexArrayRangeAPPLE@8 004421a0 f   cinder:GLee.obj
 0001:000411d0       _GLee_Lazy_glVertexArrayParameteriAPPLE@8 004421d0 f   cinder:GLee.obj
 0001:00041200       _GLee_Lazy_glDrawBuffersATI@8 00442200 f   cinder:GLee.obj
 0001:00041230       _GLee_Lazy_glProgramNamedParameter4fNV@28 00442230 f   cinder:GLee.obj
 0001:00041280       _GLee_Lazy_glProgramNamedParameter4dNV@44 00442280 f   cinder:GLee.obj
 0001:000412d0       _GLee_Lazy_glProgramNamedParameter4fvNV@16 004422d0 f   cinder:GLee.obj
 0001:00041300       _GLee_Lazy_glProgramNamedParameter4dvNV@16 00442300 f   cinder:GLee.obj
 0001:00041330       _GLee_Lazy_glGetProgramNamedParameterfvNV@16 00442330 f   cinder:GLee.obj
 0001:00041360       _GLee_Lazy_glGetProgramNamedParameterdvNV@16 00442360 f   cinder:GLee.obj
 0001:00041390       _GLee_Lazy_glVertex2hNV@8  00442390 f   cinder:GLee.obj
 0001:000413c0       _GLee_Lazy_glVertex2hvNV@4 004423c0 f   cinder:GLee.obj
 0001:000413e0       _GLee_Lazy_glVertex3hNV@12 004423e0 f   cinder:GLee.obj
 0001:00041410       _GLee_Lazy_glVertex3hvNV@4 00442410 f   cinder:GLee.obj
 0001:00041430       _GLee_Lazy_glVertex4hNV@16 00442430 f   cinder:GLee.obj
 0001:00041460       _GLee_Lazy_glVertex4hvNV@4 00442460 f   cinder:GLee.obj
 0001:00041480       _GLee_Lazy_glNormal3hNV@12 00442480 f   cinder:GLee.obj
 0001:000414b0       _GLee_Lazy_glNormal3hvNV@4 004424b0 f   cinder:GLee.obj
 0001:000414d0       _GLee_Lazy_glColor3hNV@12  004424d0 f   cinder:GLee.obj
 0001:00041500       _GLee_Lazy_glColor3hvNV@4  00442500 f   cinder:GLee.obj
 0001:00041520       _GLee_Lazy_glColor4hNV@16  00442520 f   cinder:GLee.obj
 0001:00041550       _GLee_Lazy_glColor4hvNV@4  00442550 f   cinder:GLee.obj
 0001:00041570       _GLee_Lazy_glTexCoord1hNV@4 00442570 f   cinder:GLee.obj
 0001:00041590       _GLee_Lazy_glTexCoord1hvNV@4 00442590 f   cinder:GLee.obj
 0001:000415b0       _GLee_Lazy_glTexCoord2hNV@8 004425b0 f   cinder:GLee.obj
 0001:000415e0       _GLee_Lazy_glTexCoord2hvNV@4 004425e0 f   cinder:GLee.obj
 0001:00041600       _GLee_Lazy_glTexCoord3hNV@12 00442600 f   cinder:GLee.obj
 0001:00041630       _GLee_Lazy_glTexCoord3hvNV@4 00442630 f   cinder:GLee.obj
 0001:00041650       _GLee_Lazy_glTexCoord4hNV@16 00442650 f   cinder:GLee.obj
 0001:00041680       _GLee_Lazy_glTexCoord4hvNV@4 00442680 f   cinder:GLee.obj
 0001:000416a0       _GLee_Lazy_glMultiTexCoord1hNV@8 004426a0 f   cinder:GLee.obj
 0001:000416d0       _GLee_Lazy_glMultiTexCoord1hvNV@8 004426d0 f   cinder:GLee.obj
 0001:00041700       _GLee_Lazy_glMultiTexCoord2hNV@12 00442700 f   cinder:GLee.obj
 0001:00041730       _GLee_Lazy_glMultiTexCoord2hvNV@8 00442730 f   cinder:GLee.obj
 0001:00041760       _GLee_Lazy_glMultiTexCoord3hNV@16 00442760 f   cinder:GLee.obj
 0001:00041790       _GLee_Lazy_glMultiTexCoord3hvNV@8 00442790 f   cinder:GLee.obj
 0001:000417c0       _GLee_Lazy_glMultiTexCoord4hNV@20 004427c0 f   cinder:GLee.obj
 0001:00041800       _GLee_Lazy_glMultiTexCoord4hvNV@8 00442800 f   cinder:GLee.obj
 0001:00041830       _GLee_Lazy_glFogCoordhNV@4 00442830 f   cinder:GLee.obj
 0001:00041850       _GLee_Lazy_glFogCoordhvNV@4 00442850 f   cinder:GLee.obj
 0001:00041870       _GLee_Lazy_glSecondaryColor3hNV@12 00442870 f   cinder:GLee.obj
 0001:000418a0       _GLee_Lazy_glSecondaryColor3hvNV@4 004428a0 f   cinder:GLee.obj
 0001:000418c0       _GLee_Lazy_glVertexWeighthNV@4 004428c0 f   cinder:GLee.obj
 0001:000418e0       _GLee_Lazy_glVertexWeighthvNV@4 004428e0 f   cinder:GLee.obj
 0001:00041900       _GLee_Lazy_glVertexAttrib1hNV@8 00442900 f   cinder:GLee.obj
 0001:00041930       _GLee_Lazy_glVertexAttrib1hvNV@8 00442930 f   cinder:GLee.obj
 0001:00041960       _GLee_Lazy_glVertexAttrib2hNV@12 00442960 f   cinder:GLee.obj
 0001:00041990       _GLee_Lazy_glVertexAttrib2hvNV@8 00442990 f   cinder:GLee.obj
 0001:000419c0       _GLee_Lazy_glVertexAttrib3hNV@16 004429c0 f   cinder:GLee.obj
 0001:000419f0       _GLee_Lazy_glVertexAttrib3hvNV@8 004429f0 f   cinder:GLee.obj
 0001:00041a20       _GLee_Lazy_glVertexAttrib4hNV@20 00442a20 f   cinder:GLee.obj
 0001:00041a60       _GLee_Lazy_glVertexAttrib4hvNV@8 00442a60 f   cinder:GLee.obj
 0001:00041a90       _GLee_Lazy_glVertexAttribs1hvNV@12 00442a90 f   cinder:GLee.obj
 0001:00041ac0       _GLee_Lazy_glVertexAttribs2hvNV@12 00442ac0 f   cinder:GLee.obj
 0001:00041af0       _GLee_Lazy_glVertexAttribs3hvNV@12 00442af0 f   cinder:GLee.obj
 0001:00041b20       _GLee_Lazy_glVertexAttribs4hvNV@12 00442b20 f   cinder:GLee.obj
 0001:00041b50       _GLee_Lazy_glPixelDataRangeNV@12 00442b50 f   cinder:GLee.obj
 0001:00041b80       _GLee_Lazy_glFlushPixelDataRangeNV@4 00442b80 f   cinder:GLee.obj
 0001:00041ba0       _GLee_Lazy_glPrimitiveRestartNV@0 00442ba0 f   cinder:GLee.obj
 0001:00041bc0       _GLee_Lazy_glPrimitiveRestartIndexNV@4 00442bc0 f   cinder:GLee.obj
 0001:00041be0       _GLee_Lazy_glMapObjectBufferATI@4 00442be0 f   cinder:GLee.obj
 0001:00041c10       _GLee_Lazy_glUnmapObjectBufferATI@4 00442c10 f   cinder:GLee.obj
 0001:00041c30       _GLee_Lazy_glStencilOpSeparateATI@16 00442c30 f   cinder:GLee.obj
 0001:00041c60       _GLee_Lazy_glStencilFuncSeparateATI@16 00442c60 f   cinder:GLee.obj
 0001:00041c90       _GLee_Lazy_glVertexAttribArrayObjectATI@28 00442c90 f   cinder:GLee.obj
 0001:00041cd0       _GLee_Lazy_glGetVertexAttribArrayObjectfvATI@12 00442cd0 f   cinder:GLee.obj
 0001:00041d00       _GLee_Lazy_glGetVertexAttribArrayObjectivATI@12 00442d00 f   cinder:GLee.obj
 0001:00041d30       _GLee_Lazy_glDepthBoundsEXT@16 00442d30 f   cinder:GLee.obj
 0001:00041d60       _GLee_Lazy_glBlendEquationSeparateEXT@8 00442d60 f   cinder:GLee.obj
 0001:00041d90       _GLee_Lazy_glIsRenderbufferEXT@4 00442d90 f   cinder:GLee.obj
 0001:00041dc0       _GLee_Lazy_glBindRenderbufferEXT@8 00442dc0 f   cinder:GLee.obj
 0001:00041df0       _GLee_Lazy_glDeleteRenderbuffersEXT@8 00442df0 f   cinder:GLee.obj
 0001:00041e20       _GLee_Lazy_glGenRenderbuffersEXT@8 00442e20 f   cinder:GLee.obj
 0001:00041e50       _GLee_Lazy_glRenderbufferStorageEXT@16 00442e50 f   cinder:GLee.obj
 0001:00041e80       _GLee_Lazy_glGetRenderbufferParameterivEXT@12 00442e80 f   cinder:GLee.obj
 0001:00041eb0       _GLee_Lazy_glIsFramebufferEXT@4 00442eb0 f   cinder:GLee.obj
 0001:00041ee0       _GLee_Lazy_glBindFramebufferEXT@8 00442ee0 f   cinder:GLee.obj
 0001:00041f10       _GLee_Lazy_glDeleteFramebuffersEXT@8 00442f10 f   cinder:GLee.obj
 0001:00041f40       _GLee_Lazy_glGenFramebuffersEXT@8 00442f40 f   cinder:GLee.obj
 0001:00041f70       _GLee_Lazy_glCheckFramebufferStatusEXT@4 00442f70 f   cinder:GLee.obj
 0001:00041fa0       _GLee_Lazy_glFramebufferTexture1DEXT@20 00442fa0 f   cinder:GLee.obj
 0001:00041fd0       _GLee_Lazy_glFramebufferTexture2DEXT@20 00442fd0 f   cinder:GLee.obj
 0001:00042000       _GLee_Lazy_glFramebufferTexture3DEXT@24 00443000 f   cinder:GLee.obj
 0001:00042040       _GLee_Lazy_glFramebufferRenderbufferEXT@16 00443040 f   cinder:GLee.obj
 0001:00042070       _GLee_Lazy_glGetFramebufferAttachmentParameterivEXT@16 00443070 f   cinder:GLee.obj
 0001:000420a0       _GLee_Lazy_glGenerateMipmapEXT@4 004430a0 f   cinder:GLee.obj
 0001:000420c0       _GLee_Lazy_glStringMarkerGREMEDY@8 004430c0 f   cinder:GLee.obj
 0001:000420f0       _GLee_Lazy_glStencilClearTagEXT@8 004430f0 f   cinder:GLee.obj
 0001:00042120       _GLee_Lazy_glBlitFramebufferEXT@40 00443120 f   cinder:GLee.obj
 0001:00042170       _GLee_Lazy_glRenderbufferStorageMultisampleEXT@20 00443170 f   cinder:GLee.obj
 0001:000421a0       _GLee_Lazy_glGetQueryObjecti64vEXT@12 004431a0 f   cinder:GLee.obj
 0001:000421d0       _GLee_Lazy_glGetQueryObjectui64vEXT@12 004431d0 f   cinder:GLee.obj
 0001:00042200       _GLee_Lazy_glProgramEnvParameters4fvEXT@16 00443200 f   cinder:GLee.obj
 0001:00042230       _GLee_Lazy_glProgramLocalParameters4fvEXT@16 00443230 f   cinder:GLee.obj
 0001:00042260       _GLee_Lazy_glBufferParameteriAPPLE@12 00443260 f   cinder:GLee.obj
 0001:00042290       _GLee_Lazy_glFlushMappedBufferRangeAPPLE@12 00443290 f   cinder:GLee.obj
 0001:000422c0       _GLee_Lazy_glGetUniformuivEXT@12 004432c0 f   cinder:GLee.obj
 0001:000422f0       _GLee_Lazy_glBindFragDataLocationEXT@12 004432f0 f   cinder:GLee.obj
 0001:00042320       _GLee_Lazy_glGetFragDataLocationEXT@8 00443320 f   cinder:GLee.obj
 0001:00042350       _GLee_Lazy_glUniform1uiEXT@8 00443350 f   cinder:GLee.obj
 0001:00042380       _GLee_Lazy_glUniform2uiEXT@12 00443380 f   cinder:GLee.obj
 0001:000423b0       _GLee_Lazy_glUniform3uiEXT@16 004433b0 f   cinder:GLee.obj
 0001:000423e0       _GLee_Lazy_glUniform4uiEXT@20 004433e0 f   cinder:GLee.obj
 0001:00042410       _GLee_Lazy_glUniform1uivEXT@12 00443410 f   cinder:GLee.obj
 0001:00042440       _GLee_Lazy_glUniform2uivEXT@12 00443440 f   cinder:GLee.obj
 0001:00042470       _GLee_Lazy_glUniform3uivEXT@12 00443470 f   cinder:GLee.obj
 0001:000424a0       _GLee_Lazy_glUniform4uivEXT@12 004434a0 f   cinder:GLee.obj
 0001:000424d0       _GLee_Lazy_glDrawArraysInstancedEXT@16 004434d0 f   cinder:GLee.obj
 0001:00042500       _GLee_Lazy_glDrawElementsInstancedEXT@20 00443500 f   cinder:GLee.obj
 0001:00042530       _GLee_Lazy_glTexBufferEXT@12 00443530 f   cinder:GLee.obj
 0001:00042560       _GLee_Lazy_glDepthRangedNV@16 00443560 f   cinder:GLee.obj
 0001:00042590       _GLee_Lazy_glClearDepthdNV@8 00443590 f   cinder:GLee.obj
 0001:000425c0       _GLee_Lazy_glDepthBoundsdNV@16 004435c0 f   cinder:GLee.obj
 0001:000425f0       _GLee_Lazy_glRenderbufferStorageMultisampleCoverageNV@24 004435f0 f   cinder:GLee.obj
 0001:00042630       _GLee_Lazy_glProgramBufferParametersfvNV@20 00443630 f   cinder:GLee.obj
 0001:00042660       _GLee_Lazy_glProgramBufferParametersIivNV@20 00443660 f   cinder:GLee.obj
 0001:00042690       _GLee_Lazy_glProgramBufferParametersIuivNV@20 00443690 f   cinder:GLee.obj
 0001:000426c0       _GLee_Lazy_glColorMaskIndexedEXT@20 004436c0 f   cinder:GLee.obj
 0001:00042700       _GLee_Lazy_glGetBooleanIndexedvEXT@12 00443700 f   cinder:GLee.obj
 0001:00042730       _GLee_Lazy_glGetIntegerIndexedvEXT@12 00443730 f   cinder:GLee.obj
 0001:00042760       _GLee_Lazy_glEnableIndexedEXT@8 00443760 f   cinder:GLee.obj
 0001:00042790       _GLee_Lazy_glDisableIndexedEXT@8 00443790 f   cinder:GLee.obj
 0001:000427c0       _GLee_Lazy_glIsEnabledIndexedEXT@8 004437c0 f   cinder:GLee.obj
 0001:000427f0       _GLee_Lazy_glBeginTransformFeedbackNV@4 004437f0 f   cinder:GLee.obj
 0001:00042810       _GLee_Lazy_glEndTransformFeedbackNV@0 00443810 f   cinder:GLee.obj
 0001:00042830       _GLee_Lazy_glTransformFeedbackAttribsNV@12 00443830 f   cinder:GLee.obj
 0001:00042860       _GLee_Lazy_glBindBufferRangeNV@20 00443860 f   cinder:GLee.obj
 0001:00042890       _GLee_Lazy_glBindBufferOffsetNV@16 00443890 f   cinder:GLee.obj
 0001:000428c0       _GLee_Lazy_glBindBufferBaseNV@12 004438c0 f   cinder:GLee.obj
 0001:000428f0       _GLee_Lazy_glTransformFeedbackVaryingsNV@16 004438f0 f   cinder:GLee.obj
 0001:00042920       _GLee_Lazy_glActiveVaryingNV@8 00443920 f   cinder:GLee.obj
 0001:00042950       _GLee_Lazy_glGetVaryingLocationNV@8 00443950 f   cinder:GLee.obj
 0001:00042980       _GLee_Lazy_glGetActiveVaryingNV@28 00443980 f   cinder:GLee.obj
 0001:000429c0       _GLee_Lazy_glGetTransformFeedbackVaryingNV@12 004439c0 f   cinder:GLee.obj
 0001:000429f0       _GLee_Lazy_glUniformBufferEXT@12 004439f0 f   cinder:GLee.obj
 0001:00042a20       _GLee_Lazy_glGetUniformBufferSizeEXT@8 00443a20 f   cinder:GLee.obj
 0001:00042a50       _GLee_Lazy_glGetUniformOffsetEXT@8 00443a50 f   cinder:GLee.obj
 0001:00042a80       _GLee_Lazy_glTexParameterIivEXT@12 00443a80 f   cinder:GLee.obj
 0001:00042ab0       _GLee_Lazy_glTexParameterIuivEXT@12 00443ab0 f   cinder:GLee.obj
 0001:00042ae0       _GLee_Lazy_glGetTexParameterIivEXT@12 00443ae0 f   cinder:GLee.obj
 0001:00042b10       _GLee_Lazy_glGetTexParameterIuivEXT@12 00443b10 f   cinder:GLee.obj
 0001:00042b40       _GLee_Lazy_glClearColorIiEXT@16 00443b40 f   cinder:GLee.obj
 0001:00042b70       _GLee_Lazy_glClearColorIuiEXT@16 00443b70 f   cinder:GLee.obj
 0001:00042ba0       _GLee_Lazy_glFrameTerminatorGREMEDY@0 00443ba0 f   cinder:GLee.obj
 0001:00042bc0       _GLee_Lazy_glBeginConditionalRenderNV@8 00443bc0 f   cinder:GLee.obj
 0001:00042bf0       _GLee_Lazy_glEndConditionalRenderNV@0 00443bf0 f   cinder:GLee.obj
 0001:00042c10       _GLee_Lazy_glBeginTransformFeedbackEXT@4 00443c10 f   cinder:GLee.obj
 0001:00042c30       _GLee_Lazy_glEndTransformFeedbackEXT@0 00443c30 f   cinder:GLee.obj
 0001:00042c50       _GLee_Lazy_glBindBufferRangeEXT@20 00443c50 f   cinder:GLee.obj
 0001:00042c80       _GLee_Lazy_glBindBufferOffsetEXT@16 00443c80 f   cinder:GLee.obj
 0001:00042cb0       _GLee_Lazy_glBindBufferBaseEXT@12 00443cb0 f   cinder:GLee.obj
 0001:00042ce0       _GLee_Lazy_glTransformFeedbackVaryingsEXT@16 00443ce0 f   cinder:GLee.obj
 0001:00042d10       _GLee_Lazy_glGetTransformFeedbackVaryingEXT@12 00443d10 f   cinder:GLee.obj
 0001:00042d40       _GLee_Lazy_glClientAttribDefaultEXT@4 00443d40 f   cinder:GLee.obj
 0001:00042d60       _GLee_Lazy_glPushClientAttribDefaultEXT@4 00443d60 f   cinder:GLee.obj
 0001:00042d80       _GLee_Lazy_glMatrixLoadfEXT@8 00443d80 f   cinder:GLee.obj
 0001:00042db0       _GLee_Lazy_glMatrixLoaddEXT@8 00443db0 f   cinder:GLee.obj
 0001:00042de0       _GLee_Lazy_glMatrixMultfEXT@8 00443de0 f   cinder:GLee.obj
 0001:00042e10       _GLee_Lazy_glMatrixMultdEXT@8 00443e10 f   cinder:GLee.obj
 0001:00042e40       _GLee_Lazy_glMatrixLoadIdentityEXT@4 00443e40 f   cinder:GLee.obj
 0001:00042e60       _GLee_Lazy_glMatrixRotatefEXT@20 00443e60 f   cinder:GLee.obj
 0001:00042ea0       _GLee_Lazy_glMatrixRotatedEXT@36 00443ea0 f   cinder:GLee.obj
 0001:00042ef0       _GLee_Lazy_glMatrixScalefEXT@16 00443ef0 f   cinder:GLee.obj
 0001:00042f30       _GLee_Lazy_glMatrixScaledEXT@28 00443f30 f   cinder:GLee.obj
 0001:00042f70       _GLee_Lazy_glMatrixTranslatefEXT@16 00443f70 f   cinder:GLee.obj
 0001:00042fb0       _GLee_Lazy_glMatrixTranslatedEXT@28 00443fb0 f   cinder:GLee.obj
 0001:00042ff0       _GLee_Lazy_glMatrixFrustumEXT@52 00443ff0 f   cinder:GLee.obj
 0001:00043050       _GLee_Lazy_glMatrixOrthoEXT@52 00444050 f   cinder:GLee.obj
 0001:000430b0       _GLee_Lazy_glMatrixPopEXT@4 004440b0 f   cinder:GLee.obj
 0001:000430d0       _GLee_Lazy_glMatrixPushEXT@4 004440d0 f   cinder:GLee.obj
 0001:000430f0       _GLee_Lazy_glMatrixLoadTransposefEXT@8 004440f0 f   cinder:GLee.obj
 0001:00043120       _GLee_Lazy_glMatrixLoadTransposedEXT@8 00444120 f   cinder:GLee.obj
 0001:00043150       _GLee_Lazy_glMatrixMultTransposefEXT@8 00444150 f   cinder:GLee.obj
 0001:00043180       _GLee_Lazy_glMatrixMultTransposedEXT@8 00444180 f   cinder:GLee.obj
 0001:000431b0       _GLee_Lazy_glTextureParameterfEXT@16 004441b0 f   cinder:GLee.obj
 0001:000431e0       _GLee_Lazy_glTextureParameterfvEXT@16 004441e0 f   cinder:GLee.obj
 0001:00043210       _GLee_Lazy_glTextureParameteriEXT@16 00444210 f   cinder:GLee.obj
 0001:00043240       _GLee_Lazy_glTextureParameterivEXT@16 00444240 f   cinder:GLee.obj
 0001:00043270       _GLee_Lazy_glTextureImage1DEXT@36 00444270 f   cinder:GLee.obj
 0001:000432b0       _GLee_Lazy_glTextureImage2DEXT@40 004442b0 f   cinder:GLee.obj
 0001:00043300       _GLee_Lazy_glTextureSubImage1DEXT@32 00444300 f   cinder:GLee.obj
 0001:00043340       _GLee_Lazy_glTextureSubImage2DEXT@40 00444340 f   cinder:GLee.obj
 0001:00043390       _GLee_Lazy_glCopyTextureImage1DEXT@32 00444390 f   cinder:GLee.obj
 0001:000433d0       _GLee_Lazy_glCopyTextureImage2DEXT@36 004443d0 f   cinder:GLee.obj
 0001:00043410       _GLee_Lazy_glCopyTextureSubImage1DEXT@28 00444410 f   cinder:GLee.obj
 0001:00043450       _GLee_Lazy_glCopyTextureSubImage2DEXT@36 00444450 f   cinder:GLee.obj
 0001:00043490       _GLee_Lazy_glGetTextureImageEXT@24 00444490 f   cinder:GLee.obj
 0001:000434d0       _GLee_Lazy_glGetTextureParameterfvEXT@16 004444d0 f   cinder:GLee.obj
 0001:00043500       _GLee_Lazy_glGetTextureParameterivEXT@16 00444500 f   cinder:GLee.obj
 0001:00043530       _GLee_Lazy_glGetTextureLevelParameterfvEXT@20 00444530 f   cinder:GLee.obj
 0001:00043560       _GLee_Lazy_glGetTextureLevelParameterivEXT@20 00444560 f   cinder:GLee.obj
 0001:00043590       _GLee_Lazy_glTextureImage3DEXT@44 00444590 f   cinder:GLee.obj
 0001:000435e0       _GLee_Lazy_glTextureSubImage3DEXT@48 004445e0 f   cinder:GLee.obj
 0001:00043630       _GLee_Lazy_glCopyTextureSubImage3DEXT@40 00444630 f   cinder:GLee.obj
 0001:00043680       _GLee_Lazy_glMultiTexParameterfEXT@16 00444680 f   cinder:GLee.obj
 0001:000436b0       _GLee_Lazy_glMultiTexParameterfvEXT@16 004446b0 f   cinder:GLee.obj
 0001:000436e0       _GLee_Lazy_glMultiTexParameteriEXT@16 004446e0 f   cinder:GLee.obj
 0001:00043710       _GLee_Lazy_glMultiTexParameterivEXT@16 00444710 f   cinder:GLee.obj
 0001:00043740       _GLee_Lazy_glMultiTexImage1DEXT@36 00444740 f   cinder:GLee.obj
 0001:00043780       _GLee_Lazy_glMultiTexImage2DEXT@40 00444780 f   cinder:GLee.obj
 0001:000437d0       _GLee_Lazy_glMultiTexSubImage1DEXT@32 004447d0 f   cinder:GLee.obj
 0001:00043810       _GLee_Lazy_glMultiTexSubImage2DEXT@40 00444810 f   cinder:GLee.obj
 0001:00043860       _GLee_Lazy_glCopyMultiTexImage1DEXT@32 00444860 f   cinder:GLee.obj
 0001:000438a0       _GLee_Lazy_glCopyMultiTexImage2DEXT@36 004448a0 f   cinder:GLee.obj
 0001:000438e0       _GLee_Lazy_glCopyMultiTexSubImage1DEXT@28 004448e0 f   cinder:GLee.obj
 0001:00043920       _GLee_Lazy_glCopyMultiTexSubImage2DEXT@36 00444920 f   cinder:GLee.obj
 0001:00043960       _GLee_Lazy_glGetMultiTexImageEXT@24 00444960 f   cinder:GLee.obj
 0001:000439a0       _GLee_Lazy_glGetMultiTexParameterfvEXT@16 004449a0 f   cinder:GLee.obj
 0001:000439d0       _GLee_Lazy_glGetMultiTexParameterivEXT@16 004449d0 f   cinder:GLee.obj
 0001:00043a00       _GLee_Lazy_glGetMultiTexLevelParameterfvEXT@20 00444a00 f   cinder:GLee.obj
 0001:00043a30       _GLee_Lazy_glGetMultiTexLevelParameterivEXT@20 00444a30 f   cinder:GLee.obj
 0001:00043a60       _GLee_Lazy_glMultiTexImage3DEXT@44 00444a60 f   cinder:GLee.obj
 0001:00043ab0       _GLee_Lazy_glMultiTexSubImage3DEXT@48 00444ab0 f   cinder:GLee.obj
 0001:00043b00       _GLee_Lazy_glCopyMultiTexSubImage3DEXT@40 00444b00 f   cinder:GLee.obj
 0001:00043b50       _GLee_Lazy_glBindMultiTextureEXT@12 00444b50 f   cinder:GLee.obj
 0001:00043b80       _GLee_Lazy_glEnableClientStateIndexedEXT@8 00444b80 f   cinder:GLee.obj
 0001:00043bb0       _GLee_Lazy_glDisableClientStateIndexedEXT@8 00444bb0 f   cinder:GLee.obj
 0001:00043be0       _GLee_Lazy_glMultiTexCoordPointerEXT@20 00444be0 f   cinder:GLee.obj
 0001:00043c10       _GLee_Lazy_glMultiTexEnvfEXT@16 00444c10 f   cinder:GLee.obj
 0001:00043c40       _GLee_Lazy_glMultiTexEnvfvEXT@16 00444c40 f   cinder:GLee.obj
 0001:00043c70       _GLee_Lazy_glMultiTexEnviEXT@16 00444c70 f   cinder:GLee.obj
 0001:00043ca0       _GLee_Lazy_glMultiTexEnvivEXT@16 00444ca0 f   cinder:GLee.obj
 0001:00043cd0       _GLee_Lazy_glMultiTexGendEXT@20 00444cd0 f   cinder:GLee.obj
 0001:00043d00       _GLee_Lazy_glMultiTexGendvEXT@16 00444d00 f   cinder:GLee.obj
 0001:00043d30       _GLee_Lazy_glMultiTexGenfEXT@16 00444d30 f   cinder:GLee.obj
 0001:00043d60       _GLee_Lazy_glMultiTexGenfvEXT@16 00444d60 f   cinder:GLee.obj
 0001:00043d90       _GLee_Lazy_glMultiTexGeniEXT@16 00444d90 f   cinder:GLee.obj
 0001:00043dc0       _GLee_Lazy_glMultiTexGenivEXT@16 00444dc0 f   cinder:GLee.obj
 0001:00043df0       _GLee_Lazy_glGetMultiTexEnvfvEXT@16 00444df0 f   cinder:GLee.obj
 0001:00043e20       _GLee_Lazy_glGetMultiTexEnvivEXT@16 00444e20 f   cinder:GLee.obj
 0001:00043e50       _GLee_Lazy_glGetMultiTexGendvEXT@16 00444e50 f   cinder:GLee.obj
 0001:00043e80       _GLee_Lazy_glGetMultiTexGenfvEXT@16 00444e80 f   cinder:GLee.obj
 0001:00043eb0       _GLee_Lazy_glGetMultiTexGenivEXT@16 00444eb0 f   cinder:GLee.obj
 0001:00043ee0       _GLee_Lazy_glGetFloatIndexedvEXT@12 00444ee0 f   cinder:GLee.obj
 0001:00043f10       _GLee_Lazy_glGetDoubleIndexedvEXT@12 00444f10 f   cinder:GLee.obj
 0001:00043f40       _GLee_Lazy_glGetPointerIndexedvEXT@12 00444f40 f   cinder:GLee.obj
 0001:00043f70       _GLee_Lazy_glCompressedTextureImage3DEXT@40 00444f70 f   cinder:GLee.obj
 0001:00043fc0       _GLee_Lazy_glCompressedTextureImage2DEXT@36 00444fc0 f   cinder:GLee.obj
 0001:00044000       _GLee_Lazy_glCompressedTextureImage1DEXT@32 00445000 f   cinder:GLee.obj
 0001:00044040       _GLee_Lazy_glCompressedTextureSubImage3DEXT@48 00445040 f   cinder:GLee.obj
 0001:00044090       _GLee_Lazy_glCompressedTextureSubImage2DEXT@40 00445090 f   cinder:GLee.obj
 0001:000440e0       _GLee_Lazy_glCompressedTextureSubImage1DEXT@32 004450e0 f   cinder:GLee.obj
 0001:00044120       _GLee_Lazy_glGetCompressedTextureImageEXT@16 00445120 f   cinder:GLee.obj
 0001:00044150       _GLee_Lazy_glCompressedMultiTexImage3DEXT@40 00445150 f   cinder:GLee.obj
 0001:000441a0       _GLee_Lazy_glCompressedMultiTexImage2DEXT@36 004451a0 f   cinder:GLee.obj
 0001:000441e0       _GLee_Lazy_glCompressedMultiTexImage1DEXT@32 004451e0 f   cinder:GLee.obj
 0001:00044220       _GLee_Lazy_glCompressedMultiTexSubImage3DEXT@48 00445220 f   cinder:GLee.obj
 0001:00044270       _GLee_Lazy_glCompressedMultiTexSubImage2DEXT@40 00445270 f   cinder:GLee.obj
 0001:000442c0       _GLee_Lazy_glCompressedMultiTexSubImage1DEXT@32 004452c0 f   cinder:GLee.obj
 0001:00044300       _GLee_Lazy_glGetCompressedMultiTexImageEXT@16 00445300 f   cinder:GLee.obj
 0001:00044330       _GLee_Lazy_glNamedProgramStringEXT@20 00445330 f   cinder:GLee.obj
 0001:00044360       _GLee_Lazy_glNamedProgramLocalParameter4dEXT@44 00445360 f   cinder:GLee.obj
 0001:000443b0       _GLee_Lazy_glNamedProgramLocalParameter4dvEXT@16 004453b0 f   cinder:GLee.obj
 0001:000443e0       _GLee_Lazy_glNamedProgramLocalParameter4fEXT@28 004453e0 f   cinder:GLee.obj
 0001:00044430       _GLee_Lazy_glNamedProgramLocalParameter4fvEXT@16 00445430 f   cinder:GLee.obj
 0001:00044460       _GLee_Lazy_glGetNamedProgramLocalParameterdvEXT@16 00445460 f   cinder:GLee.obj
 0001:00044490       _GLee_Lazy_glGetNamedProgramLocalParameterfvEXT@16 00445490 f   cinder:GLee.obj
 0001:000444c0       _GLee_Lazy_glGetNamedProgramivEXT@16 004454c0 f   cinder:GLee.obj
 0001:000444f0       _GLee_Lazy_glGetNamedProgramStringEXT@16 004454f0 f   cinder:GLee.obj
 0001:00044520       _GLee_Lazy_glNamedProgramLocalParameters4fvEXT@20 00445520 f   cinder:GLee.obj
 0001:00044550       _GLee_Lazy_glNamedProgramLocalParameterI4iEXT@28 00445550 f   cinder:GLee.obj
 0001:00044590       _GLee_Lazy_glNamedProgramLocalParameterI4ivEXT@16 00445590 f   cinder:GLee.obj
 0001:000445c0       _GLee_Lazy_glNamedProgramLocalParametersI4ivEXT@20 004455c0 f   cinder:GLee.obj
 0001:000445f0       _GLee_Lazy_glNamedProgramLocalParameterI4uiEXT@28 004455f0 f   cinder:GLee.obj
 0001:00044630       _GLee_Lazy_glNamedProgramLocalParameterI4uivEXT@16 00445630 f   cinder:GLee.obj
 0001:00044660       _GLee_Lazy_glNamedProgramLocalParametersI4uivEXT@20 00445660 f   cinder:GLee.obj
 0001:00044690       _GLee_Lazy_glGetNamedProgramLocalParameterIivEXT@16 00445690 f   cinder:GLee.obj
 0001:000446c0       _GLee_Lazy_glGetNamedProgramLocalParameterIuivEXT@16 004456c0 f   cinder:GLee.obj
 0001:000446f0       _GLee_Lazy_glTextureParameterIivEXT@16 004456f0 f   cinder:GLee.obj
 0001:00044720       _GLee_Lazy_glTextureParameterIuivEXT@16 00445720 f   cinder:GLee.obj
 0001:00044750       _GLee_Lazy_glGetTextureParameterIivEXT@16 00445750 f   cinder:GLee.obj
 0001:00044780       _GLee_Lazy_glGetTextureParameterIuivEXT@16 00445780 f   cinder:GLee.obj
 0001:000447b0       _GLee_Lazy_glMultiTexParameterIivEXT@16 004457b0 f   cinder:GLee.obj
 0001:000447e0       _GLee_Lazy_glMultiTexParameterIuivEXT@16 004457e0 f   cinder:GLee.obj
 0001:00044810       _GLee_Lazy_glGetMultiTexParameterIivEXT@16 00445810 f   cinder:GLee.obj
 0001:00044840       _GLee_Lazy_glGetMultiTexParameterIuivEXT@16 00445840 f   cinder:GLee.obj
 0001:00044870       _GLee_Lazy_glProgramUniform1fEXT@12 00445870 f   cinder:GLee.obj
 0001:000448a0       _GLee_Lazy_glProgramUniform2fEXT@16 004458a0 f   cinder:GLee.obj
 0001:000448d0       _GLee_Lazy_glProgramUniform3fEXT@20 004458d0 f   cinder:GLee.obj
 0001:00044910       _GLee_Lazy_glProgramUniform4fEXT@24 00445910 f   cinder:GLee.obj
 0001:00044950       _GLee_Lazy_glProgramUniform1iEXT@12 00445950 f   cinder:GLee.obj
 0001:00044980       _GLee_Lazy_glProgramUniform2iEXT@16 00445980 f   cinder:GLee.obj
 0001:000449b0       _GLee_Lazy_glProgramUniform3iEXT@20 004459b0 f   cinder:GLee.obj
 0001:000449e0       _GLee_Lazy_glProgramUniform4iEXT@24 004459e0 f   cinder:GLee.obj
 0001:00044a20       _GLee_Lazy_glProgramUniform1fvEXT@16 00445a20 f   cinder:GLee.obj
 0001:00044a50       _GLee_Lazy_glProgramUniform2fvEXT@16 00445a50 f   cinder:GLee.obj
 0001:00044a80       _GLee_Lazy_glProgramUniform3fvEXT@16 00445a80 f   cinder:GLee.obj
 0001:00044ab0       _GLee_Lazy_glProgramUniform4fvEXT@16 00445ab0 f   cinder:GLee.obj
 0001:00044ae0       _GLee_Lazy_glProgramUniform1ivEXT@16 00445ae0 f   cinder:GLee.obj
 0001:00044b10       _GLee_Lazy_glProgramUniform2ivEXT@16 00445b10 f   cinder:GLee.obj
 0001:00044b40       _GLee_Lazy_glProgramUniform3ivEXT@16 00445b40 f   cinder:GLee.obj
 0001:00044b70       _GLee_Lazy_glProgramUniform4ivEXT@16 00445b70 f   cinder:GLee.obj
 0001:00044ba0       _GLee_Lazy_glProgramUniformMatrix2fvEXT@20 00445ba0 f   cinder:GLee.obj
 0001:00044bd0       _GLee_Lazy_glProgramUniformMatrix3fvEXT@20 00445bd0 f   cinder:GLee.obj
 0001:00044c00       _GLee_Lazy_glProgramUniformMatrix4fvEXT@20 00445c00 f   cinder:GLee.obj
 0001:00044c30       _GLee_Lazy_glProgramUniformMatrix2x3fvEXT@20 00445c30 f   cinder:GLee.obj
 0001:00044c60       _GLee_Lazy_glProgramUniformMatrix3x2fvEXT@20 00445c60 f   cinder:GLee.obj
 0001:00044c90       _GLee_Lazy_glProgramUniformMatrix2x4fvEXT@20 00445c90 f   cinder:GLee.obj
 0001:00044cc0       _GLee_Lazy_glProgramUniformMatrix4x2fvEXT@20 00445cc0 f   cinder:GLee.obj
 0001:00044cf0       _GLee_Lazy_glProgramUniformMatrix3x4fvEXT@20 00445cf0 f   cinder:GLee.obj
 0001:00044d20       _GLee_Lazy_glProgramUniformMatrix4x3fvEXT@20 00445d20 f   cinder:GLee.obj
 0001:00044d50       _GLee_Lazy_glProgramUniform1uiEXT@12 00445d50 f   cinder:GLee.obj
 0001:00044d80       _GLee_Lazy_glProgramUniform2uiEXT@16 00445d80 f   cinder:GLee.obj
 0001:00044db0       _GLee_Lazy_glProgramUniform3uiEXT@20 00445db0 f   cinder:GLee.obj
 0001:00044de0       _GLee_Lazy_glProgramUniform4uiEXT@24 00445de0 f   cinder:GLee.obj
 0001:00044e20       _GLee_Lazy_glProgramUniform1uivEXT@16 00445e20 f   cinder:GLee.obj
 0001:00044e50       _GLee_Lazy_glProgramUniform2uivEXT@16 00445e50 f   cinder:GLee.obj
 0001:00044e80       _GLee_Lazy_glProgramUniform3uivEXT@16 00445e80 f   cinder:GLee.obj
 0001:00044eb0       _GLee_Lazy_glProgramUniform4uivEXT@16 00445eb0 f   cinder:GLee.obj
 0001:00044ee0       _GLee_Lazy_glNamedBufferDataEXT@16 00445ee0 f   cinder:GLee.obj
 0001:00044f10       _GLee_Lazy_glNamedBufferSubDataEXT@16 00445f10 f   cinder:GLee.obj
 0001:00044f40       _GLee_Lazy_glMapNamedBufferEXT@8 00445f40 f   cinder:GLee.obj
 0001:00044f70       _GLee_Lazy_glUnmapNamedBufferEXT@4 00445f70 f   cinder:GLee.obj
 0001:00044fa0       _GLee_Lazy_glGetNamedBufferParameterivEXT@12 00445fa0 f   cinder:GLee.obj
 0001:00044fd0       _GLee_Lazy_glGetNamedBufferPointervEXT@12 00445fd0 f   cinder:GLee.obj
 0001:00045000       _GLee_Lazy_glGetNamedBufferSubDataEXT@16 00446000 f   cinder:GLee.obj
 0001:00045030       _GLee_Lazy_glTextureBufferEXT@16 00446030 f   cinder:GLee.obj
 0001:00045060       _GLee_Lazy_glMultiTexBufferEXT@16 00446060 f   cinder:GLee.obj
 0001:00045090       _GLee_Lazy_glNamedRenderbufferStorageEXT@16 00446090 f   cinder:GLee.obj
 0001:000450c0       _GLee_Lazy_glGetNamedRenderbufferParameterivEXT@12 004460c0 f   cinder:GLee.obj
 0001:000450f0       _GLee_Lazy_glCheckNamedFramebufferStatusEXT@8 004460f0 f   cinder:GLee.obj
 0001:00045120       _GLee_Lazy_glNamedFramebufferTexture1DEXT@20 00446120 f   cinder:GLee.obj
 0001:00045150       _GLee_Lazy_glNamedFramebufferTexture2DEXT@20 00446150 f   cinder:GLee.obj
 0001:00045180       _GLee_Lazy_glNamedFramebufferTexture3DEXT@24 00446180 f   cinder:GLee.obj
 0001:000451c0       _GLee_Lazy_glNamedFramebufferRenderbufferEXT@16 004461c0 f   cinder:GLee.obj
 0001:000451f0       _GLee_Lazy_glGetNamedFramebufferAttachmentParameterivEXT@16 004461f0 f   cinder:GLee.obj
 0001:00045220       _GLee_Lazy_glGenerateTextureMipmapEXT@8 00446220 f   cinder:GLee.obj
 0001:00045250       _GLee_Lazy_glGenerateMultiTexMipmapEXT@8 00446250 f   cinder:GLee.obj
 0001:00045280       _GLee_Lazy_glFramebufferDrawBufferEXT@8 00446280 f   cinder:GLee.obj
 0001:000452b0       _GLee_Lazy_glFramebufferDrawBuffersEXT@12 004462b0 f   cinder:GLee.obj
 0001:000452e0       _GLee_Lazy_glFramebufferReadBufferEXT@8 004462e0 f   cinder:GLee.obj
 0001:00045310       _GLee_Lazy_glGetFramebufferParameterivEXT@12 00446310 f   cinder:GLee.obj
 0001:00045340       _GLee_Lazy_glNamedRenderbufferStorageMultisampleEXT@20 00446340 f   cinder:GLee.obj
 0001:00045370       _GLee_Lazy_glNamedRenderbufferStorageMultisampleCoverageEXT@24 00446370 f   cinder:GLee.obj
 0001:000453b0       _GLee_Lazy_glNamedFramebufferTextureEXT@16 004463b0 f   cinder:GLee.obj
 0001:000453e0       _GLee_Lazy_glNamedFramebufferTextureLayerEXT@20 004463e0 f   cinder:GLee.obj
 0001:00045410       _GLee_Lazy_glNamedFramebufferTextureFaceEXT@20 00446410 f   cinder:GLee.obj
 0001:00045440       _GLee_Lazy_glTextureRenderbufferEXT@12 00446440 f   cinder:GLee.obj
 0001:00045470       _GLee_Lazy_glMultiTexRenderbufferEXT@12 00446470 f   cinder:GLee.obj
 0001:000454a0       _GLee_Lazy_glGetMultisamplefvNV@12 004464a0 f   cinder:GLee.obj
 0001:000454d0       _GLee_Lazy_glSampleMaskIndexedNV@8 004464d0 f   cinder:GLee.obj
 0001:00045500       _GLee_Lazy_glTexRenderbufferNV@8 00446500 f   cinder:GLee.obj
 0001:00045530       _GLee_Lazy_glBindTransformFeedbackNV@8 00446530 f   cinder:GLee.obj
 0001:00045560       _GLee_Lazy_glDeleteTransformFeedbacksNV@8 00446560 f   cinder:GLee.obj
 0001:00045590       _GLee_Lazy_glGenTransformFeedbacksNV@8 00446590 f   cinder:GLee.obj
 0001:000455c0       _GLee_Lazy_glIsTransformFeedbackNV@4 004465c0 f   cinder:GLee.obj
 0001:000455f0       _GLee_Lazy_glPauseTransformFeedbackNV@0 004465f0 f   cinder:GLee.obj
 0001:00045610       _GLee_Lazy_glResumeTransformFeedbackNV@0 00446610 f   cinder:GLee.obj
 0001:00045630       _GLee_Lazy_glDrawTransformFeedbackNV@8 00446630 f   cinder:GLee.obj
 0001:00045660       _GLee_Lazy_glBlendFuncSeparateINGR@16 00446660 f   cinder:GLee.obj
 0001:00045690       _GLee_Lazy_glIglooInterfaceSGIX@8 00446690 f   cinder:GLee.obj
 0001:000456c0       _GLee_Lazy_glFragmentLightModeliEXT@8 004466c0 f   cinder:GLee.obj
 0001:000456f0       _GLee_Lazy_glFragmentLightModelfEXT@8 004466f0 f   cinder:GLee.obj
 0001:00045720       _GLee_Lazy_glFragmentLightModelivEXT@8 00446720 f   cinder:GLee.obj
 0001:00045750       _GLee_Lazy_glFragmentLightModelfvEXT@8 00446750 f   cinder:GLee.obj
 0001:00045780       _GLee_Lazy_glFragmentLightiEXT@12 00446780 f   cinder:GLee.obj
 0001:000457b0       _GLee_Lazy_glFragmentLightfEXT@12 004467b0 f   cinder:GLee.obj
 0001:000457e0       _GLee_Lazy_glFragmentLightivEXT@12 004467e0 f   cinder:GLee.obj
 0001:00045810       _GLee_Lazy_glFragmentLightfvEXT@12 00446810 f   cinder:GLee.obj
 0001:00045840       _GLee_Lazy_glGetFragmentLightivEXT@12 00446840 f   cinder:GLee.obj
 0001:00045870       _GLee_Lazy_glGetFragmentLightfvEXT@12 00446870 f   cinder:GLee.obj
 0001:000458a0       _GLee_Lazy_glFragmentMaterialfEXT@12 004468a0 f   cinder:GLee.obj
 0001:000458d0       _GLee_Lazy_glFragmentMaterialiEXT@12 004468d0 f   cinder:GLee.obj
 0001:00045900       _GLee_Lazy_glFragmentMaterialfvEXT@12 00446900 f   cinder:GLee.obj
 0001:00045930       _GLee_Lazy_glFragmentMaterialivEXT@12 00446930 f   cinder:GLee.obj
 0001:00045960       _GLee_Lazy_glFragmentColorMaterialEXT@8 00446960 f   cinder:GLee.obj
 0001:00045990       _GLee_Lazy_glGetFragmentMaterialfvEXT@12 00446990 f   cinder:GLee.obj
 0001:000459c0       _GLee_Lazy_glGetFragmentMaterialivEXT@12 004469c0 f   cinder:GLee.obj
 0001:000459f0       _GLee_Lazy_glLightEnviEXT@8 004469f0 f   cinder:GLee.obj
 0001:00045a20       _GLee_Lazy_glProgramParameteriEXT@12 00446a20 f   cinder:GLee.obj
 0001:00045a50       _GLee_Lazy_glFramebufferTextureEXT@16 00446a50 f   cinder:GLee.obj
 0001:00045a80       _GLee_Lazy_glFramebufferTextureLayerEXT@20 00446a80 f   cinder:GLee.obj
 0001:00045ab0       _GLee_Lazy_glFramebufferTextureFaceEXT@20 00446ab0 f   cinder:GLee.obj
 0001:00045ae0       _GLee_Lazy_glBeginSceneEXT@0 00446ae0 f   cinder:GLee.obj
 0001:00045b00       _GLee_Lazy_glEndSceneEXT@0 00446b00 f   cinder:GLee.obj
 0001:00045b20       _GLee_Lazy_glProgramLocalParameterI4iNV@24 00446b20 f   cinder:GLee.obj
 0001:00045b60       _GLee_Lazy_glProgramLocalParameterI4ivNV@12 00446b60 f   cinder:GLee.obj
 0001:00045b90       _GLee_Lazy_glProgramLocalParametersI4ivNV@16 00446b90 f   cinder:GLee.obj
 0001:00045bc0       _GLee_Lazy_glProgramLocalParameterI4uiNV@24 00446bc0 f   cinder:GLee.obj
 0001:00045c00       _GLee_Lazy_glProgramLocalParameterI4uivNV@12 00446c00 f   cinder:GLee.obj
 0001:00045c30       _GLee_Lazy_glProgramLocalParametersI4uivNV@16 00446c30 f   cinder:GLee.obj
 0001:00045c60       _GLee_Lazy_glProgramEnvParameterI4iNV@24 00446c60 f   cinder:GLee.obj
 0001:00045ca0       _GLee_Lazy_glProgramEnvParameterI4ivNV@12 00446ca0 f   cinder:GLee.obj
 0001:00045cd0       _GLee_Lazy_glProgramEnvParametersI4ivNV@16 00446cd0 f   cinder:GLee.obj
 0001:00045d00       _GLee_Lazy_glProgramEnvParameterI4uiNV@24 00446d00 f   cinder:GLee.obj
 0001:00045d40       _GLee_Lazy_glProgramEnvParameterI4uivNV@12 00446d40 f   cinder:GLee.obj
 0001:00045d70       _GLee_Lazy_glProgramEnvParametersI4uivNV@16 00446d70 f   cinder:GLee.obj
 0001:00045da0       _GLee_Lazy_glGetProgramLocalParameterIivNV@12 00446da0 f   cinder:GLee.obj
 0001:00045dd0       _GLee_Lazy_glGetProgramLocalParameterIuivNV@12 00446dd0 f   cinder:GLee.obj
 0001:00045e00       _GLee_Lazy_glGetProgramEnvParameterIivNV@12 00446e00 f   cinder:GLee.obj
 0001:00045e30       _GLee_Lazy_glGetProgramEnvParameterIuivNV@12 00446e30 f   cinder:GLee.obj
 0001:00045e60       _GLee_Lazy_glVertexAttribI2iEXT@12 00446e60 f   cinder:GLee.obj
 0001:00045e90       _GLee_Lazy_glVertexAttribI3iEXT@16 00446e90 f   cinder:GLee.obj
 0001:00045ec0       _GLee_Lazy_glVertexAttribI4iEXT@20 00446ec0 f   cinder:GLee.obj
 0001:00045ef0       _GLee_Lazy_glVertexAttribI1uiEXT@8 00446ef0 f   cinder:GLee.obj
 0001:00045f20       _GLee_Lazy_glVertexAttribI2uiEXT@12 00446f20 f   cinder:GLee.obj
 0001:00045f50       _GLee_Lazy_glVertexAttribI3uiEXT@16 00446f50 f   cinder:GLee.obj
 0001:00045f80       _GLee_Lazy_glVertexAttribI4uiEXT@20 00446f80 f   cinder:GLee.obj
 0001:00045fb0       _GLee_Lazy_glVertexAttribI1ivEXT@8 00446fb0 f   cinder:GLee.obj
 0001:00045fe0       _GLee_Lazy_glVertexAttribI2ivEXT@8 00446fe0 f   cinder:GLee.obj
 0001:00046010       _GLee_Lazy_glVertexAttribI3ivEXT@8 00447010 f   cinder:GLee.obj
 0001:00046040       _GLee_Lazy_glVertexAttribI4ivEXT@8 00447040 f   cinder:GLee.obj
 0001:00046070       _GLee_Lazy_glVertexAttribI1uivEXT@8 00447070 f   cinder:GLee.obj
 0001:000460a0       _GLee_Lazy_glVertexAttribI2uivEXT@8 004470a0 f   cinder:GLee.obj
 0001:000460d0       _GLee_Lazy_glVertexAttribI3uivEXT@8 004470d0 f   cinder:GLee.obj
 0001:00046100       _GLee_Lazy_glVertexAttribI4uivEXT@8 00447100 f   cinder:GLee.obj
 0001:00046130       _GLee_Lazy_glVertexAttribI4bvEXT@8 00447130 f   cinder:GLee.obj
 0001:00046160       _GLee_Lazy_glVertexAttribI4svEXT@8 00447160 f   cinder:GLee.obj
 0001:00046190       _GLee_Lazy_glVertexAttribI4ubvEXT@8 00447190 f   cinder:GLee.obj
 0001:000461c0       _GLee_Lazy_glVertexAttribI4usvEXT@8 004471c0 f   cinder:GLee.obj
 0001:000461f0       _GLee_Lazy_glVertexAttribIPointerEXT@20 004471f0 f   cinder:GLee.obj
 0001:00046220       _GLee_Lazy_glGetVertexAttribIivEXT@12 00447220 f   cinder:GLee.obj
 0001:00046250       _GLee_Lazy_glGetVertexAttribIuivEXT@12 00447250 f   cinder:GLee.obj
 0001:00046280       _GLee_Lazy_glDepthRangefOES@8 00447280 f   cinder:GLee.obj
 0001:000462b0       _GLee_Lazy_glFrustumfOES@24 004472b0 f   cinder:GLee.obj
 0001:00046300       _GLee_Lazy_glOrthofOES@24  00447300 f   cinder:GLee.obj
 0001:00046350       _GLee_Lazy_glClipPlanefOES@8 00447350 f   cinder:GLee.obj
 0001:00046380       _GLee_Lazy_glGetClipPlanefOES@8 00447380 f   cinder:GLee.obj
 0001:000463b0       _GLee_Lazy_glClearDepthfOES@8 004473b0 f   cinder:GLee.obj
 0001:000463e0       _GLee_Lazy_wglCreateBufferRegionARB@12 004473e0 f   cinder:GLee.obj
 0001:00046410       _GLee_Lazy_wglDeleteBufferRegionARB@4 00447410 f   cinder:GLee.obj
 0001:00046430       _GLee_Lazy_wglSaveBufferRegionARB@20 00447430 f   cinder:GLee.obj
 0001:00046470       _GLee_Lazy_wglRestoreBufferRegionARB@28 00447470 f   cinder:GLee.obj
 0001:000464b0       _GLee_Lazy_wglGetExtensionsStringARB@4 004474b0 f   cinder:GLee.obj
 0001:000464e0       _GLee_Lazy_wglGetPixelFormatAttribivARB@24 004474e0 f   cinder:GLee.obj
 0001:00046520       _GLee_Lazy_wglGetPixelFormatAttribfvARB@24 00447520 f   cinder:GLee.obj
 0001:00046560       _GLee_Lazy_wglChoosePixelFormatARB@24 00447560 f   cinder:GLee.obj
 0001:000465a0       _GLee_Lazy_wglMakeContextCurrentARB@12 004475a0 f   cinder:GLee.obj
 0001:000465d0       _GLee_Lazy_wglGetCurrentReadDCARB@0 004475d0 f   cinder:GLee.obj
 0001:000465f0       _GLee_Lazy_wglCreatePbufferARB@20 004475f0 f   cinder:GLee.obj
 0001:00046630       _GLee_Lazy_wglGetPbufferDCARB@4 00447630 f   cinder:GLee.obj
 0001:00046660       _GLee_Lazy_wglReleasePbufferDCARB@8 00447660 f   cinder:GLee.obj
 0001:00046690       _GLee_Lazy_wglDestroyPbufferARB@4 00447690 f   cinder:GLee.obj
 0001:000466c0       _GLee_Lazy_wglQueryPbufferARB@12 004476c0 f   cinder:GLee.obj
 0001:000466f0       _GLee_Lazy_wglBindTexImageARB@8 004476f0 f   cinder:GLee.obj
 0001:00046720       _GLee_Lazy_wglReleaseTexImageARB@8 00447720 f   cinder:GLee.obj
 0001:00046750       _GLee_Lazy_wglSetPbufferAttribARB@8 00447750 f   cinder:GLee.obj
 0001:00046780       _GLee_Lazy_wglCreateContextAttribsARB@12 00447780 f   cinder:GLee.obj
 0001:000467b0       _GLee_Lazy_wglMakeContextCurrentEXT@12 004477b0 f   cinder:GLee.obj
 0001:000467e0       _GLee_Lazy_wglGetCurrentReadDCEXT@0 004477e0 f   cinder:GLee.obj
 0001:00046800       _GLee_Lazy_wglGetPixelFormatAttribivEXT@24 00447800 f   cinder:GLee.obj
 0001:00046840       _GLee_Lazy_wglGetPixelFormatAttribfvEXT@24 00447840 f   cinder:GLee.obj
 0001:00046880       _GLee_Lazy_wglChoosePixelFormatEXT@24 00447880 f   cinder:GLee.obj
 0001:000468c0       _GLee_Lazy_wglCreatePbufferEXT@20 004478c0 f   cinder:GLee.obj
 0001:00046900       _GLee_Lazy_wglGetPbufferDCEXT@4 00447900 f   cinder:GLee.obj
 0001:00046930       _GLee_Lazy_wglReleasePbufferDCEXT@8 00447930 f   cinder:GLee.obj
 0001:00046960       _GLee_Lazy_wglDestroyPbufferEXT@4 00447960 f   cinder:GLee.obj
 0001:00046990       _GLee_Lazy_wglQueryPbufferEXT@12 00447990 f   cinder:GLee.obj
 0001:000469c0       _GLee_Lazy_wglGetDigitalVideoParametersI3D@12 004479c0 f   cinder:GLee.obj
 0001:000469f0       _GLee_Lazy_wglSetDigitalVideoParametersI3D@12 004479f0 f   cinder:GLee.obj
 0001:00046a20       _GLee_Lazy_wglGetGammaTableParametersI3D@12 00447a20 f   cinder:GLee.obj
 0001:00046a50       _GLee_Lazy_wglSetGammaTableParametersI3D@12 00447a50 f   cinder:GLee.obj
 0001:00046a80       _GLee_Lazy_wglGetGammaTableI3D@20 00447a80 f   cinder:GLee.obj
 0001:00046ac0       _GLee_Lazy_wglSetGammaTableI3D@20 00447ac0 f   cinder:GLee.obj
 0001:00046b00       _GLee_Lazy_wglEnableGenlockI3D@4 00447b00 f   cinder:GLee.obj
 0001:00046b30       _GLee_Lazy_wglDisableGenlockI3D@4 00447b30 f   cinder:GLee.obj
 0001:00046b60       _GLee_Lazy_wglIsEnabledGenlockI3D@8 00447b60 f   cinder:GLee.obj
 0001:00046b90       _GLee_Lazy_wglGenlockSourceI3D@8 00447b90 f   cinder:GLee.obj
 0001:00046bc0       _GLee_Lazy_wglGetGenlockSourceI3D@8 00447bc0 f   cinder:GLee.obj
 0001:00046bf0       _GLee_Lazy_wglGenlockSourceEdgeI3D@8 00447bf0 f   cinder:GLee.obj
 0001:00046c20       _GLee_Lazy_wglGetGenlockSourceEdgeI3D@8 00447c20 f   cinder:GLee.obj
 0001:00046c50       _GLee_Lazy_wglGenlockSampleRateI3D@8 00447c50 f   cinder:GLee.obj
 0001:00046c80       _GLee_Lazy_wglGetGenlockSampleRateI3D@8 00447c80 f   cinder:GLee.obj
 0001:00046cb0       _GLee_Lazy_wglGenlockSourceDelayI3D@8 00447cb0 f   cinder:GLee.obj
 0001:00046ce0       _GLee_Lazy_wglGetGenlockSourceDelayI3D@8 00447ce0 f   cinder:GLee.obj
 0001:00046d10       _GLee_Lazy_wglQueryGenlockMaxSourceDelayI3D@12 00447d10 f   cinder:GLee.obj
 0001:00046d40       _GLee_Lazy_wglCreateImageBufferI3D@12 00447d40 f   cinder:GLee.obj
 0001:00046d70       _GLee_Lazy_wglDestroyImageBufferI3D@8 00447d70 f   cinder:GLee.obj
 0001:00046da0       _GLee_Lazy_wglAssociateImageBufferEventsI3D@20 00447da0 f   cinder:GLee.obj
 0001:00046de0       _GLee_Lazy_wglReleaseImageBufferEventsI3D@12 00447de0 f   cinder:GLee.obj
 0001:00046e10       _GLee_Lazy_wglEnableFrameLockI3D@0 00447e10 f   cinder:GLee.obj
 0001:00046e30       _GLee_Lazy_wglDisableFrameLockI3D@0 00447e30 f   cinder:GLee.obj
 0001:00046e50       _GLee_Lazy_wglIsEnabledFrameLockI3D@4 00447e50 f   cinder:GLee.obj
 0001:00046e80       _GLee_Lazy_wglQueryFrameLockMasterI3D@4 00447e80 f   cinder:GLee.obj
 0001:00046eb0       _GLee_Lazy_wglEnumerateVideoDevicesNV@8 00447eb0 f   cinder:GLee.obj
 0001:00046ee0       _GLee_Lazy_wglBindVideoDeviceNV@16 00447ee0 f   cinder:GLee.obj
 0001:00046f10       _GLee_Lazy_wglQueryCurrentContextNV@8 00447f10 f   cinder:GLee.obj
 0001:00046f40       _GLee_Lazy_wglJoinSwapGroupNV@8 00447f40 f   cinder:GLee.obj
 0001:00046f70       _GLee_Lazy_wglBindSwapBarrierNV@8 00447f70 f   cinder:GLee.obj
 0001:00046fa0       _GLee_Lazy_wglQuerySwapGroupNV@12 00447fa0 f   cinder:GLee.obj
 0001:00046fd0       _GLee_Lazy_wglQueryMaxSwapGroupsNV@12 00447fd0 f   cinder:GLee.obj
 0001:00047000       _GLee_Lazy_wglQueryFrameCountNV@8 00448000 f   cinder:GLee.obj
 0001:00047030       _GLee_Lazy_wglResetFrameCountNV@4 00448030 f   cinder:GLee.obj
 0001:00047060       _GLee_Lazy_wglEnumGpusNV@8 00448060 f   cinder:GLee.obj
 0001:00047090       _GLee_Lazy_wglEnumGpuDevicesNV@12 00448090 f   cinder:GLee.obj
 0001:000470c0       _GLee_Lazy_wglCreateAffinityDCNV@4 004480c0 f   cinder:GLee.obj
 0001:000470f0       _GLee_Lazy_wglEnumGpusFromAffinityDCNV@12 004480f0 f   cinder:GLee.obj
 0001:00047120       _GLee_Lazy_wglDeleteDCNV@4 00448120 f   cinder:GLee.obj
 0001:00047150       _GLee_Lazy_wglCreateDisplayColorTableEXT@4 00448150 f   cinder:GLee.obj
 0001:00047180       _GLee_Lazy_wglLoadDisplayColorTableEXT@8 00448180 f   cinder:GLee.obj
 0001:000471b0       _GLee_Lazy_wglBindDisplayColorTableEXT@4 004481b0 f   cinder:GLee.obj
 0001:000471e0       _GLee_Lazy_wglDestroyDisplayColorTableEXT@4 004481e0 f   cinder:GLee.obj
 0001:00047200       _GLee_Lazy_wglGetExtensionsStringEXT@0 00448200 f   cinder:GLee.obj
 0001:00047220       _GLee_Lazy_wglSwapIntervalEXT@4 00448220 f   cinder:GLee.obj
 0001:00047250       _GLee_Lazy_wglGetSwapIntervalEXT@0 00448250 f   cinder:GLee.obj
 0001:00047270       _GLee_Lazy_wglAllocateMemoryNV@16 00448270 f   cinder:GLee.obj
 0001:000472b0       _GLee_Lazy_wglFreeMemoryNV@4 004482b0 f   cinder:GLee.obj
 0001:000472d0       _GLee_Lazy_wglGetSyncValuesOML@16 004482d0 f   cinder:GLee.obj
 0001:00047300       _GLee_Lazy_wglGetMscRateOML@12 00448300 f   cinder:GLee.obj
 0001:00047330       _GLee_Lazy_wglSwapBuffersMscOML@28 00448330 f   cinder:GLee.obj
 0001:00047370       _GLee_Lazy_wglSwapLayerBuffersMscOML@32 00448370 f   cinder:GLee.obj
 0001:000473b0       _GLee_Lazy_wglWaitForMscOML@40 004483b0 f   cinder:GLee.obj
 0001:00047400       _GLee_Lazy_wglWaitForSbcOML@24 00448400 f   cinder:GLee.obj
 0001:00047440       _GLee_Lazy_wglGetFrameUsageI3D@4 00448440 f   cinder:GLee.obj
 0001:00047470       _GLee_Lazy_wglBeginFrameTrackingI3D@0 00448470 f   cinder:GLee.obj
 0001:00047490       _GLee_Lazy_wglEndFrameTrackingI3D@0 00448490 f   cinder:GLee.obj
 0001:000474b0       _GLee_Lazy_wglQueryFrameTrackingI3D@12 004484b0 f   cinder:GLee.obj
 0001:000474e0       _GLee_Lazy_wglGetVideoDeviceNV@12 004484e0 f   cinder:GLee.obj
 0001:00047510       _GLee_Lazy_wglReleaseVideoDeviceNV@4 00448510 f   cinder:GLee.obj
 0001:00047540       _GLee_Lazy_wglBindVideoImageNV@12 00448540 f   cinder:GLee.obj
 0001:00047570       _GLee_Lazy_wglReleaseVideoImageNV@8 00448570 f   cinder:GLee.obj
 0001:000475a0       _GLee_Lazy_wglSendPbufferToVideoNV@16 004485a0 f   cinder:GLee.obj
 0001:000475d0       _GLee_Lazy_wglGetVideoInfoNV@12 004485d0 f   cinder:GLee.obj
 0001:00047600       _GLeeEnabled               00448600 f   cinder:GLee.obj
 0001:00047620       ?calcProjection@CameraPersp@cinder@@MAEXXZ 00448620 f   cinder:Camera.obj
 0001:00047830       ??D?$Quaternion@M@cinder@@QAE?BV?$Vec3@M@1@ABV21@@Z 00448830 f i cinder:Camera.obj
 0001:000478f0       ?set@?$Quaternion@M@cinder@@QAEXABV?$Matrix44@M@2@@Z 004488f0 f i cinder:Camera.obj
 0001:00047a50       ??0Camera@cinder@@QAE@XZ   00448a50 f i cinder:Camera.obj
 0001:00047c00       ?calcModelView@Camera@cinder@@IAEXXZ 00448c00 f   cinder:Camera.obj
 0001:00047de0       ?normalized@?$Quaternion@M@cinder@@QBE?AV12@XZ 00448de0 f i cinder:Camera.obj
 0001:00047e90       ?alignZAxisWithTarget@?$Matrix44@M@cinder@@SA?AV12@V?$Vec3@M@2@0@Z 00448e90 f i cinder:Camera.obj
 0001:000481f0       ?lookAt@Camera@cinder@@QAEXABV?$Vec3@M@2@0@Z 004491f0 f   cinder:Camera.obj
 0001:00048310       ??0CameraPersp@cinder@@QAE@HHM@Z 00449310 f   cinder:Camera.obj
 0001:00048410       ?allocate@?$allocator@PAE@std@@QAEPAPAEI@Z 00449410 f i cv210:cvhistogram.obj
 0001:00048410       ?allocate@?$allocator@I@std@@QAEPAII@Z 00449410 f i cinder:VBO.obj
 0001:00048410       ?allocate@?$allocator@UDTree@CascadeClassifier@cv@@@std@@QAEPAUDTree@CascadeClassifier@cv@@I@Z 00449410 f i cv210:cvcascadedetect.obj
 0001:00048410       ?allocate@?$allocator@M@std@@QAEPAMI@Z 00449410 f i cinder:TwMgr.obj
 0001:00048410       ?allocate@?$allocator@PAUCTwBar@@@std@@QAEPAPAUCTwBar@@I@Z 00449410 f i cinder:TwMgr.obj
 0001:00048410       ?allocate@?$allocator@PAUCCustom@CTwMgr@@@std@@QAEPAPAUCCustom@CTwMgr@@I@Z 00449410 f i cinder:TwMgr.obj
 0001:00048410       ?allocate@?$allocator@PAUCTwVar@@@std@@QAEPAPAUCTwVar@@I@Z 00449410 f i cinder:TwMgr.obj
 0001:00048410       ?allocate@?$allocator@H@std@@QAEPAHI@Z 00449410 f i cinder:VBO.obj
 0001:00048470       ?reserve@?$vector@MV?$allocator@M@std@@@std@@QAEXI@Z 00449470 f i cinder:TwMgr.obj
 0001:00048470       ?reserve@?$vector@PAUCTwBar@@V?$allocator@PAUCTwBar@@@std@@@std@@QAEXI@Z 00449470 f i cinder:TwMgr.obj
 0001:00048470       ?reserve@?$vector@PAUCTwVar@@V?$allocator@PAUCTwVar@@@std@@@std@@QAEXI@Z 00449470 f i cinder:TwMgr.obj
 0001:00048470       ?reserve@?$vector@HV?$allocator@H@std@@@std@@QAEXI@Z 00449470 f i cinder:VBO.obj
 0001:00048470       ?reserve@?$vector@PAUCCustom@CTwMgr@@V?$allocator@PAUCCustom@CTwMgr@@@std@@@std@@QAEXI@Z 00449470 f i cinder:TwMgr.obj
 0001:00048470       ?reserve@?$vector@IV?$allocator@I@std@@@std@@QAEXI@Z 00449470 f i cinder:VBO.obj
 0001:000484f0       ?_Ufill@?$vector@IV?$allocator@I@std@@@std@@IAEPAIPAIIPBI@Z 004494f0 f i cinder:CaptureImplDirectShow.obj
 0001:000484f0       ?_Ufill@?$vector@HV?$allocator@H@std@@@std@@IAEPAHPAHIPBH@Z 004494f0 f i cinder:VBO.obj
 0001:00048520       ?_Reserve@?$vector@MV?$allocator@M@std@@@std@@IAEXI@Z 00449520 f i cinder:TwMgr.obj
 0001:00048520       ?_Reserve@?$vector@HV?$allocator@H@std@@@std@@IAEXI@Z 00449520 f i cinder:VBO.obj
 0001:00048520       ?_Reserve@?$vector@PAUCTwBar@@V?$allocator@PAUCTwBar@@@std@@@std@@IAEXI@Z 00449520 f i cinder:TwMgr.obj
 0001:00048520       ?_Reserve@?$vector@PAUCCustom@CTwMgr@@V?$allocator@PAUCCustom@CTwMgr@@@std@@@std@@IAEXI@Z 00449520 f i cinder:TwMgr.obj
 0001:00048520       ?_Reserve@?$vector@PAUCTwVar@@V?$allocator@PAUCTwVar@@@std@@@std@@IAEXI@Z 00449520 f i cinder:TwMgr.obj
 0001:00048520       ?_Reserve@?$vector@IV?$allocator@I@std@@@std@@IAEXI@Z 00449520 f i cinder:VBO.obj
 0001:00048580       ?_Construct_n@?$vector@HV?$allocator@H@std@@@std@@QAEXIPBH@Z 00449580 f i cinder:VBO.obj
 0001:00048580       ?_Construct_n@?$vector@IV?$allocator@I@std@@@std@@QAEXIPBI@Z 00449580 f i cinder:CaptureImplDirectShow.obj
 0001:000485f0       ?push_back@?$vector@PAUCTwBar@@V?$allocator@PAUCTwBar@@@std@@@std@@QAEXABQAUCTwBar@@@Z 004495f0 f i cinder:TwMgr.obj
 0001:000485f0       ?push_back@?$vector@IV?$allocator@I@std@@@std@@QAEX$$QAI@Z 004495f0 f i cinder:TwBar.obj
 0001:000485f0       ?push_back@?$vector@HV?$allocator@H@std@@@std@@QAEX$$QAH@Z 004495f0 f i cinder:VBO.obj
 0001:000485f0       ?push_back@?$vector@IV?$allocator@I@std@@@std@@QAEXABI@Z 004495f0 f i cinder:VBO.obj
 0001:000485f0       ?push_back@?$vector@PAUCCustom@CTwMgr@@V?$allocator@PAUCCustom@CTwMgr@@@std@@@std@@QAEX$$QAPAUCCustom@CTwMgr@@@Z 004495f0 f i cinder:TwMgr.obj
 0001:000485f0       ?push_back@?$vector@PAUCTwVar@@V?$allocator@PAUCTwVar@@@std@@@std@@QAEXABQAUCTwVar@@@Z 004495f0 f i cinder:TwMgr.obj
 0001:00048660       ??0?$basic_string@_WU?$char_traits@_W@std@@V?$allocator@_W@2@@std@@QAE@ABV01@@Z 00449660 f i cinder:Text.obj
 0001:00048690       ?assign@?$basic_string@_WU?$char_traits@_W@std@@V?$allocator@_W@2@@std@@QAEAAV12@$$QAV12@@Z 00449690 f i cinder:Text.obj
 0001:00048710       ??$_Allocate@G@std@@YAPAGIPAG@Z 00449710 f i cinder:Font.obj
 0001:00048770       ?allocate@?$allocator@_W@std@@QAEPA_WI@Z 00449770 f i cinder:AppBasic.obj
 0001:00048770       ?allocate@?$allocator@G@std@@QAEPAGI@Z 00449770 f i cinder:Font.obj
 0001:000487d0       ?reserve@?$vector@GV?$allocator@G@std@@@std@@QAEXI@Z 004497d0 f i cinder:Font.obj
 0001:000487d0       ?reserve@?$vector@_WV?$allocator@_W@std@@@std@@QAEXI@Z 004497d0 f i cinder:Utilities.obj
 0001:00048850       ?_Reserve@?$vector@GV?$allocator@G@std@@@std@@IAEXI@Z 00449850 f i cinder:Font.obj
 0001:00048850       ?_Reserve@?$vector@_WV?$allocator@_W@std@@@std@@IAEXI@Z 00449850 f i cinder:Utilities.obj
 0001:000488b0       ?writeData@OStream@cinder@@QAEXPBXI@Z 004498b0 f   cinder:Stream.obj
 0001:000488c0       ?size@IStreamMem@cinder@@UBEJXZ 004498c0 f i cinder:Stream.obj
 0001:000488c0       ?veclen@LinearIndex@flann@@UBEHXZ 004498c0 f i flann:flann.obj
 0001:000488d0       ?readDataAvailable@IStreamMem@cinder@@UAEIPAXI@Z 004498d0 f   cinder:Stream.obj
 0001:00048930       ?seekAbsolute@IStreamMem@cinder@@UAEXJ@Z 00449930 f   cinder:Stream.obj
 0001:00048970       ?seekRelative@IStreamMem@cinder@@UAEXJ@Z 00449970 f   cinder:Stream.obj
 0001:000489b0       ?tell@IStreamMem@cinder@@UBEJXZ 004499b0 f   cinder:Stream.obj
 0001:000489c0       ?isEof@IStreamMem@cinder@@UBE_NXZ 004499c0 f   cinder:Stream.obj
 0001:000489d0       ?IORead@IStreamMem@cinder@@MAEXPAXI@Z 004499d0 f   cinder:Stream.obj
 0001:00048a30       ?_Destroy@?$_Ref_count@VIStreamMem@cinder@@@tr1@std@@EAEXXZ 00449a30 f i cinder:Stream.obj
 0001:00048a50       ?seekAbsolute@IStreamMem@cinder@@$4PPPPPPPM@A@AEXJ@Z 00449a50 f i cinder:Stream.obj
 0001:00048a60       ?tell@IStreamMem@cinder@@$4PPPPPPPM@A@BEJXZ 00449a60 f i cinder:Stream.obj
 0001:00048a70       ??_EIStreamMem@cinder@@$4PPPPPPPM@A@AEPAXI@Z 00449a70 f i cinder:Stream.obj
 0001:00048a80       ?seekRelative@IStreamMem@cinder@@$4PPPPPPPM@A@AEXJ@Z 00449a80 f i cinder:Stream.obj
 0001:00048a90       ??$_Resetp@VIStreamMem@cinder@@@?$shared_ptr@VIStreamMem@cinder@@@tr1@std@@AAEXPAVIStreamMem@cinder@@@Z 00449a90 f i cinder:Stream.obj
 0001:00048b30       ??_EStreamBase@cinder@@UAEPAXI@Z 00449b30 f i cinder:Stream.obj
 0001:00048b30       ??_GStreamBase@cinder@@UAEPAXI@Z 00449b30 f i cinder:Stream.obj
 0001:00048b80       ??_DIStreamMem@cinder@@QAEXXZ 00449b80 f i cinder:Stream.obj
 0001:00048bf0       ?append@?$basic_string@DU?$char_traits@D@std@@V?$allocator@D@2@@std@@QAEAAV12@ID@Z 00449bf0 f i cinder:Stream.obj
 0001:00048ca0       ??_EIStream@cinder@@UAEPAXI@Z 00449ca0 f i cinder:Stream.obj
 0001:00048ca0       ??_GIStream@cinder@@UAEPAXI@Z 00449ca0 f i cinder:Stream.obj
 0001:00048d00       ?createRef@IStreamMem@cinder@@SA?AV?$shared_ptr@VIStreamMem@cinder@@@tr1@std@@PBXI@Z 00449d00 f   cinder:Stream.obj
 0001:00048da0       ??_EIStreamMem@cinder@@UAEPAXI@Z 00449da0 f i cinder:Stream.obj
 0001:00048da0       ??_GIStreamMem@cinder@@UAEPAXI@Z 00449da0 f i cinder:Stream.obj
 0001:00048dd0       ?push_back@?$vector@DV?$allocator@D@std@@@std@@QAEXABD@Z 00449dd0 f i cinder:Stream.obj
 0001:00048e30       ?_Destroy@?$_Ref_count@UObj@?$ChannelT@E@cinder@@@tr1@std@@EAEXXZ 00449e30 f i cinder:Channel.obj
 0001:00048e70       ??$_Resetp@UObj@?$ChannelT@E@cinder@@@?$shared_ptr@UObj@?$ChannelT@E@cinder@@@tr1@std@@AAEXPAUObj@?$ChannelT@E@cinder@@@Z 00449e70 f i cinder:Channel.obj
 0001:00048f30       ??0?$ChannelT@E@cinder@@QAE@HHHEPAE@Z 00449f30 f i cinder:Channel.obj
 0001:00048fa0       ??0AppImplMswRendererGl@app@cinder@@QAE@PAVApp@12@PAVRendererGl@12@@Z 00449fa0 f   cinder:AppImplMswRendererGl.obj
 0001:00048fd0       ?prepareToggleFullScreen@AppImplMswRendererGl@app@cinder@@UAEXXZ 00449fd0 f   cinder:AppImplMswRendererGl.obj
 0001:00048fe0       ?finishToggleFullScreen@AppImplMswRendererGl@app@cinder@@UAEXXZ 00449fe0 f   cinder:AppImplMswRendererGl.obj
 0001:00048ff0       ?swapBuffers@AppImplMswRendererGl@app@cinder@@UBEXXZ 00449ff0 f   cinder:AppImplMswRendererGl.obj
 0001:00049000       ?makeCurrentContext@AppImplMswRendererGl@app@cinder@@UAEXXZ 0044a000 f   cinder:AppImplMswRendererGl.obj
 0001:00049010       ?createDummyWindow@app@cinder@@YAPAUHWND__@@PAH0_N@Z 0044a010 f   cinder:AppImplMswRendererGl.obj
 0001:000491a0       ?initMultisample@AppImplMswRendererGl@app@cinder@@IAEHUtagPIXELFORMATDESCRIPTOR@@HPAUHDC__@@@Z 0044a1a0 f   cinder:AppImplMswRendererGl.obj
 0001:000492d0       ?kill@AppImplMswRendererGl@app@cinder@@UAEXXZ 0044a2d0 f   cinder:AppImplMswRendererGl.obj
 0001:00049300       ?defaultResize@AppImplMswRendererGl@app@cinder@@UBEXXZ 0044a300 f   cinder:AppImplMswRendererGl.obj
 0001:00049410       ?initializeInternal@AppImplMswRendererGl@app@cinder@@IAE_NPAUHWND__@@PAUHDC__@@@Z 0044a410 f   cinder:AppImplMswRendererGl.obj
 0001:00049510       ?initialize@AppImplMswRendererGl@app@cinder@@UAE_NPAUHWND__@@PAUHDC__@@@Z 0044a510 f   cinder:AppImplMswRendererGl.obj
 0001:000495d0       ??$flipVertical@E@ip@cinder@@YAXPAV?$SurfaceT@E@1@@Z 0044a5d0 f i cinder:Flip.obj
 0001:00049670       ?_Destroy@?$_Ref_count@VDisplay@cinder@@@tr1@std@@EAEXXZ 0044a670 f i cinder:Display.obj
 0001:00049680       ??$_Resetp@VDisplay@cinder@@@?$shared_ptr@VDisplay@cinder@@@tr1@std@@AAEXPAVDisplay@cinder@@@Z 0044a680 f i cinder:Display.obj
 0001:00049720       ??$_Uninit_move@PAV?$shared_ptr@VDisplay@cinder@@@tr1@std@@PAV123@V?$allocator@V?$shared_ptr@VDisplay@cinder@@@tr1@std@@@3@V123@@std@@YAPAV?$shared_ptr@VDisplay@cinder@@@tr1@0@PAV120@00AAV?$allocator@V?$shared_ptr@VDisplay@cinder@@@tr1@std@@@0@0U_Nonscalar_ptr_iterator_tag@0@@Z 0044a720 f i cinder:Display.obj
 0001:00049720       ??$_Uninit_move@PAV?$shared_ptr@E@tr1@std@@PAV123@V?$allocator@V?$shared_ptr@E@tr1@std@@@3@V123@@std@@YAPAV?$shared_ptr@E@tr1@0@PAV120@00AAV?$allocator@V?$shared_ptr@E@tr1@std@@@0@0U_Nonscalar_ptr_iterator_tag@0@@Z 0044a720 f i cinder:CaptureImplDirectShow.obj
 0001:00049770       ?push_back@?$vector@V?$shared_ptr@VDisplay@cinder@@@tr1@std@@V?$allocator@V?$shared_ptr@VDisplay@cinder@@@tr1@std@@@3@@std@@QAEXABV?$shared_ptr@VDisplay@cinder@@@tr1@2@@Z 0044a770 f i cinder:Display.obj
 0001:00049820       ?enumMonitorProc@Display@cinder@@SGHPAUHMONITOR__@@PAUHDC__@@PAUtagRECT@@J@Z 0044a820 f   cinder:Display.obj
 0001:00049980       ?enumerateDisplays@Display@cinder@@CAXXZ 0044a980 f   cinder:Display.obj
 0001:00049a00       ?getMainDisplay@Display@cinder@@SA?AV?$shared_ptr@VDisplay@cinder@@@tr1@std@@XZ 0044aa00 f   cinder:Display.obj
 0001:00049a40       ?enableMultiTouch@AppImplMswBasic@app@cinder@@IAEXXZ 0044aa40 f   cinder:AppImplMswBasic.obj
 0001:00049a80       ?setFrameRate@AppImplMswBasic@app@cinder@@UAEMM@Z 0044aa80 f   cinder:AppImplMswBasic.obj
 0001:00049a90       ?prepMouseEventModifiers@app@cinder@@YAII@Z 0044aa90 f   cinder:AppImplMswBasic.obj
 0001:00049af0       ?prepNativeKeyCode@app@cinder@@YAHI@Z 0044aaf0 f   cinder:AppImplMswBasic.obj
 0001:00049b60       ?mapVirtualKey@app@cinder@@YADI@Z 0044ab60 f   cinder:AppImplMswBasic.obj
 0001:00049bd0       ?prepKeyEventModifiers@app@cinder@@YAIXZ 0044abd0 f   cinder:AppImplMswBasic.obj
 0001:00049c40       ?_Max@?$_Tree_val@V?$_Tmap_traits@KV?$Vec2@M@cinder@@U?$less@K@std@@V?$allocator@U?$pair@$$CBKV?$Vec2@M@cinder@@@std@@@4@$0A@@std@@@std@@SAPAU_Node@?$_Tree_nod@V?$_Tmap_traits@KV?$Vec2@M@cinder@@U?$less@K@std@@V?$allocator@U?$pair@$$CBKV?$Vec2@M@cinder@@@std@@@4@$0A@@std@@@2@PAU342@@Z 0044ac40 f i cinder:AppImplMswBasic.obj
 0001:00049c60       ?_Min@?$_Tree_val@V?$_Tmap_traits@KV?$Vec2@M@cinder@@U?$less@K@std@@V?$allocator@U?$pair@$$CBKV?$Vec2@M@cinder@@@std@@@4@$0A@@std@@@std@@SAPAU_Node@?$_Tree_nod@V?$_Tmap_traits@KV?$Vec2@M@cinder@@U?$less@K@std@@V?$allocator@U?$pair@$$CBKV?$Vec2@M@cinder@@@std@@@4@$0A@@std@@@2@PAU342@@Z 0044ac60 f i cinder:AppImplMswBasic.obj
 0001:00049c80       ??E?$_Tree_unchecked_const_iterator@V?$_Tree_val@V?$_Tmap_traits@KV?$Vec2@M@cinder@@U?$less@K@std@@V?$allocator@U?$pair@$$CBKV?$Vec2@M@cinder@@@std@@@4@$0A@@std@@@std@@U_Iterator_base0@2@@std@@QAEAAV01@XZ 0044ac80 f i cinder:AppImplMswBasic.obj
 0001:00049cd0       ??F?$_Tree_unchecked_const_iterator@V?$_Tree_val@V?$_Tmap_traits@KV?$Vec2@M@cinder@@U?$less@K@std@@V?$allocator@U?$pair@$$CBKV?$Vec2@M@cinder@@@std@@@4@$0A@@std@@@std@@U_Iterator_base0@2@@std@@QAEAAV01@XZ 0044acd0 f i cinder:AppImplMswBasic.obj
 0001:00049d30       ?_Get_deleter@?$_Ref_count_del@UtagTOUCHINPUT@@U?$checked_array_deleter@UtagTOUCHINPUT@@@boost@@@tr1@std@@UBEPAXABVtype_info@@@Z 0044ad30 f i cinder:AppImplMswBasic.obj
 0001:00049d60       ?setWindowWidth@AppImplMswBasic@app@cinder@@UAEXH@Z 0044ad60 f   cinder:AppImplMswBasic.obj
 0001:00049de0       ?setWindowHeight@AppImplMswBasic@app@cinder@@UAEXH@Z 0044ade0 f   cinder:AppImplMswBasic.obj
 0001:00049e60       ?setWindowSize@AppImplMswBasic@app@cinder@@UAEXHH@Z 0044ae60 f   cinder:AppImplMswBasic.obj
 0001:00049ee0       ?_Rrotate@?$_Tree@V?$_Tmap_traits@KV?$Vec2@M@cinder@@U?$less@K@std@@V?$allocator@U?$pair@$$CBKV?$Vec2@M@cinder@@@std@@@4@$0A@@std@@@std@@IAEXPAU_Node@?$_Tree_nod@V?$_Tmap_traits@KV?$Vec2@M@cinder@@U?$less@K@std@@V?$allocator@U?$pair@$$CBKV?$Vec2@M@cinder@@@std@@@4@$0A@@std@@@2@@Z 0044aee0 f i cinder:AppImplMswBasic.obj
 0001:00049f40       ??$_Move@PAVTouch@TouchEvent@app@cinder@@PAV1234@@std@@YAPAVTouch@TouchEvent@app@cinder@@PAV1234@00U_Nonscalar_ptr_iterator_tag@0@@Z 0044af40 f i cinder:AppImplMswBasic.obj
 0001:00049f40       ??$_Copy_impl@PAVTouch@TouchEvent@app@cinder@@PAV1234@@std@@YAPAVTouch@TouchEvent@app@cinder@@PAV1234@00U_Nonscalar_ptr_iterator_tag@0@@Z 0044af40 f i cinder:AppImplMswBasic.obj
 0001:00049fa0       ?killWindow@AppImplMswBasic@app@cinder@@IAEX_N@Z 0044afa0 f   cinder:AppImplMswBasic.obj
 0001:0004a030       ?_Lrotate@?$_Tree@V?$_Tmap_traits@KV?$Vec2@M@cinder@@U?$less@K@std@@V?$allocator@U?$pair@$$CBKV?$Vec2@M@cinder@@@std@@@4@$0A@@std@@@std@@IAEXPAU_Node@?$_Tree_nod@V?$_Tmap_traits@KV?$Vec2@M@cinder@@U?$less@K@std@@V?$allocator@U?$pair@$$CBKV?$Vec2@M@cinder@@@std@@@4@$0A@@std@@@2@@Z 0044b030 f i cinder:AppImplMswBasic.obj
 0001:0004a090       ?_Insert@?$_Tree@V?$_Tmap_traits@KV?$Vec2@M@cinder@@U?$less@K@std@@V?$allocator@U?$pair@$$CBKV?$Vec2@M@cinder@@@std@@@4@$0A@@std@@@std@@IAE?AV?$_Tree_iterator@V?$_Tree_val@V?$_Tmap_traits@KV?$Vec2@M@cinder@@U?$less@K@std@@V?$allocator@U?$pair@$$CBKV?$Vec2@M@cinder@@@std@@@4@$0A@@std@@@std@@@2@_NPAU_Node@?$_Tree_nod@V?$_Tmap_traits@KV?$Vec2@M@cinder@@U?$less@K@std@@V?$allocator@U?$pair@$$CBKV?$Vec2@M@cinder@@@std@@@4@$0A@@std@@@2@1@Z 0044b090 f i cinder:AppImplMswBasic.obj
 0001:0004a2c0       ??$_Uninit_copy@PAVTouch@TouchEvent@app@cinder@@PAV1234@V?$allocator@VTouch@TouchEvent@app@cinder@@@std@@@std@@YAPAVTouch@TouchEvent@app@cinder@@PAV1234@00AAV?$allocator@VTouch@TouchEvent@app@cinder@@@0@U_Nonscalar_ptr_iterator_tag@0@@Z 0044b2c0 f i cinder:AppImplMswBasic.obj
 0001:0004a2c0       ??$_Uninit_move@PAVTouch@TouchEvent@app@cinder@@PAV1234@V?$allocator@VTouch@TouchEvent@app@cinder@@@std@@V1234@@std@@YAPAVTouch@TouchEvent@app@cinder@@PAV1234@00AAV?$allocator@VTouch@TouchEvent@app@cinder@@@0@0U_Nonscalar_ptr_iterator_tag@0@@Z 0044b2c0 f i cinder:AppImplMswBasic.obj
 0001:0004a320       ?erase@?$_Tree@V?$_Tmap_traits@KV?$Vec2@M@cinder@@U?$less@K@std@@V?$allocator@U?$pair@$$CBKV?$Vec2@M@cinder@@@std@@@4@$0A@@std@@@std@@QAE?AV?$_Tree_iterator@V?$_Tree_val@V?$_Tmap_traits@KV?$Vec2@M@cinder@@U?$less@K@std@@V?$allocator@U?$pair@$$CBKV?$Vec2@M@cinder@@@std@@@4@$0A@@std@@@std@@@2@V?$_Tree_const_iterator@V?$_Tree_val@V?$_Tmap_traits@KV?$Vec2@M@cinder@@U?$less@K@std@@V?$allocator@U?$pair@$$CBKV?$Vec2@M@cinder@@@std@@@4@$0A@@std@@@std@@@2@@Z 0044b320 f i cinder:AppImplMswBasic.obj
 0001:0004a570       ?_Eqrange@?$_Tree@V?$_Tmap_traits@KV?$Vec2@M@cinder@@U?$less@K@std@@V?$allocator@U?$pair@$$CBKV?$Vec2@M@cinder@@@std@@@4@$0A@@std@@@std@@IAE?AU?$pair@V?$_Tree_iterator@V?$_Tree_val@V?$_Tmap_traits@KV?$Vec2@M@cinder@@U?$less@K@std@@V?$allocator@U?$pair@$$CBKV?$Vec2@M@cinder@@@std@@@4@$0A@@std@@@std@@@std@@V12@@2@ABK@Z 0044b570 f i cinder:AppImplMswBasic.obj
 0001:0004a600       ?_Erase@?$_Tree@V?$_Tmap_traits@KV?$Vec2@M@cinder@@U?$less@K@std@@V?$allocator@U?$pair@$$CBKV?$Vec2@M@cinder@@@std@@@4@$0A@@std@@@std@@IAEXPAU_Node@?$_Tree_nod@V?$_Tmap_traits@KV?$Vec2@M@cinder@@U?$less@K@std@@V?$allocator@U?$pair@$$CBKV?$Vec2@M@cinder@@@std@@@4@$0A@@std@@@2@@Z 0044b600 f i cinder:AppImplMswBasic.obj
 0001:0004a640       ?_Linsert@?$_Tree@V?$_Tmap_traits@KV?$Vec2@M@cinder@@U?$less@K@std@@V?$allocator@U?$pair@$$CBKV?$Vec2@M@cinder@@@std@@@4@$0A@@std@@@std@@QAE?AU?$pair@V?$_Tree_iterator@V?$_Tree_val@V?$_Tmap_traits@KV?$Vec2@M@cinder@@U?$less@K@std@@V?$allocator@U?$pair@$$CBKV?$Vec2@M@cinder@@@std@@@4@$0A@@std@@@std@@@std@@_N@2@PAU_Node@?$_Tree_nod@V?$_Tmap_traits@KV?$Vec2@M@cinder@@U?$less@K@std@@V?$allocator@U?$pair@$$CBKV?$Vec2@M@cinder@@@std@@@4@$0A@@std@@@2@_N@Z 0044b640 f i cinder:AppImplMswBasic.obj
 0001:0004a720       ??$_Resetp@UtagTOUCHINPUT@@U?$checked_array_deleter@UtagTOUCHINPUT@@@boost@@@?$shared_ptr@UtagTOUCHINPUT@@@tr1@std@@AAEXPAUtagTOUCHINPUT@@U?$checked_array_deleter@UtagTOUCHINPUT@@@boost@@@Z 0044b720 f i cinder:AppImplMswBasic.obj
 0001:0004a7c0       ?clear@?$_Tree@V?$_Tmap_traits@KV?$Vec2@M@cinder@@U?$less@K@std@@V?$allocator@U?$pair@$$CBKV?$Vec2@M@cinder@@@std@@@4@$0A@@std@@@std@@QAEXXZ 0044b7c0 f i cinder:AppImplMswBasic.obj
 0001:0004a810       ?_Insert@?$_Tree@V?$_Tmap_traits@KV?$Vec2@M@cinder@@U?$less@K@std@@V?$allocator@U?$pair@$$CBKV?$Vec2@M@cinder@@@std@@@4@$0A@@std@@@std@@QAE?AV?$_Tree_iterator@V?$_Tree_val@V?$_Tmap_traits@KV?$Vec2@M@cinder@@U?$less@K@std@@V?$allocator@U?$pair@$$CBKV?$Vec2@M@cinder@@@std@@@4@$0A@@std@@@std@@@2@V?$_Tree_const_iterator@V?$_Tree_val@V?$_Tmap_traits@KV?$Vec2@M@cinder@@U?$less@K@std@@V?$allocator@U?$pair@$$CBKV?$Vec2@M@cinder@@@std@@@4@$0A@@std@@@std@@@2@PAU_Node@?$_Tree_nod@V?$_Tmap_traits@KV?$Vec2@M@cinder@@U?$less@K@std@@V?$allocator@U?$pair@$$CBKV?$Vec2@M@cinder@@@std@@@4@$0A@@std@@@2@@Z 0044b810 f i cinder:AppImplMswBasic.obj
 0001:0004a970       ?erase@?$_Tree@V?$_Tmap_traits@KV?$Vec2@M@cinder@@U?$less@K@std@@V?$allocator@U?$pair@$$CBKV?$Vec2@M@cinder@@@std@@@4@$0A@@std@@@std@@QAE?AV?$_Tree_iterator@V?$_Tree_val@V?$_Tmap_traits@KV?$Vec2@M@cinder@@U?$less@K@std@@V?$allocator@U?$pair@$$CBKV?$Vec2@M@cinder@@@std@@@4@$0A@@std@@@std@@@2@V?$_Tree_const_iterator@V?$_Tree_val@V?$_Tmap_traits@KV?$Vec2@M@cinder@@U?$less@K@std@@V?$allocator@U?$pair@$$CBKV?$Vec2@M@cinder@@@std@@@4@$0A@@std@@@std@@@2@0@Z 0044b970 f i cinder:AppImplMswBasic.obj
 0001:0004aa10       ?reserve@?$vector@VTouch@TouchEvent@app@cinder@@V?$allocator@VTouch@TouchEvent@app@cinder@@@std@@@std@@QAEXI@Z 0044ba10 f i cinder:AppImplMswBasic.obj
 0001:0004ab10       ??$_Ucopy@PAVTouch@TouchEvent@app@cinder@@@?$vector@VTouch@TouchEvent@app@cinder@@V?$allocator@VTouch@TouchEvent@app@cinder@@@std@@@std@@IAEPAVTouch@TouchEvent@app@cinder@@PAV2345@00@Z 0044bb10 f i cinder:AppImplMswBasic.obj
 0001:0004ab40       ??$_Buynode@U?$pair@$$CBKV?$Vec2@M@cinder@@@std@@@?$_Tree_val@V?$_Tmap_traits@KV?$Vec2@M@cinder@@U?$less@K@std@@V?$allocator@U?$pair@$$CBKV?$Vec2@M@cinder@@@std@@@4@$0A@@std@@@std@@QAEPAU_Node@?$_Tree_nod@V?$_Tmap_traits@KV?$Vec2@M@cinder@@U?$less@K@std@@V?$allocator@U?$pair@$$CBKV?$Vec2@M@cinder@@@std@@@4@$0A@@std@@@1@$$QAU?$pair@$$CBKV?$Vec2@M@cinder@@@1@@Z 0044bb40 f i cinder:AppImplMswBasic.obj
 0001:0004abc0       ?_Reserve@?$vector@VTouch@TouchEvent@app@cinder@@V?$allocator@VTouch@TouchEvent@app@cinder@@@std@@@std@@IAEXI@Z 0044bbc0 f i cinder:AppImplMswBasic.obj
 0001:0004ac40       ??A?$map@KV?$Vec2@M@cinder@@U?$less@K@std@@V?$allocator@U?$pair@$$CBKV?$Vec2@M@cinder@@@std@@@4@@std@@QAEAAV?$Vec2@M@cinder@@ABK@Z 0044bc40 f i cinder:AppImplMswBasic.obj
 0001:0004acd0       ?push_back@?$vector@VTouch@TouchEvent@app@cinder@@V?$allocator@VTouch@TouchEvent@app@cinder@@@std@@@std@@QAEXABVTouch@TouchEvent@app@cinder@@@Z 0044bcd0 f i cinder:AppImplMswBasic.obj
 0001:0004acd0       ?push_back@?$vector@VTouch@TouchEvent@app@cinder@@V?$allocator@VTouch@TouchEvent@app@cinder@@@std@@@std@@QAEX$$QAVTouch@TouchEvent@app@cinder@@@Z 0044bcd0 f i cinder:AppImplMswBasic.obj
 0001:0004ad90       ??4?$vector@VTouch@TouchEvent@app@cinder@@V?$allocator@VTouch@TouchEvent@app@cinder@@@std@@@std@@QAEAAV01@ABV01@@Z 0044bd90 f i cinder:AppImplMswBasic.obj
 0001:0004aee0       ??0AppImplMswBasic@app@cinder@@QAE@PAVAppBasic@12@@Z 0044bee0 f   cinder:AppImplMswBasic.obj
 0001:0004afa0       ?quit@AppImplMswBasic@app@cinder@@UAEXXZ 0044bfa0 f i cinder:AppImplMswBasic.obj
 0001:0004afb0       ??_EAppImplMswBasic@app@cinder@@UAEPAXI@Z 0044bfb0 f i cinder:AppImplMswBasic.obj
 0001:0004afb0       ??_GAppImplMswBasic@app@cinder@@UAEPAXI@Z 0044bfb0 f i cinder:AppImplMswBasic.obj
 0001:0004b040       ?onTouch@AppImplMswBasic@app@cinder@@IAEXPAUHWND__@@IJ@Z 0044c040 f   cinder:AppImplMswBasic.obj
 0001:0004b550       _WndProc@16                0044c550 f   cinder:AppImplMswBasic.obj
 0001:0004be60       ?createWindow@AppImplMswBasic@app@cinder@@IAE_NPAH0@Z 0044ce60 f   cinder:AppImplMswBasic.obj
 0001:0004c190       ?toggleFullScreen@AppImplMswBasic@app@cinder@@UAEXXZ 0044d190 f   cinder:AppImplMswBasic.obj
 0001:0004c340       ?run@AppImplMswBasic@app@cinder@@QAEXXZ 0044d340 f   cinder:AppImplMswBasic.obj
 0001:0004c590       ??1ImageIoExceptionIllegalChannelOrder@cinder@@UAE@XZ 0044d590 f i cinder:ImageIo.obj
 0001:0004c590       ??1CaptureExcInitFail@cinder@@UAE@XZ 0044d590 f i cinder:CaptureImplDirectShow.obj
 0001:0004c590       ??1Exception@cinder@@UAE@XZ 0044d590 f i HaarHandDetector.obj
 0001:0004c590       ??1ImageIoExceptionIllegalDataType@cinder@@UAE@XZ 0044d590 f i HaarHandDetector.obj
 0001:0004c590       ??1ImageIoExceptionFailedLoad@cinder@@UAE@XZ 0044d590 f i cinder:ImageIo.obj
 0001:0004c590       ??1StreamExc@cinder@@UAE@XZ 0044d590 f i cinder:DataSource.obj
 0001:0004c590       ??1ResourceLoadExc@app@cinder@@UAE@XZ 0044d590 f i cinder:App.obj
 0001:0004c590       ??1ImageIoExceptionIllegalColorModel@cinder@@UAE@XZ 0044d590 f i HaarHandDetector.obj
 0001:0004c5a0       ??$fill@PAHH@std@@YAXPAH0ABH@Z 0044d5a0 f i cinder:TwMgr.obj
 0001:0004c5a0       ??$fill@PAII@std@@YAXPAI0ABI@Z 0044d5a0 f i cinder:CaptureImplDirectShow.obj
 0001:0004c5c0       ?_Destroy@?$_Ref_count@VCaptureMgr@cinder@@@tr1@std@@EAEXXZ 0044d5c0 f i cinder:CaptureImplDirectShow.obj
 0001:0004c5f0       ?end@?$vector@_NV?$allocator@_N@std@@@std@@QAE?AV?$_Vb_iterator@V?$allocator@_N@std@@@2@XZ 0044d5f0 f i cinder:CaptureImplDirectShow.obj
 0001:0004c650       ??H?$_Vb_iterator@V?$allocator@_N@std@@@std@@QBE?AV01@H@Z 0044d650 f i cinder:CaptureImplDirectShow.obj
 0001:0004c6b0       ?_Buy@?$vector@UDTree@CascadeClassifier@cv@@V?$allocator@UDTree@CascadeClassifier@cv@@@std@@@std@@IAE_NI@Z 0044d6b0 f i cv210:cvprecomp.obj
 0001:0004c6b0       ?_Buy@?$vector@HV?$allocator@H@std@@@std@@IAE_NI@Z 0044d6b0 f i cinder:VBO.obj
 0001:0004c6b0       ?_Buy@?$vector@PAEV?$allocator@PAE@std@@@std@@IAE_NI@Z 0044d6b0 f i cv210:cvprecomp.obj
 0001:0004c6b0       ?_Buy@?$vector@IV?$allocator@I@std@@@std@@IAE_NI@Z 0044d6b0 f i cinder:CaptureImplDirectShow.obj
 0001:0004c6b0       ?_Buy@?$vector@MV?$allocator@M@std@@@std@@IAE_NI@Z 0044d6b0 f i cv210:cvprecomp.obj
 0001:0004c700       ??$_Resetp@VCaptureMgr@cinder@@@?$shared_ptr@VCaptureMgr@cinder@@@tr1@std@@AAEXPAVCaptureMgr@cinder@@@Z 0044d700 f i cinder:CaptureImplDirectShow.obj
 0001:0004c7b0       ??A?$vector@_NV?$allocator@_N@std@@@std@@QAE?AV?$_Vb_reference@V?$allocator@_N@std@@@1@I@Z 0044d7b0 f i cinder:CaptureImplDirectShow.obj
 0001:0004c810       ?_Insert_n@?$vector@HV?$allocator@H@std@@@std@@IAEXV?$_Vector_const_iterator@V?$_Vector_val@HV?$allocator@H@std@@@std@@@2@IABH@Z 0044d810 f i cinder:TwMgr.obj
 0001:0004c810       ?_Insert_n@?$vector@IV?$allocator@I@std@@@std@@IAEXV?$_Vector_const_iterator@V?$_Vector_val@IV?$allocator@I@std@@@std@@@2@IABI@Z 0044d810 f i cinder:CaptureImplDirectShow.obj
 0001:0004c9f0       ??$_Fill@V?$_Vb_iterator@V?$allocator@_N@std@@@std@@_N@std@@YAXV?$_Vb_iterator@V?$allocator@_N@std@@@0@0AB_N@Z 0044d9f0 f i cinder:CaptureImplDirectShow.obj
 0001:0004ca40       ??$_Copy_backward@V?$_Vb_iterator@V?$allocator@_N@std@@@std@@V12@@std@@YA?AV?$_Vb_iterator@V?$allocator@_N@std@@@0@V10@00U_Nonscalar_ptr_iterator_tag@0@@Z 0044da40 f i cinder:CaptureImplDirectShow.obj
 0001:0004cac0       ?surfaceDeallocator@SurfaceCache@cinder@@SAXPAX@Z 0044dac0 f i cinder:CaptureImplDirectShow.obj
 0001:0004cb20       ?resize@?$vector@IV?$allocator@I@std@@@std@@QAEXII@Z 0044db20 f i cinder:CaptureImplDirectShow.obj
 0001:0004cb80       ??$copy_backward@V?$_Vb_iterator@V?$allocator@_N@std@@@std@@V12@@std@@YA?AV?$_Vb_iterator@V?$allocator@_N@std@@@0@V10@00@Z 0044db80 f i cinder:CaptureImplDirectShow.obj
 0001:0004cbc0       ?instance@CaptureMgr@cinder@@SA?AV?$shared_ptr@VCaptureMgr@cinder@@@tr1@std@@XZ 0044dbc0 f   cinder:CaptureImplDirectShow.obj
 0001:0004ccd0       ?getNewSurface@SurfaceCache@cinder@@QAE?AV?$SurfaceT@E@2@XZ 0044dcd0 f i cinder:CaptureImplDirectShow.obj
 0001:0004cec0       ??1?$vector@_NV?$allocator@_N@std@@@std@@QAE@XZ 0044dec0 f i cinder:CaptureImplDirectShow.obj
 0001:0004cef0       ?_Insert_x@?$vector@_NV?$allocator@_N@std@@@std@@QAEIV?$_Vb_const_iterator@V?$allocator@_N@std@@@2@I@Z 0044def0 f i cinder:CaptureImplDirectShow.obj
 0001:0004cfc0       ??$_Destroy_range@V?$allocator@V?$shared_ptr@VDevice@Capture@cinder@@@tr1@std@@@std@@@std@@YAXPAV?$shared_ptr@VDevice@Capture@cinder@@@tr1@0@0AAV?$allocator@V?$shared_ptr@VDevice@Capture@cinder@@@tr1@std@@@0@U_Nonscalar_ptr_iterator_tag@0@@Z 0044dfc0 f i cinder:CaptureImplDirectShow.obj
 0001:0004cfc0       ??$_Destroy_range@V?$allocator@V?$shared_ptr@V?$function@$$A6AXXZ@tr1@std@@@tr1@std@@@std@@@std@@YAXPAV?$shared_ptr@V?$function@$$A6AXXZ@tr1@std@@@tr1@0@0AAV?$allocator@V?$shared_ptr@V?$function@$$A6AXXZ@tr1@std@@@tr1@std@@@0@U_Nonscalar_ptr_iterator_tag@0@@Z 0044dfc0 f i SoixanteCircuits_TestApp.obj
 0001:0004cfc0       ??$_Destroy_range@V?$allocator@V?$shared_ptr@VDisplay@cinder@@@tr1@std@@@std@@@std@@YAXPAV?$shared_ptr@VDisplay@cinder@@@tr1@0@0AAV?$allocator@V?$shared_ptr@VDisplay@cinder@@@tr1@std@@@0@U_Nonscalar_ptr_iterator_tag@0@@Z 0044dfc0 f i cinder:Display.obj
 0001:0004cfc0       ??$_Destroy_range@V?$allocator@V?$shared_ptr@E@tr1@std@@@std@@@std@@YAXPAV?$shared_ptr@E@tr1@0@0AAV?$allocator@V?$shared_ptr@E@tr1@std@@@0@U_Nonscalar_ptr_iterator_tag@0@@Z 0044dfc0 f i cinder:CaptureImplDirectShow.obj
 0001:0004d020       ?instanceVI@CaptureMgr@cinder@@SAPAVvideoInput@@XZ 0044e020 f i cinder:CaptureImplDirectShow.obj
 0001:0004d070       ??1CaptureImplDirectShow@cinder@@QAE@XZ 0044e070 f   cinder:CaptureImplDirectShow.obj
 0001:0004d1e0       ?start@CaptureImplDirectShow@cinder@@QAEXXZ 0044e1e0 f   cinder:CaptureImplDirectShow.obj
 0001:0004d2d0       ??0CaptureExc@cinder@@QAE@ABV01@@Z 0044e2d0 f i cinder:CaptureImplDirectShow.obj
 0001:0004d2f0       ??0CaptureExcInitFail@cinder@@QAE@ABV01@@Z 0044e2f0 f i cinder:CaptureImplDirectShow.obj
 0001:0004d310       ?checkNewFrame@CaptureImplDirectShow@cinder@@QBE_NXZ 0044e310 f   cinder:CaptureImplDirectShow.obj
 0001:0004d370       ?getSurface@CaptureImplDirectShow@cinder@@QBE?AV?$SurfaceT@E@2@XZ 0044e370 f   cinder:CaptureImplDirectShow.obj
 0001:0004d4e0       ?_Tidy@?$vector@IV?$allocator@I@std@@@std@@IAEXXZ 0044e4e0 f i cinder:VBO.obj
 0001:0004d4e0       ??1?$vector@PAUCTwVar@@V?$allocator@PAUCTwVar@@@std@@@std@@QAE@XZ 0044e4e0 f i cinder:TwMgr.obj
 0001:0004d4e0       ??1?$vector@UStage@CascadeClassifier@cv@@V?$allocator@UStage@CascadeClassifier@cv@@@std@@@std@@QAE@XZ 0044e4e0 f i cv210:cvcascadedetect.obj
 0001:0004d4e0       ??1?$vector@PAEV?$allocator@PAE@std@@@std@@QAE@XZ 0044e4e0 f i cv210:cvhistogram.obj
 0001:0004d4e0       ??1?$vector@HV?$allocator@H@std@@@std@@QAE@XZ 0044e4e0 f i cinder:VBO.obj
 0001:0004d4e0       ?_Tidy@?$vector@VTouch@TouchEvent@app@cinder@@V?$allocator@VTouch@TouchEvent@app@cinder@@@std@@@std@@IAEXXZ 0044e4e0 f i SoixanteCircuits_TestApp.obj
 0001:0004d4e0       ??1?$vector@V?$Vec@M$01@cv@@V?$allocator@V?$Vec@M$01@cv@@@std@@@std@@QAE@XZ 0044e4e0 f i cxcore210:cxmatrix.obj
 0001:0004d4e0       ?_Tidy@?$vector@DV?$allocator@D@std@@@std@@IAEXXZ 0044e4e0 f i cinder:Utilities.obj
 0001:0004d4e0       ?_Tidy@?$vector@UStage@CascadeClassifier@cv@@V?$allocator@UStage@CascadeClassifier@cv@@@std@@@std@@IAEXXZ 0044e4e0 f i cv210:cvcascadedetect.obj
 0001:0004d4e0       ??1?$vector@UCvAvgComp@@V?$allocator@UCvAvgComp@@@std@@@std@@QAE@XZ 0044e4e0 f i cv210:cvcascadedetect.obj
 0001:0004d4e0       ??1?$vector@EV?$allocator@E@std@@@std@@QAE@XZ 0044e4e0 f i cv210:cvhistogram.obj
 0001:0004d4e0       ?_Tidy@?$vector@UDTree@CascadeClassifier@cv@@V?$allocator@UDTree@CascadeClassifier@cv@@@std@@@std@@IAEXXZ 0044e4e0 f i cv210:cvcascadedetect.obj
 0001:0004d4e0       ??1?$vector@UDTree@CascadeClassifier@cv@@V?$allocator@UDTree@CascadeClassifier@cv@@@std@@@std@@QAE@XZ 0044e4e0 f i cv210:cvcascadedetect.obj
 0001:0004d4e0       ??1?$vector@V?$Rect_@H@cv@@V?$allocator@V?$Rect_@H@cv@@@std@@@std@@QAE@XZ 0044e4e0 f i HaarHandDetector.obj
 0001:0004d4e0       ??1?$vector@DV?$allocator@D@std@@@std@@QAE@XZ 0044e4e0 f i cinder:Utilities.obj
 0001:0004d4e0       ?_Tidy@?$vector@UDTreeNode@CascadeClassifier@cv@@V?$allocator@UDTreeNode@CascadeClassifier@cv@@@std@@@std@@IAEXXZ 0044e4e0 f i cv210:cvcascadedetect.obj
 0001:0004d4e0       ??1?$vector@UItem@RadiusResultSet@flann@@V?$allocator@UItem@RadiusResultSet@flann@@@std@@@std@@QAE@XZ 0044e4e0 f i flann:flann.obj
 0001:0004d4e0       ??1?$vector@_WV?$allocator@_W@std@@@std@@QAE@XZ 0044e4e0 f i cinder:Utilities.obj
 0001:0004d4e0       ??1?$vector@UNode@KDTree@cv@@V?$allocator@UNode@KDTree@cv@@@std@@@std@@QAE@XZ 0044e4e0 f i cv210:cvprecomp.obj
 0001:0004d4e0       ?_Tidy@?$vector@PAEV?$allocator@PAE@std@@@std@@IAEXXZ 0044e4e0 f i cv210:cvhistogram.obj
 0001:0004d4e0       ??1?$vector@GV?$allocator@G@std@@@std@@QAE@XZ 0044e4e0 f i cinder:Font.obj
 0001:0004d4e0       ??1?$vector@UCHierTag@CTwBar@@V?$allocator@UCHierTag@CTwBar@@@std@@@std@@QAE@XZ 0044e4e0 f i cinder:TwBar.obj
 0001:0004d4e0       ??1?$vector@U?$pair@PAVSurfaceCache@cinder@@H@std@@V?$allocator@U?$pair@PAVSurfaceCache@cinder@@H@std@@@2@@std@@QAE@XZ 0044e4e0 f i cinder:CaptureImplDirectShow.obj
 0001:0004d4e0       ??1?$vector@NV?$allocator@N@std@@@std@@QAE@XZ 0044e4e0 f i cinder:TwMgr.obj
 0001:0004d4e0       ?_Tidy@?$vector@EV?$allocator@E@std@@@std@@IAEXXZ 0044e4e0 f i cv210:cvhistogram.obj
 0001:0004d4e0       ?_Tidy@?$vector@MV?$allocator@M@std@@@std@@IAEXXZ 0044e4e0 f i cinder:TwMgr.obj
 0001:0004d4e0       ??1?$vector@MV?$allocator@M@std@@@std@@QAE@XZ 0044e4e0 f i cinder:TwMgr.obj
 0001:0004d4e0       ?_Tidy@?$vector@HV?$allocator@H@std@@@std@@IAEXXZ 0044e4e0 f i cinder:VBO.obj
 0001:0004d4e0       ??1?$vector@UDTreeNode@CascadeClassifier@cv@@V?$allocator@UDTreeNode@CascadeClassifier@cv@@@std@@@std@@QAE@XZ 0044e4e0 f i cv210:cvcascadedetect.obj
 0001:0004d4e0       ??1?$vector@PAUCTwBar@@V?$allocator@PAUCTwBar@@@std@@@std@@QAE@XZ 0044e4e0 f i cinder:TwMgr.obj
 0001:0004d4e0       ?_Tidy@?$vector@UNode@KDTree@cv@@V?$allocator@UNode@KDTree@cv@@@std@@@std@@IAEXXZ 0044e4e0 f i cv210:cvprecomp.obj
 0001:0004d4e0       ??1?$vector@IV?$allocator@I@std@@@std@@QAE@XZ 0044e4e0 f i cinder:VBO.obj
 0001:0004d4e0       ??1?$vector@VTouch@TouchEvent@app@cinder@@V?$allocator@VTouch@TouchEvent@app@cinder@@@std@@@std@@QAE@XZ 0044e4e0 f i SoixanteCircuits_TestApp.obj
 0001:0004d4e0       ??1?$vector@V?$Point_@H@cv@@V?$allocator@V?$Point_@H@cv@@@std@@@std@@QAE@XZ 0044e4e0 f i cv210:cvfilter.obj
 0001:0004d510       ?_Insert_n@?$vector@_NV?$allocator@_N@std@@@std@@QAEXV?$_Vb_const_iterator@V?$allocator@_N@std@@@2@I_N@Z 0044e510 f i cinder:CaptureImplDirectShow.obj
 0001:0004d5b0       ?insert@?$vector@_NV?$allocator@_N@std@@@std@@QAE?AV?$_Vb_iterator@V?$allocator@_N@std@@@2@V?$_Vb_const_iterator@V?$allocator@_N@std@@@2@_N@Z 0044e5b0 f i cinder:CaptureImplDirectShow.obj
 0001:0004d630       ?push_back@?$vector@_NV?$allocator@_N@std@@@std@@QAEX_N@Z 0044e630 f i cinder:CaptureImplDirectShow.obj
 0001:0004d690       ??1?$vector@V?$shared_ptr@V?$function@$$A6AXXZ@tr1@std@@@tr1@std@@V?$allocator@V?$shared_ptr@V?$function@$$A6AXXZ@tr1@std@@@tr1@std@@@3@@std@@QAE@XZ 0044e690 f i SoixanteCircuits_TestApp.obj
 0001:0004d690       ??1?$vector@V?$shared_ptr@E@tr1@std@@V?$allocator@V?$shared_ptr@E@tr1@std@@@3@@std@@QAE@XZ 0044e690 f i cinder:CaptureImplDirectShow.obj
 0001:0004d6e0       ?reserve@?$vector@V?$shared_ptr@VDisplay@cinder@@@tr1@std@@V?$allocator@V?$shared_ptr@VDisplay@cinder@@@tr1@std@@@3@@std@@QAEXI@Z 0044e6e0 f i cinder:Display.obj
 0001:0004d6e0       ?reserve@?$vector@V?$shared_ptr@E@tr1@std@@V?$allocator@V?$shared_ptr@E@tr1@std@@@3@@std@@QAEXI@Z 0044e6e0 f i cinder:CaptureImplDirectShow.obj
 0001:0004d7d0       ??1SurfaceCache@cinder@@QAE@XZ 0044e7d0 f i cinder:CaptureImplDirectShow.obj
 0001:0004d840       ?_Reserve@?$vector@V?$shared_ptr@VDisplay@cinder@@@tr1@std@@V?$allocator@V?$shared_ptr@VDisplay@cinder@@@tr1@std@@@3@@std@@IAEXI@Z 0044e840 f i cinder:Display.obj
 0001:0004d840       ?_Reserve@?$vector@V?$shared_ptr@E@tr1@std@@V?$allocator@V?$shared_ptr@E@tr1@std@@@3@@std@@IAEXI@Z 0044e840 f i cinder:CaptureImplDirectShow.obj
 0001:0004d8a0       ?_Destroy@?$_Ref_count@VSurfaceCache@cinder@@@tr1@std@@EAEXXZ 0044e8a0 f i cinder:CaptureImplDirectShow.obj
 0001:0004d8c0       ?push_back@?$vector@V?$shared_ptr@E@tr1@std@@V?$allocator@V?$shared_ptr@E@tr1@std@@@3@@std@@QAEX$$QAV?$shared_ptr@E@tr1@2@@Z 0044e8c0 f i cinder:CaptureImplDirectShow.obj
 0001:0004d970       ??$_Resetp@VSurfaceCache@cinder@@@?$shared_ptr@VSurfaceCache@cinder@@@tr1@std@@AAEXPAVSurfaceCache@cinder@@@Z 0044e970 f i cinder:CaptureImplDirectShow.obj
 0001:0004da10       ??0SurfaceCache@cinder@@QAE@HHVSurfaceChannelOrder@1@H@Z 0044ea10 f i cinder:CaptureImplDirectShow.obj
 0001:0004dc70       ??0CaptureImplDirectShow@cinder@@QAE@HHV?$shared_ptr@VDevice@Capture@cinder@@@tr1@std@@@Z 0044ec70 f   cinder:CaptureImplDirectShow.obj
 0001:0004df90       ?Color32ToARGBi@@YAXIPAH000@Z 0044ef90 f i cinder:TwMgr.obj
 0001:0004dfe0       ?Color32ToARGBf@@YAXIPAM000@Z 0044efe0 f i cinder:TwMgr.obj
 0001:0004e060       ?GetTime@PerfTimer@@QAENXZ 0044f060 f i cinder:TwMgr.obj
 0001:0004e090       ??0CTwFPU@@QAE@XZ          0044f090 f i cinder:TwMgr.obj
 0001:0004e0d0       ??1CTwFPU@@QAE@XZ          0044f0d0 f i cinder:TwMgr.obj
 0001:0004e0f0       ?RGB2HLS@CColorExt@@QAEXXZ 0044f0f0 f   cinder:TwMgr.obj
 0001:0004e1e0       ?HLS2RGB@CColorExt@@QAEXXZ 0044f1e0 f   cinder:TwMgr.obj
 0001:0004e2d0       ?SummaryCB@CQuaternionExt@@SGXPADIPBXPAX@Z 0044f2d0 f   cinder:TwMgr.obj
 0001:0004e3a0       ?ConvertToAxisAngle@CQuaternionExt@@QAEXXZ 0044f3a0 f   cinder:TwMgr.obj
 0001:0004e4c0       ?ConvertFromAxisAngle@CQuaternionExt@@QAEXXZ 0044f4c0 f   cinder:TwMgr.obj
 0001:0004e670       ?ApplyQuat@CQuaternionExt@@SAXPAM00MMMMMMM@Z 0044f670 f   cinder:TwMgr.obj
 0001:0004e750       ?QuatFromDir@CQuaternionExt@@SAXPAN000NNN@Z 0044f750 f   cinder:TwMgr.obj
 0001:0004e820       ?Permute@CQuaternionExt@@QAEXPAM00MMM@Z 0044f820 f i cinder:TwMgr.obj
 0001:0004e8a0       ?PermuteInv@CQuaternionExt@@QAEXPAM00MMM@Z 0044f8a0 f i cinder:TwMgr.obj
 0001:0004e920       ?MouseLeaveCB@CQuaternionExt@@SGXPAX0PAUCTwBar@@@Z 0044f920 f   cinder:TwMgr.obj
 0001:0004e940       ?ToClient@CClientStdString@CTwMgr@@QAEAAV?$basic_string@DU?$char_traits@D@std@@V?$allocator@D@2@@std@@XZ 0044f940 f   cinder:TwMgr.obj
 0001:0004e970       ?ToLib@CLibStdString@CTwMgr@@QAEAAV?$basic_string@DU?$char_traits@D@std@@V?$allocator@D@2@@std@@XZ 0044f970 f   cinder:TwMgr.obj
 0001:0004e9a0       ?HasAttrib@CTwMgr@@QBEHPBDPA_N@Z 0044f9a0 f   cinder:TwMgr.obj
 0001:0004eab0       ?TwGlobalError@@YGXPBD@Z   0044fab0 f   cinder:TwMgr.obj
 0001:0004eb10       ?SetLastError@CTwMgr@@QAEXPBD@Z 0044fb10 f   cinder:TwMgr.obj
 0001:0004ec30       ??1CStructProxy@CTwMgr@@QAE@XZ 0044fc30 f   cinder:TwMgr.obj
 0001:0004ec70       ??1CMemberProxy@CTwMgr@@QAE@XZ 0044fc70 f   cinder:TwMgr.obj
 0001:0004ec90       _TwAddVarRW@20             0044fc90 f   cinder:TwMgr.obj
 0001:0004ecc0       _TwAddVarCB@28             0044fcc0 f   cinder:TwMgr.obj
 0001:0004ed00       ?TwGetKeyCode@@YA_NPAH0PBD@Z 0044fd00 f   cinder:TwMgr.obj
 0001:0004f3f0       ?PixmapCursor@CTwMgr@@QAEPAUHICON__@@H@Z 004503f0 f   cinder:TwMgr.obj
 0001:0004f640       ?FreeCursors@CTwMgr@@QAEXXZ 00450640 f   cinder:TwMgr.obj
 0001:0004f6c0       ?SetCursor@CTwMgr@@QAEXPAUHICON__@@@Z 004506c0 f   cinder:TwMgr.obj
 0001:0004f720       _TwCopyStdStringToClientFunc@4 00450720 f   cinder:TwMgr.obj
 0001:0004f740       ?size@?$vector@UCEnum@CTwMgr@@V?$allocator@UCEnum@CTwMgr@@@std@@@std@@QBEIXZ 00450740 f i cinder:TwMgr.obj
 0001:0004f760       ?_Min@?$_Tree_val@V?$_Tset_traits@W4ETwType@@UStructCompare@@V?$allocator@W4ETwType@@@std@@$0A@@std@@@std@@SAPAU_Node@?$_Tree_nod@V?$_Tset_traits@W4ETwType@@UStructCompare@@V?$allocator@W4ETwType@@@std@@$0A@@std@@@2@PAU342@@Z 00450760 f i cinder:TwMgr.obj
 0001:0004f780       ??1_Sentry_base@?$basic_ostream@DU?$char_traits@D@std@@@std@@QAE@XZ 00450780 f i cinder:TwMgr.obj
 0001:0004f7a0       ?_Max@?$_Tree_val@V?$_Tset_traits@W4ETwType@@UStructCompare@@V?$allocator@W4ETwType@@@std@@$0A@@std@@@std@@SAPAU_Node@?$_Tree_nod@V?$_Tset_traits@W4ETwType@@UStructCompare@@V?$allocator@W4ETwType@@@std@@$0A@@std@@@2@PAU342@@Z 004507a0 f i cinder:TwMgr.obj
 0001:0004f7c0       ?Color32FromARGBi@@YAIHHHH@Z 004507c0 f i cinder:TwMgr.obj
 0001:0004f860       ?Color32FromARGBf@@YAIMMMM@Z 00450860 f i cinder:TwMgr.obj
 0001:0004f9e0       ?InitColor32CB@CColorExt@@SGXPAX0@Z 004509e0 f   cinder:TwMgr.obj
 0001:0004fa50       ?InitColor3FCB@CColorExt@@SGXPAX0@Z 00450a50 f   cinder:TwMgr.obj
 0001:0004fa80       ?InitColor4FCB@CColorExt@@SGXPAX0@Z 00450a80 f   cinder:TwMgr.obj
 0001:0004fab0       ?CopyVarFromExtCB@CColorExt@@SGXPAXPBXI0@Z 00450ab0 f   cinder:TwMgr.obj
 0001:0004fcd0       ?CopyVarToExtCB@CColorExt@@SGXPBXPAXI1@Z 00450cd0 f   cinder:TwMgr.obj
 0001:0004fec0       ?SummaryCB@CColorExt@@SGXPADIPBXPAX@Z 00450ec0 f   cinder:TwMgr.obj
 0001:0004ff10       ?CopyVarFromExtCB@CQuaternionExt@@SGXPAXPBXI0@Z 00450f10 f   cinder:TwMgr.obj
 0001:000501c0       ?CopyVarToExtCB@CQuaternionExt@@SGXPBXPAXI1@Z 004511c0 f   cinder:TwMgr.obj
 0001:00050480       ?CopyToVar@CQuaternionExt@@QAEXXZ 00451480 f   cinder:TwMgr.obj
 0001:00050950       ?DrawCB@CQuaternionExt@@SGXHHPAX0PAUCTwBar@@PAUCTwVarGroup@@@Z 00451950 f   cinder:TwMgr.obj
 0001:00051ca0       ?MouseMotionCB@CQuaternionExt@@SG_NHHHHPAX0PAUCTwBar@@PAUCTwVarGroup@@@Z 00452ca0 f   cinder:TwMgr.obj
 0001:00051f30       ?MouseButtonCB@CQuaternionExt@@SG_NW4ETwMouseButtonID@@_NHHHHPAX2PAUCTwBar@@PAUCTwVarGroup@@@Z 00452f30 f   cinder:TwMgr.obj
 0001:00051fe0       ?DrawLine@CTwGraphOpenGL@@UAEXHHHHI_N@Z 00452fe0 f i cinder:TwMgr.obj
 0001:00052010       ?DrawRect@CTwGraphOpenGL@@UAEXHHHHI@Z 00453010 f i cinder:TwMgr.obj
 0001:00052040       ??_EITwGraph@@UAEPAXI@Z    00453040 f i cinder:TwMgr.obj
 0001:00052040       ??_ECTwGraphOpenGL@@UAEPAXI@Z 00453040 f i cinder:TwMgr.obj
 0001:00052040       ??_GITwGraph@@UAEPAXI@Z    00453040 f i cinder:TwMgr.obj
 0001:00052040       ??_GCTwGraphOpenGL@@UAEPAXI@Z 00453040 f i cinder:TwMgr.obj
 0001:00052170       ?SetFont@CTwMgr@@QAEXPBUCTexFont@@_N@Z 00453170 f   cinder:TwMgr.obj
 0001:000522c0       ?RestoreCDStdString@CTwMgr@@QAEXABV?$vector@UCCDStdStringRecord@CTwMgr@@V?$allocator@UCCDStdStringRecord@CTwMgr@@@std@@@std@@@Z 004532c0 f   cinder:TwMgr.obj
 0001:00052340       ?GetCB@CMemberProxy@CTwMgr@@SGXPAX0@Z 00453340 f   cinder:TwMgr.obj
 0001:00052470       ?CreateCursors@CTwMgr@@QAEXXZ 00453470 f   cinder:TwMgr.obj
 0001:00052650       ??E?$_Tree_unchecked_const_iterator@V?$_Tree_val@V?$_Tset_traits@W4ETwType@@UStructCompare@@V?$allocator@W4ETwType@@@std@@$0A@@std@@@std@@U_Iterator_base0@2@@std@@QAEAAV01@XZ 00453650 f i cinder:TwMgr.obj
 0001:000526a0       ?allocate@?$allocator@UCStructMember@CTwMgr@@@std@@QAEPAUCStructMember@CTwMgr@@I@Z 004536a0 f i cinder:TwMgr.obj
 0001:00052700       ?allocate@?$allocator@UCStruct@CTwMgr@@@std@@QAEPAUCStruct@CTwMgr@@I@Z 00453700 f i cinder:TwMgr.obj
 0001:00052760       ?allocate@?$allocator@UCEnum@CTwMgr@@@std@@QAEPAUCEnum@CTwMgr@@I@Z 00453760 f i cinder:TwMgr.obj
 0001:000527c0       ?allocate@?$allocator@UCCDStdStringRecord@CTwMgr@@@std@@QAEPAUCCDStdStringRecord@CTwMgr@@I@Z 004537c0 f i cinder:TwMgr.obj
 0001:00052820       ??F?$_Tree_unchecked_const_iterator@V?$_Tree_val@V?$_Tset_traits@W4ETwType@@UStructCompare@@V?$allocator@W4ETwType@@@std@@$0A@@std@@@std@@U_Iterator_base0@2@@std@@QAEAAV01@XZ 00453820 f i cinder:TwMgr.obj
 0001:00052880       ?_Lrotate@?$_Tree@V?$_Tmap_traits@IV?$basic_string@DU?$char_traits@D@std@@V?$allocator@D@2@@std@@U?$less@I@2@V?$allocator@U?$pair@$$CBIV?$basic_string@DU?$char_traits@D@std@@V?$allocator@D@2@@std@@@std@@@2@$0A@@std@@@std@@IAEXPAU_Node@?$_Tree_nod@V?$_Tmap_traits@IV?$basic_string@DU?$char_traits@D@std@@V?$allocator@D@2@@std@@U?$less@I@2@V?$allocator@U?$pair@$$CBIV?$basic_string@DU?$char_traits@D@std@@V?$allocator@D@2@@std@@@std@@@2@$0A@@std@@@2@@Z 00453880 f i cinder:TwMgr.obj
 0001:00052880       ?_Lrotate@?$_Tree@V?$_Tmap_traits@V?$basic_string@DU?$char_traits@D@std@@V?$allocator@D@2@@std@@PBU_GUID@@U?$less@V?$basic_string@DU?$char_traits@D@std@@V?$allocator@D@2@@std@@@2@V?$allocator@U?$pair@$$CBV?$basic_string@DU?$char_traits@D@std@@V?$allocator@D@2@@std@@PBU_GUID@@@std@@@2@$0A@@std@@@std@@IAEXPAU_Node@?$_Tree_nod@V?$_Tmap_traits@V?$basic_string@DU?$char_traits@D@std@@V?$allocator@D@2@@std@@PBU_GUID@@U?$less@V?$basic_string@DU?$char_traits@D@std@@V?$allocator@D@2@@std@@@2@V?$allocator@U?$pair@$$CBV?$basic_string@DU?$char_traits@D@std@@V?$allocator@D@2@@std@@PBU_GUID@@@std@@@2@$0A@@std@@@2@@Z 00453880 f i cinder:ImageTargetFileWic.obj
 0001:000528e0       ?_Lrotate@?$_Tree@V?$_Tset_traits@W4ETwType@@UStructCompare@@V?$allocator@W4ETwType@@@std@@$0A@@std@@@std@@IAEXPAU_Node@?$_Tree_nod@V?$_Tset_traits@W4ETwType@@UStructCompare@@V?$allocator@W4ETwType@@@std@@$0A@@std@@@2@@Z 004538e0 f i cinder:TwMgr.obj
 0001:00052940       ?_Rrotate@?$_Tree@V?$_Tset_traits@W4ETwType@@UStructCompare@@V?$allocator@W4ETwType@@@std@@$0A@@std@@@std@@IAEXPAU_Node@?$_Tree_nod@V?$_Tset_traits@W4ETwType@@UStructCompare@@V?$allocator@W4ETwType@@@std@@$0A@@std@@@2@@Z 00453940 f i cinder:TwMgr.obj
 0001:000529a0       ?_Ifmt@?$num_put@DV?$ostreambuf_iterator@DU?$char_traits@D@std@@@std@@@std@@ABAPADPADPBDH@Z 004539a0 f i cinder:TwMgr.obj
 0001:00052a30       ?_Tidy@?$numpunct@D@std@@AAEXXZ 00453a30 f i cinder:TwMgr.obj
 0001:00052a60       ??$_Maklocstr@D@std@@YAPADPBDPADABU_Cvtvec@@@Z 00453a60 f i cinder:TwMgr.obj
 0001:00052aa0       ??4?$ostreambuf_iterator@DU?$char_traits@D@std@@@std@@QAEAAV01@D@Z 00453aa0 f i cinder:TwMgr.obj
 0001:00052af0       ?_Init@?$numpunct@D@std@@IAEXABV_Locinfo@2@_N@Z 00453af0 f i cinder:TwMgr.obj
 0001:00052c30       ?InitQuat4FCB@CQuaternionExt@@SGXPAX0@Z 00453c30 f   cinder:TwMgr.obj
 0001:00052d40       ?InitQuat4DCB@CQuaternionExt@@SGXPAX0@Z 00453d40 f   cinder:TwMgr.obj
 0001:00052e50       ?InitDir3FCB@CQuaternionExt@@SGXPAX0@Z 00453e50 f   cinder:TwMgr.obj
 0001:00052f60       ?InitDir3DCB@CQuaternionExt@@SGXPAX0@Z 00453f60 f   cinder:TwMgr.obj
 0001:000530c0       ?FindBar@CTwMgr@@QBEHPBD@Z 004540c0 f   cinder:TwMgr.obj
 0001:00053160       _TwSetBottomBar@4          00454160 f   cinder:TwMgr.obj
 0001:000532f0       ?GetCB@CCDStdString@CTwMgr@@SGXPAX0@Z 004542f0 f   cinder:TwMgr.obj
 0001:000535a0       ?flush@?$basic_ostream@DU?$char_traits@D@std@@@std@@QAEAAV12@XZ 004545a0 f i cinder:TwMgr.obj
 0001:000535f0       ?_Make_iter@?$vector@_NV?$allocator@_N@std@@@std@@QAE?AV?$_Vb_iterator@V?$allocator@_N@std@@@2@V?$_Vb_const_iterator@V?$allocator@_N@std@@@2@@Z 004545f0 f i cinder:TwMgr.obj
 0001:00053660       ?insert@?$basic_string@DU?$char_traits@D@std@@V?$allocator@D@2@@std@@QAEAAV12@IID@Z 00454660 f i cinder:TwMgr.obj
 0001:00053760       ?_Osfx@?$basic_ostream@DU?$char_traits@D@std@@@std@@QAEXXZ 00454760 f i cinder:TwMgr.obj
 0001:000537c0       ?_Put@?$num_put@DV?$ostreambuf_iterator@DU?$char_traits@D@std@@@std@@@std@@ABA?AV?$ostreambuf_iterator@DU?$char_traits@D@std@@@2@V32@PBDI@Z 004547c0 f i cinder:TwMgr.obj
 0001:000537c0       ?_Putc@?$num_put@DV?$ostreambuf_iterator@DU?$char_traits@D@std@@@std@@@std@@ABA?AV?$ostreambuf_iterator@DU?$char_traits@D@std@@@2@V32@PBDI@Z 004547c0 f i cinder:TwMgr.obj
 0001:00053830       ?_Rep@?$num_put@DV?$ostreambuf_iterator@DU?$char_traits@D@std@@@std@@@std@@ABA?AV?$ostreambuf_iterator@DU?$char_traits@D@std@@@2@V32@DI@Z 00454830 f i cinder:TwMgr.obj
 0001:000538a0       ?falsename@?$numpunct@D@std@@QBE?AV?$basic_string@DU?$char_traits@D@std@@V?$allocator@D@2@@2@XZ 004548a0 f i cinder:TwMgr.obj
 0001:000538c0       ?truename@?$numpunct@D@std@@QBE?AV?$basic_string@DU?$char_traits@D@std@@V?$allocator@D@2@@2@XZ 004548c0 f i cinder:TwMgr.obj
 0001:000538e0       ?_Putgrouped@?$num_put@DV?$ostreambuf_iterator@DU?$char_traits@D@std@@@std@@@std@@ABA?AV?$ostreambuf_iterator@DU?$char_traits@D@std@@@2@V32@PBDID@Z 004548e0 f i cinder:TwMgr.obj
 0001:00053980       ?grouping@?$numpunct@D@std@@QBE?AV?$basic_string@DU?$char_traits@D@std@@V?$allocator@D@2@@2@XZ 00454980 f i cinder:TwMgr.obj
 0001:000539a0       ?_Getcat@?$num_put@DV?$ostreambuf_iterator@DU?$char_traits@D@std@@@std@@@std@@SAIPAPBVfacet@locale@2@PBV42@@Z 004549a0 f i cinder:TwMgr.obj
 0001:00053a60       ?do_decimal_point@?$numpunct@D@std@@MBEDXZ 00454a60 f i cinder:TwMgr.obj
 0001:00053a70       ?do_thousands_sep@?$numpunct@D@std@@MBEDXZ 00454a70 f i cinder:TwMgr.obj
 0001:00053a80       ??_E?$numpunct@D@std@@MAEPAXI@Z 00454a80 f i cinder:TwMgr.obj
 0001:00053a80       ??_G?$numpunct@D@std@@MAEPAXI@Z 00454a80 f i cinder:TwMgr.obj
 0001:00053ad0       ??$_Buynode@UCStructProxy@CTwMgr@@@?$_List_val@UCStructProxy@CTwMgr@@V?$allocator@UCStructProxy@CTwMgr@@@std@@@std@@QAEPAU_Node@?$_List_nod@UCStructProxy@CTwMgr@@V?$allocator@UCStructProxy@CTwMgr@@@std@@@1@PAU231@0$$QAUCStructProxy@CTwMgr@@@Z 00454ad0 f i cinder:TwMgr.obj
 0001:00053b40       ??$_Buynode@UCMemberProxy@CTwMgr@@@?$_List_val@UCMemberProxy@CTwMgr@@V?$allocator@UCMemberProxy@CTwMgr@@@std@@@std@@QAEPAU_Node@?$_List_nod@UCMemberProxy@CTwMgr@@V?$allocator@UCMemberProxy@CTwMgr@@@std@@@1@PAU231@0$$QAUCMemberProxy@CTwMgr@@@Z 00454b40 f i cinder:TwMgr.obj
 0001:00053bc0       ??$_Buynode@UCCDStdString@CTwMgr@@@?$_List_val@UCCDStdString@CTwMgr@@V?$allocator@UCCDStdString@CTwMgr@@@std@@@std@@QAEPAU_Node@?$_List_nod@UCCDStdString@CTwMgr@@V?$allocator@UCCDStdString@CTwMgr@@@std@@@1@PAU231@0$$QAUCCDStdString@CTwMgr@@@Z 00454bc0 f i cinder:TwMgr.obj
 0001:00053c30       ??1CStructMember@CTwMgr@@QAE@XZ 00454c30 f i cinder:TwMgr.obj
 0001:00053cb0       ??$_Copy_impl@V?$_Vb_iterator@V?$allocator@_N@std@@@std@@V12@@std@@YA?AV?$_Vb_iterator@V?$allocator@_N@std@@@0@V10@00U_Nonscalar_ptr_iterator_tag@0@@Z 00454cb0 f i cinder:TwMgr.obj
 0001:00053d30       ??1CTwVar@@UAE@XZ          00454d30 f i cinder:TwMgr.obj
 0001:00053da0       ??_GCTwVar@@UAEPAXI@Z      00454da0 f i cinder:TwMgr.obj
 0001:00053da0       ??_ECTwVar@@UAEPAXI@Z      00454da0 f i cinder:TwMgr.obj
 0001:00053dd0       ??0CClientStdString@CTwMgr@@QAE@XZ 00454dd0 f   cinder:TwMgr.obj
 0001:00053e00       _TwWindowSize@8            00454e00 f   cinder:TwMgr.obj
 0001:00053f80       _TwSetTopBar@4             00454f80 f   cinder:TwMgr.obj
 0001:00054150       ??1CClientStdString@CTwMgr@@QAE@XZ 00455150 f i cinder:TwMgr.obj
 0001:00054180       ??RStructCompare@@QBE_NABW4ETwType@@0@Z 00455180 f i cinder:TwMgr.obj
 0001:00054220       ?erase@?$vector@PAUCTwVar@@V?$allocator@PAUCTwVar@@@std@@@std@@QAE?AV?$_Vector_iterator@V?$_Vector_val@PAUCTwVar@@V?$allocator@PAUCTwVar@@@std@@@std@@@2@V?$_Vector_const_iterator@V?$_Vector_val@PAUCTwVar@@V?$allocator@PAUCTwVar@@@std@@@std@@@2@@Z 00455220 f i cinder:TwMgr.obj
 0001:00054260       ?resize@?$basic_string@DU?$char_traits@D@std@@V?$allocator@D@2@@std@@QAEXID@Z 00455260 f i cinder:TwMgr.obj
 0001:00054290       ??1sentry@?$basic_ostream@DU?$char_traits@D@std@@@std@@QAE@XZ 00455290 f i cinder:TwMgr.obj
 0001:00054300       ?reserve@?$vector@NV?$allocator@N@std@@@std@@QAEXI@Z 00455300 f i cinder:TwMgr.obj
 0001:00054380       ?erase@?$_Tree@V?$_Tset_traits@W4ETwType@@UStructCompare@@V?$allocator@W4ETwType@@@std@@$0A@@std@@@std@@QAE?AV?$_Tree_const_iterator@V?$_Tree_val@V?$_Tset_traits@W4ETwType@@UStructCompare@@V?$allocator@W4ETwType@@@std@@$0A@@std@@@std@@@2@V32@@Z 00455380 f i cinder:TwMgr.obj
 0001:000545d0       ?_Insert@?$_Tree@V?$_Tset_traits@W4ETwType@@UStructCompare@@V?$allocator@W4ETwType@@@std@@$0A@@std@@@std@@IAE?AV?$_Tree_const_iterator@V?$_Tree_val@V?$_Tset_traits@W4ETwType@@UStructCompare@@V?$allocator@W4ETwType@@@std@@$0A@@std@@@std@@@2@_NPAU_Node@?$_Tree_nod@V?$_Tset_traits@W4ETwType@@UStructCompare@@V?$allocator@W4ETwType@@@std@@$0A@@std@@@2@1@Z 004555d0 f i cinder:TwMgr.obj
 0001:00054800       ?_Buynode@?$_Tree_val@V?$_Tset_traits@W4ETwType@@UStructCompare@@V?$allocator@W4ETwType@@@std@@$0A@@std@@@std@@QAEPAU_Node@?$_Tree_nod@V?$_Tset_traits@W4ETwType@@UStructCompare@@V?$allocator@W4ETwType@@@std@@$0A@@std@@@2@ABW4ETwType@@@Z 00455800 f i cinder:TwMgr.obj
 0001:00054870       ?_Erase@?$_Tree@V?$_Tset_traits@W4ETwType@@UStructCompare@@V?$allocator@W4ETwType@@@std@@$0A@@std@@@std@@IAEXPAU_Node@?$_Tree_nod@V?$_Tset_traits@W4ETwType@@UStructCompare@@V?$allocator@W4ETwType@@@std@@$0A@@std@@@2@@Z 00455870 f i cinder:TwMgr.obj
 0001:000548b0       ??$?6DU?$char_traits@D@std@@V?$allocator@D@1@@std@@YAAAV?$basic_ostream@DU?$char_traits@D@std@@@0@AAV10@ABV?$basic_string@DU?$char_traits@D@std@@V?$allocator@D@2@@0@@Z 004558b0 f i cinder:TwMgr.obj
 0001:00054b50       ??$?6U?$char_traits@D@std@@@std@@YAAAV?$basic_ostream@DU?$char_traits@D@std@@@0@AAV10@PBD@Z 00455b50 f i cinder:TwMgr.obj
 0001:00054e10       ??$use_facet@V?$num_put@DV?$ostreambuf_iterator@DU?$char_traits@D@std@@@std@@@std@@@std@@YAABV?$num_put@DV?$ostreambuf_iterator@DU?$char_traits@D@std@@@std@@@0@ABVlocale@0@@Z 00455e10 f i cinder:TwMgr.obj
 0001:00054f50       ?_Getcat@?$numpunct@D@std@@SAIPAPBVfacet@locale@2@PBV42@@Z 00455f50 f i cinder:TwMgr.obj
 0001:00055020       ??0CTwVarGroup@@QAE@XZ     00456020 f i cinder:TwMgr.obj
 0001:00055060       ??_GCTwVarGroup@@UAEPAXI@Z 00456060 f i cinder:TwMgr.obj
 0001:00055060       ??_ECTwVarGroup@@UAEPAXI@Z 00456060 f i cinder:TwMgr.obj
 0001:00055090       ?SetReadOnly@CTwVarGroup@@UAEX_N@Z 00456090 f i cinder:TwMgr.obj
 0001:000550e0       ?IsReadOnly@CTwVarGroup@@UBE_NXZ 004560e0 f i cinder:TwMgr.obj
 0001:00055130       ?Minimize@CTwMgr@@QAEXPAUCTwBar@@@Z 00456130 f   cinder:TwMgr.obj
 0001:00055220       ?Maximize@CTwMgr@@QAEXPAUCTwBar@@@Z 00456220 f   cinder:TwMgr.obj
 0001:000552a0       ?Hide@CTwMgr@@QAEXPAUCTwBar@@@Z 004562a0 f   cinder:TwMgr.obj
 0001:000552f0       ?Unhide@CTwMgr@@QAEXPAUCTwBar@@@Z 004562f0 f   cinder:TwMgr.obj
 0001:00055340       ?TwSetBarState@@YGHPAUCTwBar@@W4ETwState@@@Z 00456340 f   cinder:TwMgr.obj
 0001:00055410       ??1CCDStdStringRecord@CTwMgr@@QAE@XZ 00456410 f i cinder:TwMgr.obj
 0001:00055440       ??1?$pair@$$CBIV?$basic_string@DU?$char_traits@D@std@@V?$allocator@D@2@@std@@@std@@QAE@XZ 00456440 f i cinder:TwMgr.obj
 0001:00055440       ??1?$pair@P6A?AV?$shared_ptr@VImageTarget@cinder@@@tr1@std@@V?$shared_ptr@VDataTarget@cinder@@@23@V?$shared_ptr@VImageSource@cinder@@@23@VOptions@ImageTarget@cinder@@ABV?$basic_string@DU?$char_traits@D@std@@V?$allocator@D@2@@3@@ZV93@@std@@QAE@XZ 00456440 f i cinder:ImageIo.obj
 0001:00055470       ?resize@?$basic_string@DU?$char_traits@D@std@@V?$allocator@D@2@@std@@QAEXI@Z 00456470 f i cinder:TwMgr.obj
 0001:000554a0       ?push_back@?$list@UCStructProxy@CTwMgr@@V?$allocator@UCStructProxy@CTwMgr@@@std@@@std@@QAEX$$QAUCStructProxy@CTwMgr@@@Z 004564a0 f i cinder:TwMgr.obj
 0001:000554f0       ?push_back@?$list@UCMemberProxy@CTwMgr@@V?$allocator@UCMemberProxy@CTwMgr@@@std@@@std@@QAEX$$QAUCMemberProxy@CTwMgr@@@Z 004564f0 f i cinder:TwMgr.obj
 0001:00055540       ?push_back@?$list@UCCDStdString@CTwMgr@@V?$allocator@UCCDStdString@CTwMgr@@@std@@@std@@QAEX$$QAUCCDStdString@CTwMgr@@@Z 00456540 f i cinder:TwMgr.obj
 0001:00055590       ?_Trim@?$vector@_NV?$allocator@_N@std@@@std@@QAEXI@Z 00456590 f i cinder:TwMgr.obj
 0001:00055610       ?_Reserve@?$vector@NV?$allocator@N@std@@@std@@IAEXI@Z 00456610 f i cinder:TwMgr.obj
 0001:00055670       ?clear@?$_Tree@V?$_Tset_traits@W4ETwType@@UStructCompare@@V?$allocator@W4ETwType@@@std@@$0A@@std@@@std@@QAEXXZ 00456670 f i cinder:TwMgr.obj
 0001:000556c0       ??$use_facet@V?$numpunct@D@std@@@std@@YAABV?$numpunct@D@0@ABVlocale@0@@Z 004566c0 f i cinder:TwMgr.obj
 0001:00055800       ??0CStructMember@CTwMgr@@QAE@ABU01@@Z 00456800 f i cinder:TwMgr.obj
 0001:000558d0       ?TwGetKeyString@@YA_NPAV?$basic_string@DU?$char_traits@D@std@@V?$allocator@D@2@@std@@HH@Z 004568d0 f   cinder:TwMgr.obj
 0001:00055ce0       ?erase@?$vector@_NV?$allocator@_N@std@@@std@@QAE?AV?$_Vb_iterator@V?$allocator@_N@std@@@2@V?$_Vb_const_iterator@V?$allocator@_N@std@@@2@@Z 00456ce0 f i cinder:TwMgr.obj
 0001:00055df0       ?push_back@?$vector@MV?$allocator@M@std@@@std@@QAEXABM@Z 00456df0 f i cinder:TwMgr.obj
 0001:00055df0       ?push_back@?$vector@MV?$allocator@M@std@@@std@@QAEX$$QAM@Z 00456df0 f i cinder:TwMgr.obj
 0001:00055e60       ?push_back@?$vector@NV?$allocator@N@std@@@std@@QAEX$$QAN@Z 00456e60 f i cinder:TwMgr.obj
 0001:00055e60       ?push_back@?$vector@NV?$allocator@N@std@@@std@@QAEXABN@Z 00456e60 f i cinder:TwMgr.obj
 0001:00055ed0       ?erase@?$vector@_NV?$allocator@_N@std@@@std@@QAE?AV?$_Vb_iterator@V?$allocator@_N@std@@@2@V?$_Vb_const_iterator@V?$allocator@_N@std@@@2@0@Z 00456ed0 f i cinder:TwMgr.obj
 0001:00055ff0       ?insert@?$_Tree@V?$_Tset_traits@W4ETwType@@UStructCompare@@V?$allocator@W4ETwType@@@std@@$0A@@std@@@std@@QAE?AU?$pair@V?$_Tree_const_iterator@V?$_Tree_val@V?$_Tset_traits@W4ETwType@@UStructCompare@@V?$allocator@W4ETwType@@@std@@$0A@@std@@@std@@@std@@_N@2@ABW4ETwType@@_N@Z 00456ff0 f i cinder:TwMgr.obj
 0001:00056230       ?do_put@?$num_put@DV?$ostreambuf_iterator@DU?$char_traits@D@std@@@std@@@std@@MBE?AV?$ostreambuf_iterator@DU?$char_traits@D@std@@@2@V32@AAVios_base@2@D_N@Z 00457230 f i cinder:TwMgr.obj
 0001:00056450       ?clear@?$list@UCStructProxy@CTwMgr@@V?$allocator@UCStructProxy@CTwMgr@@@std@@@std@@QAEXXZ 00457450 f i cinder:TwMgr.obj
 0001:000564c0       ?clear@?$list@UCMemberProxy@CTwMgr@@V?$allocator@UCMemberProxy@CTwMgr@@@std@@@std@@QAEXXZ 004574c0 f i cinder:TwMgr.obj
 0001:00056510       ?erase@?$_Tree@V?$_Tset_traits@W4ETwType@@UStructCompare@@V?$allocator@W4ETwType@@@std@@$0A@@std@@@std@@QAE?AV?$_Tree_const_iterator@V?$_Tree_val@V?$_Tset_traits@W4ETwType@@UStructCompare@@V?$allocator@W4ETwType@@@std@@$0A@@std@@@std@@@2@V32@0@Z 00457510 f i cinder:TwMgr.obj
 0001:000565b0       ?_Fput@?$num_put@DV?$ostreambuf_iterator@DU?$char_traits@D@std@@@std@@@std@@ABA?AV?$ostreambuf_iterator@DU?$char_traits@D@std@@@2@V32@AAVios_base@2@DPBDIIII@Z 004575b0 f i cinder:TwMgr.obj
 0001:00056b20       ?_Iput@?$num_put@DV?$ostreambuf_iterator@DU?$char_traits@D@std@@@std@@@std@@ABA?AV?$ostreambuf_iterator@DU?$char_traits@D@std@@@2@V32@AAVios_base@2@DPADI@Z 00457b20 f i cinder:TwMgr.obj
 0001:00056db0       ?do_grouping@?$numpunct@D@std@@MBE?AV?$basic_string@DU?$char_traits@D@std@@V?$allocator@D@2@@2@XZ 00457db0 f i cinder:TwMgr.obj
 0001:00056e00       ?do_falsename@?$numpunct@D@std@@MBE?AV?$basic_string@DU?$char_traits@D@std@@V?$allocator@D@2@@2@XZ 00457e00 f i cinder:TwMgr.obj
 0001:00056e50       ?do_truename@?$numpunct@D@std@@MBE?AV?$basic_string@DU?$char_traits@D@std@@V?$allocator@D@2@@2@XZ 00457e50 f i cinder:TwMgr.obj
 0001:00056ea0       ?CreateSphere@CQuaternionExt@@SAXXZ 00457ea0 f   cinder:TwMgr.obj
 0001:00057ac0       ?CreateArrow@CQuaternionExt@@SAXXZ 00458ac0 f   cinder:TwMgr.obj
 0001:00059230       ?FromLib@CClientStdString@CTwMgr@@QAEXPBD@Z 0045a230 f   cinder:TwMgr.obj
 0001:00059270       ?SetAttrib@CTwMgr@@QAEHHPBD@Z 0045a270 f   cinder:TwMgr.obj
 0001:000598a0       _TwDeleteBar@4             0045a8a0 f   cinder:TwMgr.obj
 0001:00059ae0       _TwRemoveVar@8             0045aae0 f   cinder:TwMgr.obj
 0001:00059c70       _TwRemoveAllVars@4         0045ac70 f   cinder:TwMgr.obj
 0001:00059d50       ?ParseToken@@YAHAAV?$basic_string@DU?$char_traits@D@std@@V?$allocator@D@2@@std@@PBDAAH2_N3DD@Z 0045ad50 f   cinder:TwMgr.obj
 0001:00059f00       ?BarVarSetAttrib@@YAHPAUCTwBar@@PAUCTwVar@@PAUCTwVarGroup@@HHPBD@Z 0045af00 f   cinder:TwMgr.obj
 0001:0005a3c0       _TwMouseButton@8           0045b3c0 f   cinder:TwMgr.obj
 0001:0005a3e0       _TwMouseMotion@8           0045b3e0 f   cinder:TwMgr.obj
 0001:0005a410       _TwMouseWheel@4            0045b410 f   cinder:TwMgr.obj
 0001:0005a440       _TwKeyPressed@8            0045b440 f   cinder:TwMgr.obj
 0001:0005a970       ?do_put@?$num_put@DV?$ostreambuf_iterator@DU?$char_traits@D@std@@@std@@@std@@MBE?AV?$ostreambuf_iterator@DU?$char_traits@D@std@@@2@V32@AAVios_base@2@DJ@Z 0045b970 f i cinder:TwMgr.obj
 0001:0005a9f0       ?do_put@?$num_put@DV?$ostreambuf_iterator@DU?$char_traits@D@std@@@std@@@std@@MBE?AV?$ostreambuf_iterator@DU?$char_traits@D@std@@@2@V32@AAVios_base@2@DK@Z 0045b9f0 f i cinder:TwMgr.obj
 0001:0005aa70       ?do_put@?$num_put@DV?$ostreambuf_iterator@DU?$char_traits@D@std@@@std@@@std@@MBE?AV?$ostreambuf_iterator@DU?$char_traits@D@std@@@2@V32@AAVios_base@2@D_J@Z 0045ba70 f i cinder:TwMgr.obj
 0001:0005aaf0       ?do_put@?$num_put@DV?$ostreambuf_iterator@DU?$char_traits@D@std@@@std@@@std@@MBE?AV?$ostreambuf_iterator@DU?$char_traits@D@std@@@2@V32@AAVios_base@2@D_K@Z 0045baf0 f i cinder:TwMgr.obj
 0001:0005ab70       ?do_put@?$num_put@DV?$ostreambuf_iterator@DU?$char_traits@D@std@@@std@@@std@@MBE?AV?$ostreambuf_iterator@DU?$char_traits@D@std@@@2@V32@AAVios_base@2@DN@Z 0045bb70 f i cinder:TwMgr.obj
 0001:0005ad80       ?do_put@?$num_put@DV?$ostreambuf_iterator@DU?$char_traits@D@std@@@std@@@std@@MBE?AV?$ostreambuf_iterator@DU?$char_traits@D@std@@@2@V32@AAVios_base@2@DO@Z 0045bd80 f i cinder:TwMgr.obj
 0001:0005af80       ?do_put@?$num_put@DV?$ostreambuf_iterator@DU?$char_traits@D@std@@@std@@@std@@MBE?AV?$ostreambuf_iterator@DU?$char_traits@D@std@@@2@V32@AAVios_base@2@DPBX@Z 0045bf80 f i cinder:TwMgr.obj
 0001:0005afe0       ??$?HDU?$char_traits@D@std@@V?$allocator@D@1@@std@@YA?AV?$basic_string@DU?$char_traits@D@std@@V?$allocator@D@2@@0@DABV10@@Z 0045bfe0 f i cinder:TwMgr.obj
 0001:0005b0a0       ??$?HDU?$char_traits@D@std@@V?$allocator@D@1@@std@@YA?AV?$basic_string@DU?$char_traits@D@std@@V?$allocator@D@2@@0@$$QAV10@D@Z 0045c0a0 f i cinder:TwMgr.obj
 0001:0005b0e0       ??$?HDU?$char_traits@D@std@@V?$allocator@D@1@@std@@YA?AV?$basic_string@DU?$char_traits@D@std@@V?$allocator@D@2@@0@ABV10@D@Z 0045c0e0 f i cinder:TwMgr.obj
 0001:0005b1a0       ??$?HDU?$char_traits@D@std@@V?$allocator@D@1@@std@@YA?AV?$basic_string@DU?$char_traits@D@std@@V?$allocator@D@2@@0@ABV10@0@Z 0045c1a0 f i cinder:TwMgr.obj
 0001:0005b260       ??$_Move@PAUCStructMember@CTwMgr@@PAU12@@std@@YAPAUCStructMember@CTwMgr@@PAU12@00U_Nonscalar_ptr_iterator_tag@0@@Z 0045c260 f i cinder:TwMgr.obj
 0001:0005b2e0       ??$_Uninit_move@PAUCStructMember@CTwMgr@@PAU12@V?$allocator@UCStructMember@CTwMgr@@@std@@U12@@std@@YAPAUCStructMember@CTwMgr@@PAU12@00AAV?$allocator@UCStructMember@CTwMgr@@@0@0U_Nonscalar_ptr_iterator_tag@0@@Z 0045c2e0 f i cinder:TwMgr.obj
 0001:0005b380       _TwDraw@0                  0045c380 f   cinder:TwMgr.obj
 0001:0005b5b0       _TwDeleteAllBars@0         0045c5b0 f   cinder:TwMgr.obj
 0001:0005b720       ?DefaultSummary@CStruct@CTwMgr@@SGXPADIPBXPAX@Z 0045c720 f   cinder:TwMgr.obj
 0001:0005bbb0       ??1?$list@UCStructProxy@CTwMgr@@V?$allocator@UCStructProxy@CTwMgr@@@std@@@std@@QAE@XZ 0045cbb0 f i cinder:TwMgr.obj
 0001:0005bbd0       ??1?$list@UCMemberProxy@CTwMgr@@V?$allocator@UCMemberProxy@CTwMgr@@@std@@@std@@QAE@XZ 0045cbd0 f i cinder:TwMgr.obj
 0001:0005bbf0       ??$_Cons_val@V?$allocator@UCCDStdStringRecord@CTwMgr@@@std@@UCCDStdStringRecord@CTwMgr@@U34@@std@@YAXAAV?$allocator@UCCDStdStringRecord@CTwMgr@@@0@PAUCCDStdStringRecord@CTwMgr@@$$QAU23@@Z 0045cbf0 f i cinder:TwMgr.obj
